
ff:     file format elf32-littlearm


Disassembly of section .interp:

00008174 <.interp>:
    8174:	62696c2f 	rsbvs	r6, r9, #12032	; 0x2f00
    8178:	2d646c2f 	stclcs	12, cr6, [r4, #-188]!	; 0xffffff44
    817c:	756e696c 	strbvc	r6, [lr, #-2412]!	; 0xfffff694
    8180:	72612d78 	rsbvc	r2, r1, #120, 26	; 0x1e00
    8184:	2e66686d 	cdpcs	8, 6, cr6, cr6, cr13, {3}
    8188:	332e6f73 			; <UNDEFINED> instruction: 0x332e6f73
	...

Disassembly of section .note.ABI-tag:

00008190 <.note.ABI-tag>:
    8190:	00000004 	andeq	r0, r0, r4
    8194:	00000010 	andeq	r0, r0, r0, lsl r0
    8198:	00000001 	andeq	r0, r0, r1
    819c:	00554e47 	subseq	r4, r5, r7, asr #28
    81a0:	00000000 	andeq	r0, r0, r0
    81a4:	00000003 	andeq	r0, r0, r3
    81a8:	00000002 	andeq	r0, r0, r2
    81ac:	00000000 	andeq	r0, r0, r0

Disassembly of section .note.gnu.build-id:

000081b0 <.note.gnu.build-id>:
    81b0:	00000004 	andeq	r0, r0, r4
    81b4:	00000014 	andeq	r0, r0, r4, lsl r0
    81b8:	00000003 	andeq	r0, r0, r3
    81bc:	00554e47 	subseq	r4, r5, r7, asr #28
    81c0:	352ec2d7 	strcc	ip, [lr, #-727]!	; 0xfffffd29
    81c4:	65bd1908 	ldrvs	r1, [sp, #2312]!	; 0x908
    81c8:	4d2f3ab1 	vstmdbmi	pc!, {s6-s182}
    81cc:	c2edf02b 	rscgt	pc, sp, #43	; 0x2b
    81d0:	b2b12aac 	adcslt	r2, r1, #172, 20	; 0xac000

Disassembly of section .dynsym:

000081d4 <.dynsym>:
	...
    81e4:	00000001 	andeq	r0, r0, r1
	...
    81f0:	00000012 	andeq	r0, r0, r2, lsl r0
    81f4:	00000025 	andeq	r0, r0, r5, lsr #32
	...
    8200:	00000012 	andeq	r0, r0, r2, lsl r0
    8204:	00000039 	andeq	r0, r0, r9, lsr r0
	...
    8210:	00000012 	andeq	r0, r0, r2, lsl r0
    8214:	0000004b 	andeq	r0, r0, fp, asr #32
	...
    8220:	00000012 	andeq	r0, r0, r2, lsl r0
    8224:	0000005b 	andeq	r0, r0, fp, asr r0
	...
    8230:	00000012 	andeq	r0, r0, r2, lsl r0
    8234:	0000007e 	andeq	r0, r0, lr, ror r0
	...
    8240:	00000012 	andeq	r0, r0, r2, lsl r0
    8244:	0000008a 	andeq	r0, r0, sl, lsl #1
	...
    8250:	00000012 	andeq	r0, r0, r2, lsl r0
    8254:	00000096 	muleq	r0, r6, r0
	...
    8260:	00000012 	andeq	r0, r0, r2, lsl r0
    8264:	000000a3 	andeq	r0, r0, r3, lsr #1
	...
    8270:	00000012 	andeq	r0, r0, r2, lsl r0
    8274:	000000b0 	strheq	r0, [r0], -r0	; <UNPREDICTABLE>
	...
    8280:	00000012 	andeq	r0, r0, r2, lsl r0
    8284:	000000b6 	strheq	r0, [r0], -r6
	...
    8290:	00000012 	andeq	r0, r0, r2, lsl r0
    8294:	000000bd 	strheq	r0, [r0], -sp
	...
    82a0:	00000012 	andeq	r0, r0, r2, lsl r0
    82a4:	000000c5 	andeq	r0, r0, r5, asr #1
	...
    82b0:	00000012 	andeq	r0, r0, r2, lsl r0
    82b4:	000000cb 	andeq	r0, r0, fp, asr #1
	...
    82c0:	00000012 	andeq	r0, r0, r2, lsl r0
    82c4:	000000d2 	ldrdeq	r0, [r0], -r2
	...
    82d0:	00000012 	andeq	r0, r0, r2, lsl r0
    82d4:	000000da 	ldrdeq	r0, [r0], -sl
	...
    82e0:	00000012 	andeq	r0, r0, r2, lsl r0
    82e4:	000000df 	ldrdeq	r0, [r0], -pc	; <UNPREDICTABLE>
	...
    82f0:	00000012 	andeq	r0, r0, r2, lsl r0
    82f4:	000000e6 	andeq	r0, r0, r6, ror #1
	...
    8300:	00000012 	andeq	r0, r0, r2, lsl r0
    8304:	000000ec 	andeq	r0, r0, ip, ror #1
	...
    8310:	00000012 	andeq	r0, r0, r2, lsl r0
    8314:	000000f6 	strdeq	r0, [r0], -r6
	...
    8320:	00000012 	andeq	r0, r0, r2, lsl r0
    8324:	000000fc 	strdeq	r0, [r0], -ip
	...
    8330:	00000012 	andeq	r0, r0, r2, lsl r0
    8334:	00000104 	andeq	r0, r0, r4, lsl #2
	...
    8340:	00000012 	andeq	r0, r0, r2, lsl r0
    8344:	0000010d 	andeq	r0, r0, sp, lsl #2
	...
    8350:	00000012 	andeq	r0, r0, r2, lsl r0
    8354:	00000112 	andeq	r0, r0, r2, lsl r1
	...
    8360:	00000012 	andeq	r0, r0, r2, lsl r0
    8364:	00000117 	andeq	r0, r0, r7, lsl r1
	...
    8370:	00000012 	andeq	r0, r0, r2, lsl r0
    8374:	0000011c 	andeq	r0, r0, ip, lsl r1
	...
    8380:	00000012 	andeq	r0, r0, r2, lsl r0
    8384:	00000126 	andeq	r0, r0, r6, lsr #2
	...
    8390:	00000012 	andeq	r0, r0, r2, lsl r0
    8394:	0000012d 	andeq	r0, r0, sp, lsr #2
	...
    83a0:	00000012 	andeq	r0, r0, r2, lsl r0
    83a4:	00000136 	andeq	r0, r0, r6, lsr r1
	...
    83b0:	00000012 	andeq	r0, r0, r2, lsl r0
    83b4:	0000013e 	andeq	r0, r0, lr, lsr r1
	...
    83c0:	00000012 	andeq	r0, r0, r2, lsl r0
    83c4:	00000147 	andeq	r0, r0, r7, asr #2
	...
    83d0:	00000012 	andeq	r0, r0, r2, lsl r0
    83d4:	00000156 	andeq	r0, r0, r6, asr r1
	...
    83e0:	00000012 	andeq	r0, r0, r2, lsl r0
    83e4:	00000163 	andeq	r0, r0, r3, ror #2
	...
    83f0:	00000012 	andeq	r0, r0, r2, lsl r0
    83f4:	00000168 	andeq	r0, r0, r8, ror #2
	...
    8400:	00000012 	andeq	r0, r0, r2, lsl r0
    8404:	0000016f 	andeq	r0, r0, pc, ror #2
	...
    8410:	00000012 	andeq	r0, r0, r2, lsl r0
    8414:	00000174 	andeq	r0, r0, r4, ror r1
	...
    8420:	00000012 	andeq	r0, r0, r2, lsl r0
    8424:	0000017a 	andeq	r0, r0, sl, ror r1
	...
    8430:	00000012 	andeq	r0, r0, r2, lsl r0
    8434:	00000181 	andeq	r0, r0, r1, lsl #3
	...
    8440:	00000012 	andeq	r0, r0, r2, lsl r0
    8444:	00000189 	andeq	r0, r0, r9, lsl #3
	...
    8450:	00000012 	andeq	r0, r0, r2, lsl r0
    8454:	0000018f 	andeq	r0, r0, pc, lsl #3
	...
    8460:	00000012 	andeq	r0, r0, r2, lsl r0
    8464:	00000195 	muleq	r0, r5, r1
	...
    8470:	00000012 	andeq	r0, r0, r2, lsl r0
    8474:	0000019b 	muleq	r0, fp, r1
	...
    8480:	00000012 	andeq	r0, r0, r2, lsl r0
    8484:	000001a1 	andeq	r0, r0, r1, lsr #3
	...
    8490:	00000012 	andeq	r0, r0, r2, lsl r0
    8494:	000001a8 	andeq	r0, r0, r8, lsr #3
	...
    84a0:	00000012 	andeq	r0, r0, r2, lsl r0
    84a4:	000001ae 	andeq	r0, r0, lr, lsr #3
	...
    84b0:	00000012 	andeq	r0, r0, r2, lsl r0
    84b4:	000001b4 			; <UNDEFINED> instruction: 0x000001b4
	...
    84c0:	00000012 	andeq	r0, r0, r2, lsl r0
    84c4:	000001bb 			; <UNDEFINED> instruction: 0x000001bb
	...
    84d0:	00000012 	andeq	r0, r0, r2, lsl r0
    84d4:	000001c0 	andeq	r0, r0, r0, asr #3
	...
    84e0:	00000012 	andeq	r0, r0, r2, lsl r0
    84e4:	000001c7 	andeq	r0, r0, r7, asr #3
	...
    84f0:	00000012 	andeq	r0, r0, r2, lsl r0
    84f4:	000001ce 	andeq	r0, r0, lr, asr #3
	...
    8500:	00000012 	andeq	r0, r0, r2, lsl r0
    8504:	000001d3 	ldrdeq	r0, [r0], -r3
	...
    8510:	00000012 	andeq	r0, r0, r2, lsl r0
    8514:	000001da 	ldrdeq	r0, [r0], -sl
	...
    8520:	00000012 	andeq	r0, r0, r2, lsl r0
    8524:	000001e4 	andeq	r0, r0, r4, ror #3
	...
    8530:	00000012 	andeq	r0, r0, r2, lsl r0
    8534:	000001f5 	strdeq	r0, [r0], -r5
	...
    8540:	00000012 	andeq	r0, r0, r2, lsl r0
    8544:	0000021a 	andeq	r0, r0, sl, lsl r2
	...
    8550:	00000012 	andeq	r0, r0, r2, lsl r0
    8554:	0000021f 	andeq	r0, r0, pc, lsl r2
	...
    8560:	00000012 	andeq	r0, r0, r2, lsl r0
    8564:	00000226 	andeq	r0, r0, r6, lsr #4
	...
    8570:	00000012 	andeq	r0, r0, r2, lsl r0
    8574:	00000231 	andeq	r0, r0, r1, lsr r2
	...
    8580:	00000012 	andeq	r0, r0, r2, lsl r0
    8584:	00000240 	andeq	r0, r0, r0, asr #4
	...
    8590:	00000012 	andeq	r0, r0, r2, lsl r0
    8594:	0000024d 	andeq	r0, r0, sp, asr #4
	...
    85a0:	00000012 	andeq	r0, r0, r2, lsl r0
    85a4:	0000025a 	andeq	r0, r0, sl, asr r2
	...
    85b0:	00000012 	andeq	r0, r0, r2, lsl r0
    85b4:	00000261 	andeq	r0, r0, r1, ror #4
	...
    85c0:	00000012 	andeq	r0, r0, r2, lsl r0
    85c4:	00000268 	andeq	r0, r0, r8, ror #4
	...
    85d0:	00000012 	andeq	r0, r0, r2, lsl r0
    85d4:	00000271 	andeq	r0, r0, r1, ror r2
	...
    85e0:	00000012 	andeq	r0, r0, r2, lsl r0
    85e4:	0000027e 	andeq	r0, r0, lr, ror r2
	...
    85f0:	00000012 	andeq	r0, r0, r2, lsl r0
    85f4:	00000286 	andeq	r0, r0, r6, lsl #5
	...
    8600:	00000012 	andeq	r0, r0, r2, lsl r0
    8604:	0000028d 	andeq	r0, r0, sp, lsl #5
	...
    8610:	00000012 	andeq	r0, r0, r2, lsl r0
    8614:	00000296 	muleq	r0, r6, r2
	...
    8620:	00000012 	andeq	r0, r0, r2, lsl r0
    8624:	0000029d 	muleq	r0, sp, r2
	...
    8630:	00000012 	andeq	r0, r0, r2, lsl r0
    8634:	000002a4 	andeq	r0, r0, r4, lsr #5
	...
    8640:	00000012 	andeq	r0, r0, r2, lsl r0
    8644:	000002ab 	andeq	r0, r0, fp, lsr #5
	...
    8650:	00000012 	andeq	r0, r0, r2, lsl r0
    8654:	000002b1 			; <UNDEFINED> instruction: 0x000002b1
	...
    8660:	00000020 	andeq	r0, r0, r0, lsr #32
    8664:	000002cb 	andeq	r0, r0, fp, asr #5
	...
    8670:	00000020 	andeq	r0, r0, r0, lsr #32
    8674:	000002e7 	andeq	r0, r0, r7, ror #5
	...
    8680:	00000020 	andeq	r0, r0, r0, lsr #32

Disassembly of section .dynstr:

00008684 <.dynstr>:
    8684:	695f5f00 	ldmdbvs	pc, {r8, r9, sl, fp, ip, lr}^	; <UNPREDICTABLE>
    8688:	39636f73 	stmdbcc	r3!, {r0, r1, r4, r5, r6, r8, r9, sl, fp, sp, lr}^
    868c:	73665f39 	cmnvc	r6, #57, 30	; 0xe4
    8690:	666e6163 	strbtvs	r6, [lr], -r3, ror #2
    8694:	494c4700 	stmdbmi	ip, {r8, r9, sl, lr}^
    8698:	325f4342 	subscc	r4, pc, #134217729	; 0x8000001
    869c:	6c00372e 	stcvs	7, cr3, [r0], {46}	; 0x2e
    86a0:	2e636269 	cdpcs	2, 6, cr6, cr3, cr9, {3}
    86a4:	362e6f73 	qsub16cc	r6, lr, r3
    86a8:	656e6900 	strbvs	r6, [lr, #-2304]!	; 0xfffff700
    86ac:	746e5f74 	strbtvc	r5, [lr], #-3956	; 0xfffff08c
    86b0:	4700616f 	strmi	r6, [r0, -pc, ror #2]
    86b4:	4342494c 	movtmi	r4, #10572	; 0x294c
    86b8:	342e325f 	strtcc	r3, [lr], #-607	; 0xfffffda1
    86bc:	6c5f5f00 	mrrcvs	15, 0, r5, pc, cr0	; <UNPREDICTABLE>
    86c0:	5f636269 	svcpl	0x00636269
    86c4:	72617473 	rsbvc	r7, r1, #1929379840	; 0x73000000
    86c8:	616d5f74 	smcvs	54772	; 0xd5f4
    86cc:	5f006e69 	svcpl	0x00006e69
    86d0:	6f73695f 	svcvs	0x0073695f
    86d4:	5f393963 	svcpl	0x00393963
    86d8:	61637373 	smcvs	14131	; 0x3733
    86dc:	5f00666e 	svcpl	0x0000666e
    86e0:	655f685f 	ldrbvs	r6, [pc, #-2143]	; 7e89 <_init-0x109b>
    86e4:	6f6e7272 	svcvs	0x006e7272
    86e8:	636f6c5f 	cmnvs	pc, #24320	; 0x5f00
    86ec:	6f697461 	svcvs	0x00697461
    86f0:	696c006e 	stmdbvs	ip!, {r1, r2, r3, r5, r6}^
    86f4:	68747062 	ldmdavs	r4!, {r1, r5, r6, ip, sp, lr}^
    86f8:	64616572 	strbtvs	r6, [r1], #-1394	; 0xfffffa8e
    86fc:	2e6f732e 	cdpcs	3, 6, cr7, cr15, cr14, {1}
    8700:	5f5f0030 	svcpl	0x005f0030
    8704:	5f736572 	svcpl	0x00736572
    8708:	696e696e 	stmdbvs	lr!, {r1, r2, r3, r5, r6, r8, fp, sp, lr}^
    870c:	65670074 	strbvs	r0, [r7, #-116]!	; 0xffffff8c
    8710:	64646174 	strbtvs	r6, [r4], #-372	; 0xfffffe8c
    8714:	666e6972 			; <UNDEFINED> instruction: 0x666e6972
    8718:	7266006f 	rsbvc	r0, r6, #111	; 0x6f
    871c:	64616565 	strbtvs	r6, [r1], #-1381	; 0xfffffa9b
    8720:	6e697264 	cdpvs	2, 6, cr7, cr9, cr4, {3}
    8724:	67006f66 	strvs	r6, [r0, -r6, ror #30]
    8728:	735f6961 	cmpvc	pc, #1589248	; 0x184000
    872c:	72657274 	rsbvc	r7, r5, #116, 4	; 0x40000007
    8730:	00726f72 	rsbseq	r6, r2, r2, ror pc
    8734:	74656766 	strbtvc	r6, [r5], #-1894	; 0xfffff89a
    8738:	64660073 	strbtvs	r0, [r6], #-115	; 0xffffff8d
    873c:	6e65706f 	cdpvs	0, 6, cr7, cr5, cr15, {3}
    8740:	6e6f6300 	cdpvs	3, 6, cr6, cr15, cr0, {0}
    8744:	7463656e 	strbtvc	r6, [r3], #-1390	; 0xfffffa92
    8748:	6f746800 	svcvs	0x00746800
    874c:	7300736e 	movwvc	r7, #878	; 0x36e
    8750:	656b636f 	strbvs	r6, [fp, #-879]!	; 0xfffffc91
    8754:	74730074 	ldrbtvc	r0, [r3], #-116	; 0xffffff8c
    8758:	6d636e72 	stclvs	14, cr6, [r3, #-456]!	; 0xfffffe38
    875c:	65660070 	strbvs	r0, [r6, #-112]!	; 0xffffff90
    8760:	6600666f 	strvs	r6, [r0], -pc, ror #12
    8764:	6e656c69 	cdpvs	12, 6, cr6, cr5, cr9, {3}
    8768:	7366006f 	cmnvc	r6, #111	; 0x6f
    876c:	006b6565 	rsbeq	r6, fp, r5, ror #10
    8770:	69746573 	ldmdbvs	r4!, {r0, r1, r4, r5, r6, r8, sl, sp, lr}^
    8774:	656d6974 	strbvs	r6, [sp, #-2420]!	; 0xfffff68c
    8778:	72660072 	rsbvc	r0, r6, #114	; 0x72
    877c:	00646165 	rsbeq	r6, r4, r5, ror #2
    8780:	69727076 	ldmdbvs	r2!, {r1, r2, r4, r5, r6, ip, sp, lr}^
    8784:	0066746e 	rsbeq	r7, r6, lr, ror #8
    8788:	72706676 	rsbsvc	r6, r0, #123731968	; 0x7600000
    878c:	66746e69 	ldrbtvs	r6, [r4], -r9, ror #28
    8790:	726f6600 	rsbvc	r6, pc, #0, 12
    8794:	6974006b 	ldmdbvs	r4!, {r0, r1, r3, r5, r6}^
    8798:	6b00656d 	blvs	21d54 <_end+0x12a3c>
    879c:	006c6c69 	rsbeq	r6, ip, r9, ror #24
    87a0:	61636f6c 	cmnvs	r3, ip, ror #30
    87a4:	6d69746c 	cfstrdvs	mvd7, [r9, #-432]!	; 0xfffffe50
    87a8:	74730065 	ldrbtvc	r0, [r3], #-101	; 0xffffff9b
    87ac:	74616372 	strbtvc	r6, [r1], #-882	; 0xfffffc8e
    87b0:	72747300 	rsbsvc	r7, r4, #0, 6
    87b4:	6d697466 	cfstrdvs	mvd7, [r9, #-408]!	; 0xfffffe68
    87b8:	69640065 	stmdbvs	r4!, {r0, r2, r5, r6}^
    87bc:	6d616e72 	stclvs	14, cr6, [r1, #-456]!	; 0xfffffe38
    87c0:	65720065 	ldrbvs	r0, [r2, #-101]!	; 0xffffff9b
    87c4:	696c6461 	stmdbvs	ip!, {r0, r5, r6, sl, sp, lr}^
    87c8:	70006b6e 	andvc	r6, r0, lr, ror #22
    87cc:	65726874 	ldrbvs	r6, [r2, #-2164]!	; 0xfffff78c
    87d0:	635f6461 	cmpvs	pc, #1627389952	; 0x61000000
    87d4:	74616572 	strbtvc	r6, [r1], #-1394	; 0xfffffa8e
    87d8:	74700065 	ldrbtvc	r0, [r0], #-101	; 0xffffff9b
    87dc:	61657268 	cmnvs	r5, r8, ror #4
    87e0:	6f6a5f64 	svcvs	0x006a5f64
    87e4:	66006e69 	strvs	r6, [r0], -r9, ror #28
    87e8:	00656572 	rsbeq	r6, r5, r2, ror r5
    87ec:	6f6c6366 	svcvs	0x006c6366
    87f0:	65006573 	strvs	r6, [r0, #-1395]	; 0xfffffa8d
    87f4:	00746978 	rsbseq	r6, r4, r8, ror r9
    87f8:	6c657466 	cfstrdvs	mvd7, [r5], #-408	; 0xfffffe68
    87fc:	6573006c 	ldrbvs	r0, [r3, #-108]!	; 0xffffff94
    8800:	66756274 			; <UNDEFINED> instruction: 0x66756274
    8804:	69617700 	stmdbvs	r1!, {r8, r9, sl, ip, sp, lr}^
    8808:	64697074 	strbtvs	r7, [r9], #-116	; 0xffffff8c
    880c:	6f6c6600 	svcvs	0x006c6600
    8810:	66006b63 	strvs	r6, [r0], -r3, ror #22
    8814:	6e65706f 	cdpvs	0, 6, cr7, cr5, cr15, {3}
    8818:	616c6100 	cmnvs	ip, r0, lsl #2
    881c:	63006d72 	movwvs	r6, #3442	; 0xd72
    8820:	65736f6c 	ldrbvs	r6, [r3, #-3948]!	; 0xfffff094
    8824:	69727000 	ldmdbvs	r2!, {ip, sp, lr}^
    8828:	0066746e 	rsbeq	r7, r6, lr, ror #8
    882c:	74697277 	strbtvc	r7, [r9], #-631	; 0xfffffd89
    8830:	6c730065 	ldclvs	0, cr0, [r3], #-404	; 0xfffffe6c
    8834:	00706565 	rsbseq	r6, r0, r5, ror #10
    8838:	6c737973 			; <UNDEFINED> instruction: 0x6c737973
    883c:	7200676f 	andvc	r6, r0, #29097984	; 0x1bc0000
    8840:	00646165 	rsbeq	r6, r4, r5, ror #2
    8844:	6c727473 	cfldrdvs	mvd7, [r2], #-460	; 0xfffffe34
    8848:	75006e65 	strvc	r6, [r0, #-3685]	; 0xfffff19b
    884c:	65656c73 	strbvs	r6, [r5, #-3187]!	; 0xfffff38d
    8850:	74610070 	strbtvc	r0, [r1], #-112	; 0xffffff90
    8854:	7300696f 	movwvc	r6, #2415	; 0x96f
    8858:	6e657465 	cdpvs	4, 6, cr7, cr5, cr5, {3}
    885c:	69730076 	ldmdbvs	r3!, {r1, r2, r4, r5, r6}^
    8860:	74636167 	strbtvc	r6, [r3], #-359	; 0xfffffe99
    8864:	006e6f69 	rsbeq	r6, lr, r9, ror #30
    8868:	72655f5f 	rsbvc	r5, r5, #380	; 0x17c
    886c:	5f6f6e72 	svcpl	0x006f6e72
    8870:	61636f6c 	cmnvs	r3, ip, ror #30
    8874:	6e6f6974 			; <UNDEFINED> instruction: 0x6e6f6974
    8878:	5f736e00 	svcpl	0x00736e00
    887c:	69727073 	ldmdbvs	r2!, {r0, r1, r4, r5, r6, ip, sp, lr}^
    8880:	7272746e 	rsbsvc	r7, r2, #1845493760	; 0x6e000000
    8884:	494c4700 	stmdbmi	ip, {r8, r9, sl, lr}^
    8888:	325f4342 	subscc	r4, pc, #134217729	; 0x8000001
    888c:	6c00392e 			; <UNDEFINED> instruction: 0x6c00392e
    8890:	65726269 	ldrbvs	r6, [r2, #-617]!	; 0xfffffd97
    8894:	766c6f73 	uqsub16vc	r6, ip, r3
    8898:	2e6f732e 	cdpcs	3, 6, cr7, cr15, cr14, {1}
    889c:	706f0032 	rsbvc	r0, pc, r2, lsr r0	; <UNPREDICTABLE>
    88a0:	73006e65 	movwvc	r6, #3685	; 0xe65
    88a4:	6d637274 	sfmvs	f7, 2, [r3, #-464]!	; 0xfffffe30
    88a8:	736e0070 	cmnvc	lr, #112	; 0x70
    88ac:	7261705f 	rsbvc	r7, r1, #95	; 0x5f
    88b0:	72726573 	rsbsvc	r6, r2, #482344960	; 0x1cc00000
    88b4:	5f736e00 	svcpl	0x00736e00
    88b8:	5f67736d 	svcpl	0x0067736d
    88bc:	66746567 	ldrbtvs	r6, [r4], -r7, ror #10
    88c0:	0067616c 	rsbeq	r6, r7, ip, ror #2
    88c4:	65725f5f 	ldrbvs	r5, [r2, #-3935]!	; 0xfffff0a1
    88c8:	716e5f73 	smcvc	58867	; 0xe5f3
    88cc:	79726575 	ldmdbvc	r2!, {r0, r2, r4, r5, r6, r8, sl, sp, lr}^
    88d0:	5f736e00 	svcpl	0x00736e00
    88d4:	74696e69 	strbtvc	r6, [r9], #-3689	; 0xfffff197
    88d8:	73726170 	cmnvc	r2, #112, 2
    88dc:	656d0065 	strbvs	r0, [sp, #-101]!	; 0xffffff9b
    88e0:	7465736d 	strbtvc	r7, [r5], #-877	; 0xfffffc93
    88e4:	72747300 	rsbsvc	r7, r4, #0, 6
    88e8:	00797063 	rsbseq	r7, r9, r3, rrx
    88ec:	72706e73 	rsbsvc	r6, r0, #1840	; 0x730
    88f0:	66746e69 	ldrbtvs	r6, [r4], -r9, ror #28
    88f4:	74656700 	strbtvc	r6, [r5], #-1792	; 0xfffff900
    88f8:	656d6974 	strbvs	r6, [sp, #-2420]!	; 0xfffff68c
    88fc:	6164666f 	cmnvs	r4, pc, ror #12
    8900:	70660079 	rsbvc	r0, r6, r9, ror r0
    8904:	746e6972 	strbtvc	r6, [lr], #-2418	; 0xfffff68e
    8908:	74730066 	ldrbtvc	r0, [r3], #-102	; 0xffffff9a
    890c:	72686372 	rsbvc	r6, r8, #-939524095	; 0xc8000001
    8910:	72747300 	rsbsvc	r7, r4, #0, 6
    8914:	6f727265 	svcvs	0x00727265
    8918:	616d0072 	smcvs	53250	; 0xd002
    891c:	636f6c6c 	cmnvs	pc, #108, 24	; 0x6c00
    8920:	6d656d00 	stclvs	13, cr6, [r5, #-0]
    8924:	00797063 	rsbseq	r7, r9, r3, rrx
    8928:	69727766 	ldmdbvs	r2!, {r1, r2, r5, r6, r8, r9, sl, ip, sp, lr}^
    892c:	61006574 	tstvs	r0, r4, ror r5
    8930:	74726f62 	ldrbtvc	r6, [r2], #-3938	; 0xfffff09e
    8934:	54495f00 	strbpl	r5, [r9], #-3840	; 0xfffff100
    8938:	65725f4d 	ldrbvs	r5, [r2, #-3917]!	; 0xfffff0b3
    893c:	74736967 	ldrbtvc	r6, [r3], #-2407	; 0xfffff699
    8940:	4d547265 	lfmmi	f7, 2, [r4, #-404]	; 0xfffffe6c
    8944:	6e6f6c43 	cdpvs	12, 6, cr6, cr15, cr3, {2}
    8948:	62615465 	rsbvs	r5, r1, #1694498816	; 0x65000000
    894c:	5f00656c 	svcpl	0x0000656c
    8950:	5f4d5449 	svcpl	0x004d5449
    8954:	65726564 	ldrbvs	r6, [r2, #-1380]!	; 0xfffffa9c
    8958:	74736967 	ldrbtvc	r6, [r3], #-2407	; 0xfffff699
    895c:	4d547265 	lfmmi	f7, 2, [r4, #-404]	; 0xfffffe6c
    8960:	6e6f6c43 	cdpvs	12, 6, cr6, cr15, cr3, {2}
    8964:	62615465 	rsbvs	r5, r1, #1694498816	; 0x65000000
    8968:	5f00656c 	svcpl	0x0000656c
    896c:	6f6d675f 	svcvs	0x006d675f
    8970:	74735f6e 	ldrbtvc	r5, [r3], #-3950	; 0xfffff092
    8974:	5f747261 	svcpl	0x00747261
    8978:	Address 0x00008978 is out of bounds.


Disassembly of section .gnu.hash:

0000897c <.gnu.hash>:
    897c:	00000001 	andeq	r0, r0, r1
    8980:	0000004b 	andeq	r0, r0, fp, asr #32
    8984:	00000001 	andeq	r0, r0, r1
	...

Disassembly of section .hash:

00008994 <.hash>:
    8994:	00000043 	andeq	r0, r0, r3, asr #32
    8998:	0000004b 	andeq	r0, r0, fp, asr #32
    899c:	00000000 	andeq	r0, r0, r0
    89a0:	00000034 	andeq	r0, r0, r4, lsr r0
	...
    89ac:	00000046 	andeq	r0, r0, r6, asr #32
    89b0:	0000003e 	andeq	r0, r0, lr, lsr r0
    89b4:	00000027 	andeq	r0, r0, r7, lsr #32
    89b8:	0000002b 	andeq	r0, r0, fp, lsr #32
    89bc:	00000024 	andeq	r0, r0, r4, lsr #32
    89c0:	00000035 	andeq	r0, r0, r5, lsr r0
    89c4:	00000048 	andeq	r0, r0, r8, asr #32
    89c8:	0000000f 	andeq	r0, r0, pc
    89cc:	0000000e 	andeq	r0, r0, lr
    89d0:	00000026 	andeq	r0, r0, r6, lsr #32
    89d4:	0000000d 	andeq	r0, r0, sp
    89d8:	00000038 	andeq	r0, r0, r8, lsr r0
    89dc:	00000013 	andeq	r0, r0, r3, lsl r0
    89e0:	00000000 	andeq	r0, r0, r0
    89e4:	0000003d 	andeq	r0, r0, sp, lsr r0
    89e8:	00000000 	andeq	r0, r0, r0
    89ec:	0000001c 	andeq	r0, r0, ip, lsl r0
    89f0:	00000018 	andeq	r0, r0, r8, lsl r0
    89f4:	00000032 	andeq	r0, r0, r2, lsr r0
    89f8:	0000003c 	andeq	r0, r0, ip, lsr r0
    89fc:	00000049 	andeq	r0, r0, r9, asr #32
    8a00:	0000002d 	andeq	r0, r0, sp, lsr #32
    8a04:	0000000a 	andeq	r0, r0, sl
    8a08:	00000000 	andeq	r0, r0, r0
    8a0c:	0000001b 	andeq	r0, r0, fp, lsl r0
    8a10:	00000043 	andeq	r0, r0, r3, asr #32
    8a14:	00000000 	andeq	r0, r0, r0
    8a18:	0000003b 	andeq	r0, r0, fp, lsr r0
    8a1c:	0000002c 	andeq	r0, r0, ip, lsr #32
	...
    8a28:	0000004a 	andeq	r0, r0, sl, asr #32
	...
    8a3c:	00000011 	andeq	r0, r0, r1, lsl r0
    8a40:	00000037 	andeq	r0, r0, r7, lsr r0
    8a44:	00000000 	andeq	r0, r0, r0
    8a48:	00000017 	andeq	r0, r0, r7, lsl r0
    8a4c:	0000000c 	andeq	r0, r0, ip
    8a50:	00000030 	andeq	r0, r0, r0, lsr r0
	...
    8a5c:	00000047 	andeq	r0, r0, r7, asr #32
	...
    8a68:	00000007 	andeq	r0, r0, r7
    8a6c:	00000039 	andeq	r0, r0, r9, lsr r0
	...
    8a7c:	00000045 	andeq	r0, r0, r5, asr #32
	...
    8a88:	0000003a 	andeq	r0, r0, sl, lsr r0
    8a8c:	00000000 	andeq	r0, r0, r0
    8a90:	00000040 	andeq	r0, r0, r0, asr #32
    8a94:	00000044 	andeq	r0, r0, r4, asr #32
    8a98:	00000016 	andeq	r0, r0, r6, lsl r0
    8a9c:	00000036 	andeq	r0, r0, r6, lsr r0
    8aa0:	00000019 	andeq	r0, r0, r9, lsl r0
	...
    8ac4:	00000004 	andeq	r0, r0, r4
	...
    8b04:	00000010 	andeq	r0, r0, r0, lsl r0
    8b08:	00000009 	andeq	r0, r0, r9
	...
    8b14:	00000003 	andeq	r0, r0, r3
    8b18:	00000012 	andeq	r0, r0, r2, lsl r0
    8b1c:	00000000 	andeq	r0, r0, r0
    8b20:	00000005 	andeq	r0, r0, r5
	...
    8b2c:	0000001f 	andeq	r0, r0, pc, lsl r0
	...
    8b38:	0000000b 	andeq	r0, r0, fp
    8b3c:	00000020 	andeq	r0, r0, r0, lsr #32
    8b40:	00000025 	andeq	r0, r0, r5, lsr #32
    8b44:	00000000 	andeq	r0, r0, r0
    8b48:	00000002 	andeq	r0, r0, r2
	...
    8b54:	00000014 	andeq	r0, r0, r4, lsl r0
    8b58:	00000000 	andeq	r0, r0, r0
    8b5c:	0000002a 	andeq	r0, r0, sl, lsr #32
    8b60:	00000028 	andeq	r0, r0, r8, lsr #32
    8b64:	00000023 	andeq	r0, r0, r3, lsr #32
    8b68:	00000008 	andeq	r0, r0, r8
	...
    8b78:	0000001d 	andeq	r0, r0, sp, lsl r0
    8b7c:	00000000 	andeq	r0, r0, r0
    8b80:	00000022 	andeq	r0, r0, r2, lsr #32
    8b84:	00000000 	andeq	r0, r0, r0
    8b88:	00000033 	andeq	r0, r0, r3, lsr r0
    8b8c:	00000031 	andeq	r0, r0, r1, lsr r0
    8b90:	0000002f 	andeq	r0, r0, pc, lsr #32
    8b94:	00000029 	andeq	r0, r0, r9, lsr #32
    8b98:	0000001e 	andeq	r0, r0, lr, lsl r0
    8b9c:	00000001 	andeq	r0, r0, r1
    8ba0:	00000015 	andeq	r0, r0, r5, lsl r0
    8ba4:	0000002e 	andeq	r0, r0, lr, lsr #32
    8ba8:	00000021 	andeq	r0, r0, r1, lsr #32
    8bac:	0000003f 	andeq	r0, r0, pc, lsr r0
	...
    8bbc:	00000041 	andeq	r0, r0, r1, asr #32
    8bc0:	00000042 	andeq	r0, r0, r2, asr #32
	...
    8bcc:	0000001a 	andeq	r0, r0, sl, lsl r0
    8bd0:	00000006 	andeq	r0, r0, r6

Disassembly of section .gnu.version:

00008bd4 <.gnu.version>:
    8bd4:	00020000 	andeq	r0, r2, r0
    8bd8:	00030003 	andeq	r0, r3, r3
    8bdc:	00040002 	andeq	r0, r4, r2
    8be0:	00030003 	andeq	r0, r3, r3
    8be4:	00030003 	andeq	r0, r3, r3
    8be8:	00030003 	andeq	r0, r3, r3
    8bec:	00030004 	andeq	r0, r3, r4
    8bf0:	00030003 	andeq	r0, r3, r3
    8bf4:	00030003 	andeq	r0, r3, r3
    8bf8:	00030003 	andeq	r0, r3, r3
    8bfc:	00030003 	andeq	r0, r3, r3
    8c00:	00040003 	andeq	r0, r4, r3
    8c04:	00030003 	andeq	r0, r3, r3
    8c08:	00030003 	andeq	r0, r3, r3
    8c0c:	00030003 	andeq	r0, r3, r3
    8c10:	00040003 	andeq	r0, r4, r3
    8c14:	00030004 	andeq	r0, r3, r4
    8c18:	00030003 	andeq	r0, r3, r3
    8c1c:	00030003 	andeq	r0, r3, r3
    8c20:	00030004 	andeq	r0, r3, r4
    8c24:	00030003 	andeq	r0, r3, r3
    8c28:	00030004 	andeq	r0, r3, r4
    8c2c:	00030004 	andeq	r0, r3, r4
    8c30:	00040003 	andeq	r0, r4, r3
    8c34:	00030003 	andeq	r0, r3, r3
    8c38:	00030003 	andeq	r0, r3, r3
    8c3c:	00040004 	andeq	r0, r4, r4
    8c40:	00040005 	andeq	r0, r4, r5
    8c44:	00050003 	andeq	r0, r5, r3
    8c48:	00060005 	andeq	r0, r6, r5
    8c4c:	00030005 	andeq	r0, r3, r5
    8c50:	00030003 	andeq	r0, r3, r3
    8c54:	00030003 	andeq	r0, r3, r3
    8c58:	00030003 	andeq	r0, r3, r3
    8c5c:	00030003 	andeq	r0, r3, r3
    8c60:	00030003 	andeq	r0, r3, r3
    8c64:	00000000 	andeq	r0, r0, r0
	...

Disassembly of section .gnu.version_r:

00008c6c <.gnu.version_r>:
    8c6c:	00020001 	andeq	r0, r2, r1
    8c70:	0000001b 	andeq	r0, r0, fp, lsl r0
    8c74:	00000010 	andeq	r0, r0, r0, lsl r0
    8c78:	00000030 	andeq	r0, r0, r0, lsr r0
    8c7c:	0d696917 			; <UNDEFINED> instruction: 0x0d696917
    8c80:	00020000 	andeq	r0, r2, r0
    8c84:	00000011 	andeq	r0, r0, r1, lsl r0
    8c88:	00000010 	andeq	r0, r0, r0, lsl r0
    8c8c:	0d696914 			; <UNDEFINED> instruction: 0x0d696914
    8c90:	00030000 	andeq	r0, r3, r0
    8c94:	0000002f 	andeq	r0, r0, pc, lsr #32
    8c98:	00000000 	andeq	r0, r0, r0
    8c9c:	00010001 	andeq	r0, r1, r1
    8ca0:	0000006e 	andeq	r0, r0, lr, rrx
    8ca4:	00000010 	andeq	r0, r0, r0, lsl r0
    8ca8:	00000020 	andeq	r0, r0, r0, lsr #32
    8cac:	0d696914 			; <UNDEFINED> instruction: 0x0d696914
    8cb0:	00040000 	andeq	r0, r4, r0
    8cb4:	0000002f 	andeq	r0, r0, pc, lsr #32
    8cb8:	00000000 	andeq	r0, r0, r0
    8cbc:	00020001 	andeq	r0, r2, r1
    8cc0:	0000020b 	andeq	r0, r0, fp, lsl #4
    8cc4:	00000010 	andeq	r0, r0, r0, lsl r0
    8cc8:	00000000 	andeq	r0, r0, r0
    8ccc:	0d696919 			; <UNDEFINED> instruction: 0x0d696919
    8cd0:	00050000 	andeq	r0, r5, r0
    8cd4:	00000201 	andeq	r0, r0, r1, lsl #4
    8cd8:	00000010 	andeq	r0, r0, r0, lsl r0
    8cdc:	0d696914 			; <UNDEFINED> instruction: 0x0d696914
    8ce0:	00060000 	andeq	r0, r6, r0
    8ce4:	0000002f 	andeq	r0, r0, pc, lsr #32
    8ce8:	00000000 	andeq	r0, r0, r0

Disassembly of section .rel.dyn:

00008cec <.rel.dyn>:
    8cec:	0000f014 	andeq	pc, r0, r4, lsl r0	; <UNPREDICTABLE>
    8cf0:	00004a15 	andeq	r4, r0, r5, lsl sl

Disassembly of section .rel.plt:

00008cf4 <.rel.plt>:
    8cf4:	0000f024 	andeq	pc, r0, r4, lsr #32
    8cf8:	00000316 	andeq	r0, r0, r6, lsl r3
    8cfc:	0000f028 	andeq	pc, r0, r8, lsr #32
    8d00:	00004716 	andeq	r4, r0, r6, lsl r7
    8d04:	0000f02c 	andeq	pc, r0, ip, lsr #32
    8d08:	00004a16 	andeq	r4, r0, r6, lsl sl
    8d0c:	0000f030 	andeq	pc, r0, r0, lsr r0	; <UNPREDICTABLE>
    8d10:	00003d16 	andeq	r3, r0, r6, lsl sp
    8d14:	0000f034 	andeq	pc, r0, r4, lsr r0	; <UNPREDICTABLE>
    8d18:	00003416 	andeq	r3, r0, r6, lsl r4
    8d1c:	0000f038 	andeq	pc, r0, r8, lsr r0	; <UNPREDICTABLE>
    8d20:	00003516 	andeq	r3, r0, r6, lsl r5
    8d24:	0000f03c 	andeq	pc, r0, ip, lsr r0	; <UNPREDICTABLE>
    8d28:	00002e16 	andeq	r2, r0, r6, lsl lr
    8d2c:	0000f040 	andeq	pc, r0, r0, asr #32
    8d30:	00003316 	andeq	r3, r0, r6, lsl r3
    8d34:	0000f044 	andeq	pc, r0, r4, asr #32
    8d38:	00002d16 	andeq	r2, r0, r6, lsl sp
    8d3c:	0000f048 	andeq	pc, r0, r8, asr #32
    8d40:	00003f16 	andeq	r3, r0, r6, lsl pc
    8d44:	0000f04c 	andeq	pc, r0, ip, asr #32
    8d48:	00003816 	andeq	r3, r0, r6, lsl r8
    8d4c:	0000f050 	andeq	pc, r0, r0, asr r0	; <UNPREDICTABLE>
    8d50:	00003e16 	andeq	r3, r0, r6, lsl lr
    8d54:	0000f054 	andeq	pc, r0, r4, asr r0	; <UNPREDICTABLE>
    8d58:	00004316 	andeq	r4, r0, r6, lsl r3
    8d5c:	0000f058 	andeq	pc, r0, r8, asr r0	; <UNPREDICTABLE>
    8d60:	00002b16 	andeq	r2, r0, r6, lsl fp
    8d64:	0000f05c 	andeq	pc, r0, ip, asr r0	; <UNPREDICTABLE>
    8d68:	00001f16 	andeq	r1, r0, r6, lsl pc
    8d6c:	0000f060 	andeq	pc, r0, r0, rrx
    8d70:	00002016 	andeq	r2, r0, r6, lsl r0
    8d74:	0000f064 	andeq	pc, r0, r4, rrx
    8d78:	00004016 	andeq	r4, r0, r6, lsl r0
    8d7c:	0000f068 	andeq	pc, r0, r8, rrx
    8d80:	00003716 	andeq	r3, r0, r6, lsl r7
    8d84:	0000f06c 	andeq	pc, r0, ip, rrx
    8d88:	00002c16 	andeq	r2, r0, r6, lsl ip
    8d8c:	0000f070 	andeq	pc, r0, r0, ror r0	; <UNPREDICTABLE>
    8d90:	00002a16 	andeq	r2, r0, r6, lsl sl
    8d94:	0000f074 	andeq	pc, r0, r4, ror r0	; <UNPREDICTABLE>
    8d98:	00003116 	andeq	r3, r0, r6, lsl r1
    8d9c:	0000f078 	andeq	pc, r0, r8, ror r0	; <UNPREDICTABLE>
    8da0:	00003016 	andeq	r3, r0, r6, lsl r0
    8da4:	0000f07c 	andeq	pc, r0, ip, ror r0	; <UNPREDICTABLE>
    8da8:	00002f16 	andeq	r2, r0, r6, lsl pc
    8dac:	0000f080 	andeq	pc, r0, r0, lsl #1
    8db0:	00003216 	andeq	r3, r0, r6, lsl r2
    8db4:	0000f084 	andeq	pc, r0, r4, lsl #1
    8db8:	00001816 	andeq	r1, r0, r6, lsl r8
    8dbc:	0000f088 	andeq	pc, r0, r8, lsl #1
    8dc0:	00001a16 	andeq	r1, r0, r6, lsl sl
    8dc4:	0000f08c 	andeq	pc, r0, ip, lsl #1
    8dc8:	00001c16 	andeq	r1, r0, r6, lsl ip
    8dcc:	0000f090 	muleq	r0, r0, r0
    8dd0:	00001516 	andeq	r1, r0, r6, lsl r5
    8dd4:	0000f094 	muleq	r0, r4, r0
    8dd8:	00004116 	andeq	r4, r0, r6, lsl r1
    8ddc:	0000f098 	muleq	r0, r8, r0
    8de0:	00001616 	andeq	r1, r0, r6, lsl r6
    8de4:	0000f09c 	muleq	r0, ip, r0
    8de8:	00002816 	andeq	r2, r0, r6, lsl r8
    8dec:	0000f0a0 	andeq	pc, r0, r0, lsr #1
    8df0:	00001116 	andeq	r1, r0, r6, lsl r1
    8df4:	0000f0a4 	andeq	pc, r0, r4, lsr #1
    8df8:	00002716 	andeq	r2, r0, r6, lsl r7
    8dfc:	0000f0a8 	andeq	pc, r0, r8, lsr #1
    8e00:	00002516 	andeq	r2, r0, r6, lsl r5
    8e04:	0000f0ac 	andeq	pc, r0, ip, lsr #1
    8e08:	00001216 	andeq	r1, r0, r6, lsl r2
    8e0c:	0000f0b0 	strheq	pc, [r0], -r0	; <UNPREDICTABLE>
    8e10:	00002416 	andeq	r2, r0, r6, lsl r4
    8e14:	0000f0b4 	strheq	pc, [r0], -r4	; <UNPREDICTABLE>
    8e18:	00004416 	andeq	r4, r0, r6, lsl r4
    8e1c:	0000f0b8 	strheq	pc, [r0], -r8	; <UNPREDICTABLE>
    8e20:	00001416 	andeq	r1, r0, r6, lsl r4
    8e24:	0000f0bc 	strheq	pc, [r0], -ip	; <UNPREDICTABLE>
    8e28:	00002216 	andeq	r2, r0, r6, lsl r2
    8e2c:	0000f0c0 	andeq	pc, r0, r0, asr #1
    8e30:	00002116 	andeq	r2, r0, r6, lsl r1
    8e34:	0000f0c4 	andeq	pc, r0, r4, asr #1
    8e38:	00004616 	andeq	r4, r0, r6, lsl r6
    8e3c:	0000f0c8 	andeq	pc, r0, r8, asr #1
    8e40:	00001e16 	andeq	r1, r0, r6, lsl lr
    8e44:	0000f0cc 	andeq	pc, r0, ip, asr #1
    8e48:	00001d16 	andeq	r1, r0, r6, lsl sp
    8e4c:	0000f0d0 	ldrdeq	pc, [r0], -r0
    8e50:	00001b16 	andeq	r1, r0, r6, lsl fp
    8e54:	0000f0d4 	ldrdeq	pc, [r0], -r4
    8e58:	00001916 	andeq	r1, r0, r6, lsl r9
    8e5c:	0000f0d8 	ldrdeq	pc, [r0], -r8
    8e60:	00002916 	andeq	r2, r0, r6, lsl r9
    8e64:	0000f0dc 	ldrdeq	pc, [r0], -ip
    8e68:	00002616 	andeq	r2, r0, r6, lsl r6
    8e6c:	0000f0e0 	andeq	pc, r0, r0, ror #1
    8e70:	00001316 	andeq	r1, r0, r6, lsl r3
    8e74:	0000f0e4 	andeq	pc, r0, r4, ror #1
    8e78:	00000716 	andeq	r0, r0, r6, lsl r7
    8e7c:	0000f0e8 	andeq	pc, r0, r8, ror #1
    8e80:	00000816 	andeq	r0, r0, r6, lsl r8
    8e84:	0000f0ec 	andeq	pc, r0, ip, ror #1
    8e88:	00000916 	andeq	r0, r0, r6, lsl r9
    8e8c:	0000f0f0 	strdeq	pc, [r0], -r0
    8e90:	00000616 	andeq	r0, r0, r6, lsl r6
    8e94:	0000f0f4 	strdeq	pc, [r0], -r4
    8e98:	00003b16 	andeq	r3, r0, r6, lsl fp
    8e9c:	0000f0f8 	strdeq	pc, [r0], -r8
    8ea0:	00003c16 	andeq	r3, r0, r6, lsl ip
    8ea4:	0000f0fc 	strdeq	pc, [r0], -ip
    8ea8:	00003a16 	andeq	r3, r0, r6, lsl sl
    8eac:	0000f100 	andeq	pc, r0, r0, lsl #2
    8eb0:	00003916 	andeq	r3, r0, r6, lsl r9
    8eb4:	0000f104 	andeq	pc, r0, r4, lsl #2
    8eb8:	00003616 	andeq	r3, r0, r6, lsl r6
    8ebc:	0000f108 	andeq	pc, r0, r8, lsl #2
    8ec0:	00000216 	andeq	r0, r0, r6, lsl r2
    8ec4:	0000f10c 	andeq	pc, r0, ip, lsl #2
    8ec8:	00000516 	andeq	r0, r0, r6, lsl r5
    8ecc:	0000f110 	andeq	pc, r0, r0, lsl r1	; <UNPREDICTABLE>
    8ed0:	00001016 	andeq	r1, r0, r6, lsl r0
    8ed4:	0000f114 	andeq	pc, r0, r4, lsl r1	; <UNPREDICTABLE>
    8ed8:	00000116 	andeq	r0, r0, r6, lsl r1
    8edc:	0000f118 	andeq	pc, r0, r8, lsl r1	; <UNPREDICTABLE>
    8ee0:	00000f16 	andeq	r0, r0, r6, lsl pc
    8ee4:	0000f11c 	andeq	pc, r0, ip, lsl r1	; <UNPREDICTABLE>
    8ee8:	00004216 	andeq	r4, r0, r6, lsl r2
    8eec:	0000f120 	andeq	pc, r0, r0, lsr #2
    8ef0:	00000416 	andeq	r0, r0, r6, lsl r4
    8ef4:	0000f124 	andeq	pc, r0, r4, lsr #2
    8ef8:	00004516 	andeq	r4, r0, r6, lsl r5
    8efc:	0000f128 	andeq	pc, r0, r8, lsr #2
    8f00:	00000e16 	andeq	r0, r0, r6, lsl lr
    8f04:	0000f12c 	andeq	pc, r0, ip, lsr #2
    8f08:	00000d16 	andeq	r0, r0, r6, lsl sp
    8f0c:	0000f130 	andeq	pc, r0, r0, lsr r1	; <UNPREDICTABLE>
    8f10:	00000c16 	andeq	r0, r0, r6, lsl ip
    8f14:	0000f134 	andeq	pc, r0, r4, lsr r1	; <UNPREDICTABLE>
    8f18:	00000b16 	andeq	r0, r0, r6, lsl fp
    8f1c:	0000f138 	andeq	pc, r0, r8, lsr r1	; <UNPREDICTABLE>
    8f20:	00000a16 	andeq	r0, r0, r6, lsl sl

Disassembly of section .init:

00008f24 <_init>:
    8f24:	e92d4008 	push	{r3, lr}
    8f28:	eb0000e7 	bl	92cc <call_weak_fn>
    8f2c:	e8bd8008 	pop	{r3, pc}

Disassembly of section .plt:

00008f30 <__libc_start_main@plt-0x14>:
    8f30:	e52de004 	push	{lr}		; (str lr, [sp, #-4]!)
    8f34:	e59fe004 	ldr	lr, [pc, #4]	; 8f40 <_init+0x1c>
    8f38:	e08fe00e 	add	lr, pc, lr
    8f3c:	e5bef008 	ldr	pc, [lr, #8]!
    8f40:	000060d8 	ldrdeq	r6, [r0], -r8

00008f44 <__libc_start_main@plt>:
    8f44:	e28fc600 	add	ip, pc, #0, 12
    8f48:	e28cca06 	add	ip, ip, #24576	; 0x6000
    8f4c:	e5bcf0d8 	ldr	pc, [ip, #216]!	; 0xd8

00008f50 <abort@plt>:
    8f50:	e28fc600 	add	ip, pc, #0, 12
    8f54:	e28cca06 	add	ip, ip, #24576	; 0x6000
    8f58:	e5bcf0d0 	ldr	pc, [ip, #208]!	; 0xd0

00008f5c <__gmon_start__@plt>:
    8f5c:	e28fc600 	add	ip, pc, #0, 12
    8f60:	e28cca06 	add	ip, ip, #24576	; 0x6000
    8f64:	e5bcf0c8 	ldr	pc, [ip, #200]!	; 0xc8

00008f68 <memset@plt>:
    8f68:	e28fc600 	add	ip, pc, #0, 12
    8f6c:	e28cca06 	add	ip, ip, #24576	; 0x6000
    8f70:	e5bcf0c0 	ldr	pc, [ip, #192]!	; 0xc0

00008f74 <sigaction@plt>:
    8f74:	e28fc600 	add	ip, pc, #0, 12
    8f78:	e28cca06 	add	ip, ip, #24576	; 0x6000
    8f7c:	e5bcf0b8 	ldr	pc, [ip, #184]!	; 0xb8

00008f80 <__errno_location@plt>:
    8f80:	e28fc600 	add	ip, pc, #0, 12
    8f84:	e28cca06 	add	ip, ip, #24576	; 0x6000
    8f88:	e5bcf0b0 	ldr	pc, [ip, #176]!	; 0xb0

00008f8c <syslog@plt>:
    8f8c:	e28fc600 	add	ip, pc, #0, 12
    8f90:	e28cca06 	add	ip, ip, #24576	; 0x6000
    8f94:	e5bcf0a8 	ldr	pc, [ip, #168]!	; 0xa8

00008f98 <setenv@plt>:
    8f98:	e28fc600 	add	ip, pc, #0, 12
    8f9c:	e28cca06 	add	ip, ip, #24576	; 0x6000
    8fa0:	e5bcf0a0 	ldr	pc, [ip, #160]!	; 0xa0

00008fa4 <sleep@plt>:
    8fa4:	e28fc600 	add	ip, pc, #0, 12
    8fa8:	e28cca06 	add	ip, ip, #24576	; 0x6000
    8fac:	e5bcf098 	ldr	pc, [ip, #152]!	; 0x98

00008fb0 <snprintf@plt>:
    8fb0:	e28fc600 	add	ip, pc, #0, 12
    8fb4:	e28cca06 	add	ip, ip, #24576	; 0x6000
    8fb8:	e5bcf090 	ldr	pc, [ip, #144]!	; 0x90

00008fbc <strcmp@plt>:
    8fbc:	e28fc600 	add	ip, pc, #0, 12
    8fc0:	e28cca06 	add	ip, ip, #24576	; 0x6000
    8fc4:	e5bcf088 	ldr	pc, [ip, #136]!	; 0x88

00008fc8 <strcpy@plt>:
    8fc8:	e28fc600 	add	ip, pc, #0, 12
    8fcc:	e28cca06 	add	ip, ip, #24576	; 0x6000
    8fd0:	e5bcf080 	ldr	pc, [ip, #128]!	; 0x80

00008fd4 <strerror@plt>:
    8fd4:	e28fc600 	add	ip, pc, #0, 12
    8fd8:	e28cca06 	add	ip, ip, #24576	; 0x6000
    8fdc:	e5bcf078 	ldr	pc, [ip, #120]!	; 0x78

00008fe0 <printf@plt>:
    8fe0:	e28fc600 	add	ip, pc, #0, 12
    8fe4:	e28cca06 	add	ip, ip, #24576	; 0x6000
    8fe8:	e5bcf070 	ldr	pc, [ip, #112]!	; 0x70

00008fec <pthread_create@plt>:
    8fec:	e28fc600 	add	ip, pc, #0, 12
    8ff0:	e28cca06 	add	ip, ip, #24576	; 0x6000
    8ff4:	e5bcf068 	ldr	pc, [ip, #104]!	; 0x68

00008ff8 <pthread_join@plt>:
    8ff8:	e28fc600 	add	ip, pc, #0, 12
    8ffc:	e28cca06 	add	ip, ip, #24576	; 0x6000
    9000:	e5bcf060 	ldr	pc, [ip, #96]!	; 0x60

00009004 <gettimeofday@plt>:
    9004:	e28fc600 	add	ip, pc, #0, 12
    9008:	e28cca06 	add	ip, ip, #24576	; 0x6000
    900c:	e5bcf058 	ldr	pc, [ip, #88]!	; 0x58

00009010 <open@plt>:
    9010:	e28fc600 	add	ip, pc, #0, 12
    9014:	e28cca06 	add	ip, ip, #24576	; 0x6000
    9018:	e5bcf050 	ldr	pc, [ip, #80]!	; 0x50

0000901c <write@plt>:
    901c:	e28fc600 	add	ip, pc, #0, 12
    9020:	e28cca06 	add	ip, ip, #24576	; 0x6000
    9024:	e5bcf048 	ldr	pc, [ip, #72]!	; 0x48

00009028 <close@plt>:
    9028:	e28fc600 	add	ip, pc, #0, 12
    902c:	e28cca06 	add	ip, ip, #24576	; 0x6000
    9030:	e5bcf040 	ldr	pc, [ip, #64]!	; 0x40

00009034 <usleep@plt>:
    9034:	e28fc600 	add	ip, pc, #0, 12
    9038:	e28cca06 	add	ip, ip, #24576	; 0x6000
    903c:	e5bcf038 	ldr	pc, [ip, #56]!	; 0x38

00009040 <strlen@plt>:
    9040:	e28fc600 	add	ip, pc, #0, 12
    9044:	e28cca06 	add	ip, ip, #24576	; 0x6000
    9048:	e5bcf030 	ldr	pc, [ip, #48]!	; 0x30

0000904c <read@plt>:
    904c:	e28fc600 	add	ip, pc, #0, 12
    9050:	e28cca06 	add	ip, ip, #24576	; 0x6000
    9054:	e5bcf028 	ldr	pc, [ip, #40]!	; 0x28

00009058 <atoi@plt>:
    9058:	e28fc600 	add	ip, pc, #0, 12
    905c:	e28cca06 	add	ip, ip, #24576	; 0x6000
    9060:	e5bcf020 	ldr	pc, [ip, #32]!

00009064 <time@plt>:
    9064:	e28fc600 	add	ip, pc, #0, 12
    9068:	e28cca06 	add	ip, ip, #24576	; 0x6000
    906c:	e5bcf018 	ldr	pc, [ip, #24]!

00009070 <localtime@plt>:
    9070:	e28fc600 	add	ip, pc, #0, 12
    9074:	e28cca06 	add	ip, ip, #24576	; 0x6000
    9078:	e5bcf010 	ldr	pc, [ip, #16]!

0000907c <strftime@plt>:
    907c:	e28fc600 	add	ip, pc, #0, 12
    9080:	e28cca06 	add	ip, ip, #24576	; 0x6000
    9084:	e5bcf008 	ldr	pc, [ip, #8]!

00009088 <vprintf@plt>:
    9088:	e28fc600 	add	ip, pc, #0, 12
    908c:	e28cca06 	add	ip, ip, #24576	; 0x6000
    9090:	e5bcf000 	ldr	pc, [ip, #0]!

00009094 <fprintf@plt>:
    9094:	e28fc600 	add	ip, pc, #0, 12
    9098:	e28cca05 	add	ip, ip, #20480	; 0x5000
    909c:	e5bcfff8 	ldr	pc, [ip, #4088]!	; 0xff8

000090a0 <vfprintf@plt>:
    90a0:	e28fc600 	add	ip, pc, #0, 12
    90a4:	e28cca05 	add	ip, ip, #20480	; 0x5000
    90a8:	e5bcfff0 	ldr	pc, [ip, #4080]!	; 0xff0

000090ac <fopen@plt>:
    90ac:	e28fc600 	add	ip, pc, #0, 12
    90b0:	e28cca05 	add	ip, ip, #20480	; 0x5000
    90b4:	e5bcffe8 	ldr	pc, [ip, #4072]!	; 0xfe8

000090b8 <fileno@plt>:
    90b8:	e28fc600 	add	ip, pc, #0, 12
    90bc:	e28cca05 	add	ip, ip, #20480	; 0x5000
    90c0:	e5bcffe0 	ldr	pc, [ip, #4064]!	; 0xfe0

000090c4 <flock@plt>:
    90c4:	e28fc600 	add	ip, pc, #0, 12
    90c8:	e28cca05 	add	ip, ip, #20480	; 0x5000
    90cc:	e5bcffd8 	ldr	pc, [ip, #4056]!	; 0xfd8

000090d0 <setbuf@plt>:
    90d0:	e28fc600 	add	ip, pc, #0, 12
    90d4:	e28cca05 	add	ip, ip, #20480	; 0x5000
    90d8:	e5bcffd0 	ldr	pc, [ip, #4048]!	; 0xfd0

000090dc <fseek@plt>:
    90dc:	e28fc600 	add	ip, pc, #0, 12
    90e0:	e28cca05 	add	ip, ip, #20480	; 0x5000
    90e4:	e5bcffc8 	ldr	pc, [ip, #4040]!	; 0xfc8

000090e8 <ftell@plt>:
    90e8:	e28fc600 	add	ip, pc, #0, 12
    90ec:	e28cca05 	add	ip, ip, #20480	; 0x5000
    90f0:	e5bcffc0 	ldr	pc, [ip, #4032]!	; 0xfc0

000090f4 <malloc@plt>:
    90f4:	e28fc600 	add	ip, pc, #0, 12
    90f8:	e28cca05 	add	ip, ip, #20480	; 0x5000
    90fc:	e5bcffb8 	ldr	pc, [ip, #4024]!	; 0xfb8

00009100 <fread@plt>:
    9100:	e28fc600 	add	ip, pc, #0, 12
    9104:	e28cca05 	add	ip, ip, #20480	; 0x5000
    9108:	e5bcffb0 	ldr	pc, [ip, #4016]!	; 0xfb0

0000910c <fclose@plt>:
    910c:	e28fc600 	add	ip, pc, #0, 12
    9110:	e28cca05 	add	ip, ip, #20480	; 0x5000
    9114:	e5bcffa8 	ldr	pc, [ip, #4008]!	; 0xfa8

00009118 <free@plt>:
    9118:	e28fc600 	add	ip, pc, #0, 12
    911c:	e28cca05 	add	ip, ip, #20480	; 0x5000
    9120:	e5bcffa0 	ldr	pc, [ip, #4000]!	; 0xfa0

00009124 <fwrite@plt>:
    9124:	e28fc600 	add	ip, pc, #0, 12
    9128:	e28cca05 	add	ip, ip, #20480	; 0x5000
    912c:	e5bcff98 	ldr	pc, [ip, #3992]!	; 0xf98

00009130 <readlink@plt>:
    9130:	e28fc600 	add	ip, pc, #0, 12
    9134:	e28cca05 	add	ip, ip, #20480	; 0x5000
    9138:	e5bcff90 	ldr	pc, [ip, #3984]!	; 0xf90

0000913c <dirname@plt>:
    913c:	e28fc600 	add	ip, pc, #0, 12
    9140:	e28cca05 	add	ip, ip, #20480	; 0x5000
    9144:	e5bcff88 	ldr	pc, [ip, #3976]!	; 0xf88

00009148 <strcat@plt>:
    9148:	e28fc600 	add	ip, pc, #0, 12
    914c:	e28cca05 	add	ip, ip, #20480	; 0x5000
    9150:	e5bcff80 	ldr	pc, [ip, #3968]!	; 0xf80

00009154 <kill@plt>:
    9154:	e28fc600 	add	ip, pc, #0, 12
    9158:	e28cca05 	add	ip, ip, #20480	; 0x5000
    915c:	e5bcff78 	ldr	pc, [ip, #3960]!	; 0xf78

00009160 <alarm@plt>:
    9160:	e28fc600 	add	ip, pc, #0, 12
    9164:	e28cca05 	add	ip, ip, #20480	; 0x5000
    9168:	e5bcff70 	ldr	pc, [ip, #3952]!	; 0xf70

0000916c <waitpid@plt>:
    916c:	e28fc600 	add	ip, pc, #0, 12
    9170:	e28cca05 	add	ip, ip, #20480	; 0x5000
    9174:	e5bcff68 	ldr	pc, [ip, #3944]!	; 0xf68

00009178 <setitimer@plt>:
    9178:	e28fc600 	add	ip, pc, #0, 12
    917c:	e28cca05 	add	ip, ip, #20480	; 0x5000
    9180:	e5bcff60 	ldr	pc, [ip, #3936]!	; 0xf60

00009184 <getaddrinfo@plt>:
    9184:	e28fc600 	add	ip, pc, #0, 12
    9188:	e28cca05 	add	ip, ip, #20480	; 0x5000
    918c:	e5bcff58 	ldr	pc, [ip, #3928]!	; 0xf58

00009190 <freeaddrinfo@plt>:
    9190:	e28fc600 	add	ip, pc, #0, 12
    9194:	e28cca05 	add	ip, ip, #20480	; 0x5000
    9198:	e5bcff50 	ldr	pc, [ip, #3920]!	; 0xf50

0000919c <gai_strerror@plt>:
    919c:	e28fc600 	add	ip, pc, #0, 12
    91a0:	e28cca05 	add	ip, ip, #20480	; 0x5000
    91a4:	e5bcff48 	ldr	pc, [ip, #3912]!	; 0xf48

000091a8 <__res_ninit@plt>:
    91a8:	e28fc600 	add	ip, pc, #0, 12
    91ac:	e28cca05 	add	ip, ip, #20480	; 0x5000
    91b0:	e5bcff40 	ldr	pc, [ip, #3904]!	; 0xf40

000091b4 <__res_nquery@plt>:
    91b4:	e28fc600 	add	ip, pc, #0, 12
    91b8:	e28cca05 	add	ip, ip, #20480	; 0x5000
    91bc:	e5bcff38 	ldr	pc, [ip, #3896]!	; 0xf38

000091c0 <ns_initparse@plt>:
    91c0:	e28fc600 	add	ip, pc, #0, 12
    91c4:	e28cca05 	add	ip, ip, #20480	; 0x5000
    91c8:	e5bcff30 	ldr	pc, [ip, #3888]!	; 0xf30

000091cc <ns_msg_getflag@plt>:
    91cc:	e28fc600 	add	ip, pc, #0, 12
    91d0:	e28cca05 	add	ip, ip, #20480	; 0x5000
    91d4:	e5bcff28 	ldr	pc, [ip, #3880]!	; 0xf28

000091d8 <ns_parserr@plt>:
    91d8:	e28fc600 	add	ip, pc, #0, 12
    91dc:	e28cca05 	add	ip, ip, #20480	; 0x5000
    91e0:	e5bcff20 	ldr	pc, [ip, #3872]!	; 0xf20

000091e4 <ns_sprintrr@plt>:
    91e4:	e28fc600 	add	ip, pc, #0, 12
    91e8:	e28cca05 	add	ip, ip, #20480	; 0x5000
    91ec:	e5bcff18 	ldr	pc, [ip, #3864]!	; 0xf18

000091f0 <inet_ntoa@plt>:
    91f0:	e28fc600 	add	ip, pc, #0, 12
    91f4:	e28cca05 	add	ip, ip, #20480	; 0x5000
    91f8:	e5bcff10 	ldr	pc, [ip, #3856]!	; 0xf10

000091fc <__h_errno_location@plt>:
    91fc:	e28fc600 	add	ip, pc, #0, 12
    9200:	e28cca05 	add	ip, ip, #20480	; 0x5000
    9204:	e5bcff08 	ldr	pc, [ip, #3848]!	; 0xf08

00009208 <feof@plt>:
    9208:	e28fc600 	add	ip, pc, #0, 12
    920c:	e28cca05 	add	ip, ip, #20480	; 0x5000
    9210:	e5bcff00 	ldr	pc, [ip, #3840]!	; 0xf00

00009214 <__isoc99_fscanf@plt>:
    9214:	e28fc600 	add	ip, pc, #0, 12
    9218:	e28cca05 	add	ip, ip, #20480	; 0x5000
    921c:	e5bcfef8 	ldr	pc, [ip, #3832]!	; 0xef8

00009220 <strncmp@plt>:
    9220:	e28fc600 	add	ip, pc, #0, 12
    9224:	e28cca05 	add	ip, ip, #20480	; 0x5000
    9228:	e5bcfef0 	ldr	pc, [ip, #3824]!	; 0xef0

0000922c <strchr@plt>:
    922c:	e28fc600 	add	ip, pc, #0, 12
    9230:	e28cca05 	add	ip, ip, #20480	; 0x5000
    9234:	e5bcfee8 	ldr	pc, [ip, #3816]!	; 0xee8

00009238 <__isoc99_sscanf@plt>:
    9238:	e28fc600 	add	ip, pc, #0, 12
    923c:	e28cca05 	add	ip, ip, #20480	; 0x5000
    9240:	e5bcfee0 	ldr	pc, [ip, #3808]!	; 0xee0

00009244 <memcpy@plt>:
    9244:	e28fc600 	add	ip, pc, #0, 12
    9248:	e28cca05 	add	ip, ip, #20480	; 0x5000
    924c:	e5bcfed8 	ldr	pc, [ip, #3800]!	; 0xed8

00009250 <socket@plt>:
    9250:	e28fc600 	add	ip, pc, #0, 12
    9254:	e28cca05 	add	ip, ip, #20480	; 0x5000
    9258:	e5bcfed0 	ldr	pc, [ip, #3792]!	; 0xed0

0000925c <htons@plt>:
    925c:	e28fc600 	add	ip, pc, #0, 12
    9260:	e28cca05 	add	ip, ip, #20480	; 0x5000
    9264:	e5bcfec8 	ldr	pc, [ip, #3784]!	; 0xec8

00009268 <connect@plt>:
    9268:	e28fc600 	add	ip, pc, #0, 12
    926c:	e28cca05 	add	ip, ip, #20480	; 0x5000
    9270:	e5bcfec0 	ldr	pc, [ip, #3776]!	; 0xec0

00009274 <fdopen@plt>:
    9274:	e28fc600 	add	ip, pc, #0, 12
    9278:	e28cca05 	add	ip, ip, #20480	; 0x5000
    927c:	e5bcfeb8 	ldr	pc, [ip, #3768]!	; 0xeb8

00009280 <fgets@plt>:
    9280:	e28fc600 	add	ip, pc, #0, 12
    9284:	e28cca05 	add	ip, ip, #20480	; 0x5000
    9288:	e5bcfeb0 	ldr	pc, [ip, #3760]!	; 0xeb0

Disassembly of section .text:

00009290 <_start>:
    9290:	e3a0b000 	mov	fp, #0
    9294:	e3a0e000 	mov	lr, #0
    9298:	e49d1004 	pop	{r1}		; (ldr r1, [sp], #4)
    929c:	e1a0200d 	mov	r2, sp
    92a0:	e52d2004 	push	{r2}		; (str r2, [sp, #-4]!)
    92a4:	e52d0004 	push	{r0}		; (str r0, [sp, #-4]!)
    92a8:	e59fc010 	ldr	ip, [pc, #16]	; 92c0 <_start+0x30>
    92ac:	e52dc004 	push	{ip}		; (str ip, [sp, #-4]!)
    92b0:	e59f000c 	ldr	r0, [pc, #12]	; 92c4 <_start+0x34>
    92b4:	e59f300c 	ldr	r3, [pc, #12]	; 92c8 <_start+0x38>
    92b8:	ebffff21 	bl	8f44 <__libc_start_main@plt>
    92bc:	ebffff23 	bl	8f50 <abort@plt>
    92c0:	0000c688 	andeq	ip, r0, r8, lsl #13
    92c4:	0000c038 	andeq	ip, r0, r8, lsr r0
    92c8:	0000c628 	andeq	ip, r0, r8, lsr #12

000092cc <call_weak_fn>:
    92cc:	e59f3014 	ldr	r3, [pc, #20]	; 92e8 <call_weak_fn+0x1c>
    92d0:	e59f2014 	ldr	r2, [pc, #20]	; 92ec <call_weak_fn+0x20>
    92d4:	e08f3003 	add	r3, pc, r3
    92d8:	e7932002 	ldr	r2, [r3, r2]
    92dc:	e3520000 	cmp	r2, #0
    92e0:	012fff1e 	bxeq	lr
    92e4:	eaffff1c 	b	8f5c <__gmon_start__@plt>
    92e8:	00005d3c 	andeq	r5, r0, ip, lsr sp
    92ec:	fffffffc 			; <UNDEFINED> instruction: 0xfffffffc

000092f0 <deregister_tm_clones>:
    92f0:	e59f0018 	ldr	r0, [pc, #24]	; 9310 <deregister_tm_clones+0x20>
    92f4:	e59f3018 	ldr	r3, [pc, #24]	; 9314 <deregister_tm_clones+0x24>
    92f8:	e1530000 	cmp	r3, r0
    92fc:	012fff1e 	bxeq	lr
    9300:	e59f3010 	ldr	r3, [pc, #16]	; 9318 <deregister_tm_clones+0x28>
    9304:	e3530000 	cmp	r3, #0
    9308:	012fff1e 	bxeq	lr
    930c:	e12fff13 	bx	r3
    9310:	0000f014 	andeq	pc, r0, r4, lsl r0	; <UNPREDICTABLE>
    9314:	0000f014 	andeq	pc, r0, r4, lsl r0	; <UNPREDICTABLE>
    9318:	00000000 	andeq	r0, r0, r0

0000931c <register_tm_clones>:
    931c:	e59f0024 	ldr	r0, [pc, #36]	; 9348 <register_tm_clones+0x2c>
    9320:	e59f1024 	ldr	r1, [pc, #36]	; 934c <register_tm_clones+0x30>
    9324:	e0411000 	sub	r1, r1, r0
    9328:	e1a01141 	asr	r1, r1, #2
    932c:	e0811fa1 	add	r1, r1, r1, lsr #31
    9330:	e1b010c1 	asrs	r1, r1, #1
    9334:	012fff1e 	bxeq	lr
    9338:	e59f3010 	ldr	r3, [pc, #16]	; 9350 <register_tm_clones+0x34>
    933c:	e3530000 	cmp	r3, #0
    9340:	012fff1e 	bxeq	lr
    9344:	e12fff13 	bx	r3
    9348:	0000f014 	andeq	pc, r0, r4, lsl r0	; <UNPREDICTABLE>
    934c:	0000f014 	andeq	pc, r0, r4, lsl r0	; <UNPREDICTABLE>
    9350:	00000000 	andeq	r0, r0, r0

00009354 <__do_global_dtors_aux>:
    9354:	e92d4010 	push	{r4, lr}
    9358:	e59f4018 	ldr	r4, [pc, #24]	; 9378 <__do_global_dtors_aux+0x24>
    935c:	e5d43000 	ldrb	r3, [r4]
    9360:	e3530000 	cmp	r3, #0
    9364:	18bd8010 	popne	{r4, pc}
    9368:	ebffffe0 	bl	92f0 <deregister_tm_clones>
    936c:	e3a03001 	mov	r3, #1
    9370:	e5c43000 	strb	r3, [r4]
    9374:	e8bd8010 	pop	{r4, pc}
    9378:	0000f13c 	andeq	pc, r0, ip, lsr r1	; <UNPREDICTABLE>

0000937c <frame_dummy>:
    937c:	eaffffe6 	b	931c <register_tm_clones>

00009380 <GPIO_export>:
    9380:	e92d4800 	push	{fp, lr}
    9384:	e1a0b00d 	mov	fp, sp
    9388:	e24dd058 	sub	sp, sp, #88	; 0x58
    938c:	e59f1164 	ldr	r1, [pc, #356]	; 94f8 <GPIO_export+0x178>
    9390:	e59f2164 	ldr	r2, [pc, #356]	; 94fc <GPIO_export+0x17c>
    9394:	e50b0004 	str	r0, [fp, #-4]
    9398:	e1a00001 	mov	r0, r1
    939c:	e1a01002 	mov	r1, r2
    93a0:	ebffff1a 	bl	9010 <open@plt>
    93a4:	e59f1148 	ldr	r1, [pc, #328]	; 94f4 <GPIO_export+0x174>
    93a8:	e50b0010 	str	r0, [fp, #-16]
    93ac:	e51b0010 	ldr	r0, [fp, #-16]
    93b0:	e1510000 	cmp	r1, r0
    93b4:	0a000048 	beq	94dc <GPIO_export+0x15c>
    93b8:	e59f114c 	ldr	r1, [pc, #332]	; 950c <GPIO_export+0x18c>
    93bc:	e59f214c 	ldr	r2, [pc, #332]	; 9510 <GPIO_export+0x190>
    93c0:	e24b0008 	sub	r0, fp, #8
    93c4:	e51b3004 	ldr	r3, [fp, #-4]
    93c8:	ebfffef8 	bl	8fb0 <snprintf@plt>
    93cc:	e24b1008 	sub	r1, fp, #8
    93d0:	e50b000c 	str	r0, [fp, #-12]
    93d4:	e51b0010 	ldr	r0, [fp, #-16]
    93d8:	e51b200c 	ldr	r2, [fp, #-12]
    93dc:	ebffff0e 	bl	901c <write@plt>
    93e0:	e51b1010 	ldr	r1, [fp, #-16]
    93e4:	e58d0014 	str	r0, [sp, #20]
    93e8:	e1a00001 	mov	r0, r1
    93ec:	ebffff0d 	bl	9028 <close@plt>
    93f0:	e59f110c 	ldr	r1, [pc, #268]	; 9504 <GPIO_export+0x184>
    93f4:	e59f210c 	ldr	r2, [pc, #268]	; 9508 <GPIO_export+0x188>
    93f8:	e28d3022 	add	r3, sp, #34	; 0x22
    93fc:	e51be004 	ldr	lr, [fp, #-4]
    9400:	e58d0010 	str	r0, [sp, #16]
    9404:	e1a00003 	mov	r0, r3
    9408:	e1a0300e 	mov	r3, lr
    940c:	ebfffee7 	bl	8fb0 <snprintf@plt>
    9410:	e59f10e8 	ldr	r1, [pc, #232]	; 9500 <GPIO_export+0x180>
    9414:	e58d101c 	str	r1, [sp, #28]
    9418:	e58d1018 	str	r1, [sp, #24]
    941c:	e58d000c 	str	r0, [sp, #12]
    9420:	e59f00ec 	ldr	r0, [pc, #236]	; 9514 <GPIO_export+0x194>
    9424:	ebffff02 	bl	9034 <usleep@plt>
    9428:	e59f10cc 	ldr	r1, [pc, #204]	; 94fc <GPIO_export+0x17c>
    942c:	e28de022 	add	lr, sp, #34	; 0x22
    9430:	e58d0008 	str	r0, [sp, #8]
    9434:	e1a0000e 	mov	r0, lr
    9438:	ebfffef4 	bl	9010 <open@plt>
    943c:	e59f10b0 	ldr	r1, [pc, #176]	; 94f4 <GPIO_export+0x174>
    9440:	e50b0010 	str	r0, [fp, #-16]
    9444:	e51b0010 	ldr	r0, [fp, #-16]
    9448:	e1510000 	cmp	r1, r0
    944c:	0a000005 	beq	9468 <GPIO_export+0xe8>
    9450:	e59f00a4 	ldr	r0, [pc, #164]	; 94fc <GPIO_export+0x17c>
    9454:	e58d001c 	str	r0, [sp, #28]
    9458:	e51b0010 	ldr	r0, [fp, #-16]
    945c:	ebfffef1 	bl	9028 <close@plt>
    9460:	e58d0004 	str	r0, [sp, #4]
    9464:	ea000001 	b	9470 <GPIO_export+0xf0>
    9468:	e59f0090 	ldr	r0, [pc, #144]	; 9500 <GPIO_export+0x180>
    946c:	e58d001c 	str	r0, [sp, #28]
    9470:	eaffffff 	b	9474 <GPIO_export+0xf4>
    9474:	e59d001c 	ldr	r0, [sp, #28]
    9478:	e3a01000 	mov	r1, #0
    947c:	e3500000 	cmp	r0, #0
    9480:	e58d1000 	str	r1, [sp]
    9484:	1a000007 	bne	94a8 <GPIO_export+0x128>
    9488:	eaffffff 	b	948c <GPIO_export+0x10c>
    948c:	e59d0018 	ldr	r0, [sp, #24]
    9490:	e2801001 	add	r1, r0, #1
    9494:	e58d1018 	str	r1, [sp, #24]
    9498:	e3500014 	cmp	r0, #20
    949c:	e59f005c 	ldr	r0, [pc, #92]	; 9500 <GPIO_export+0x180>
    94a0:	b3a00001 	movlt	r0, #1
    94a4:	e58d0000 	str	r0, [sp]
    94a8:	e59d0000 	ldr	r0, [sp]
    94ac:	e3100001 	tst	r0, #1
    94b0:	1affffda 	bne	9420 <GPIO_export+0xa0>
    94b4:	e59d001c 	ldr	r0, [sp, #28]
    94b8:	e3500000 	cmp	r0, #0
    94bc:	0a000002 	beq	94cc <GPIO_export+0x14c>
    94c0:	e59f0038 	ldr	r0, [pc, #56]	; 9500 <GPIO_export+0x180>
    94c4:	e50b0014 	str	r0, [fp, #-20]	; 0xffffffec
    94c8:	ea000002 	b	94d8 <GPIO_export+0x158>
    94cc:	ebfffeab 	bl	8f80 <__errno_location@plt>
    94d0:	e5900000 	ldr	r0, [r0]
    94d4:	e50b0014 	str	r0, [fp, #-20]	; 0xffffffec
    94d8:	ea000002 	b	94e8 <GPIO_export+0x168>
    94dc:	ebfffea7 	bl	8f80 <__errno_location@plt>
    94e0:	e5900000 	ldr	r0, [r0]
    94e4:	e50b0014 	str	r0, [fp, #-20]	; 0xffffffec
    94e8:	e51b0014 	ldr	r0, [fp, #-20]	; 0xffffffec
    94ec:	e1a0d00b 	mov	sp, fp
    94f0:	e8bd8800 	pop	{fp, pc}
    94f4:	ffffffff 			; <UNDEFINED> instruction: 0xffffffff
    94f8:	0000c698 	muleq	r0, r8, r6
    94fc:	00000001 	andeq	r0, r0, r1
    9500:	00000000 	andeq	r0, r0, r0
    9504:	00000022 	andeq	r0, r0, r2, lsr #32
    9508:	0000c6b2 			; <UNDEFINED> instruction: 0x0000c6b2
    950c:	00000004 	andeq	r0, r0, r4
    9510:	0000c6af 	andeq	ip, r0, pc, lsr #13
    9514:	0000c350 	andeq	ip, r0, r0, asr r3

00009518 <GPIO_unexport>:
    9518:	e92d4800 	push	{fp, lr}
    951c:	e1a0b00d 	mov	fp, sp
    9520:	e24dd020 	sub	sp, sp, #32
    9524:	e59f1088 	ldr	r1, [pc, #136]	; 95b4 <GPIO_unexport+0x9c>
    9528:	e59f2088 	ldr	r2, [pc, #136]	; 95b8 <GPIO_unexport+0xa0>
    952c:	e50b0004 	str	r0, [fp, #-4]
    9530:	e1a00001 	mov	r0, r1
    9534:	e1a01002 	mov	r1, r2
    9538:	ebfffeb4 	bl	9010 <open@plt>
    953c:	e59f106c 	ldr	r1, [pc, #108]	; 95b0 <GPIO_unexport+0x98>
    9540:	e58d0010 	str	r0, [sp, #16]
    9544:	e59d0010 	ldr	r0, [sp, #16]
    9548:	e1510000 	cmp	r1, r0
    954c:	0a000011 	beq	9598 <GPIO_unexport+0x80>
    9550:	e59f1068 	ldr	r1, [pc, #104]	; 95c0 <GPIO_unexport+0xa8>
    9554:	e59f2068 	ldr	r2, [pc, #104]	; 95c4 <GPIO_unexport+0xac>
    9558:	e24b0008 	sub	r0, fp, #8
    955c:	e51b3004 	ldr	r3, [fp, #-4]
    9560:	ebfffe92 	bl	8fb0 <snprintf@plt>
    9564:	e24b1008 	sub	r1, fp, #8
    9568:	e50b000c 	str	r0, [fp, #-12]
    956c:	e59d0010 	ldr	r0, [sp, #16]
    9570:	e51b200c 	ldr	r2, [fp, #-12]
    9574:	ebfffea8 	bl	901c <write@plt>
    9578:	e59d1010 	ldr	r1, [sp, #16]
    957c:	e58d0008 	str	r0, [sp, #8]
    9580:	e1a00001 	mov	r0, r1
    9584:	ebfffea7 	bl	9028 <close@plt>
    9588:	e59f102c 	ldr	r1, [pc, #44]	; 95bc <GPIO_unexport+0xa4>
    958c:	e58d100c 	str	r1, [sp, #12]
    9590:	e58d0004 	str	r0, [sp, #4]
    9594:	ea000002 	b	95a4 <GPIO_unexport+0x8c>
    9598:	ebfffe78 	bl	8f80 <__errno_location@plt>
    959c:	e5900000 	ldr	r0, [r0]
    95a0:	e58d000c 	str	r0, [sp, #12]
    95a4:	e59d000c 	ldr	r0, [sp, #12]
    95a8:	e1a0d00b 	mov	sp, fp
    95ac:	e8bd8800 	pop	{fp, pc}
    95b0:	ffffffff 			; <UNDEFINED> instruction: 0xffffffff
    95b4:	0000c6d3 	ldrdeq	ip, [r0], -r3
    95b8:	00000001 	andeq	r0, r0, r1
    95bc:	00000000 	andeq	r0, r0, r0
    95c0:	00000004 	andeq	r0, r0, r4
    95c4:	0000c6af 	andeq	ip, r0, pc, lsr #13

000095c8 <GPIO_direction>:
    95c8:	e92d4800 	push	{fp, lr}
    95cc:	e1a0b00d 	mov	fp, sp
    95d0:	e24dd060 	sub	sp, sp, #96	; 0x60
    95d4:	e59f2110 	ldr	r2, [pc, #272]	; 96ec <GPIO_direction+0x124>
    95d8:	e59f3110 	ldr	r3, [pc, #272]	; 96f0 <GPIO_direction+0x128>
    95dc:	e28dc02e 	add	ip, sp, #46	; 0x2e
    95e0:	e59fe10c 	ldr	lr, [pc, #268]	; 96f4 <GPIO_direction+0x12c>
    95e4:	e50b0004 	str	r0, [fp, #-4]
    95e8:	e50b1008 	str	r1, [fp, #-8]
    95ec:	e59e0000 	ldr	r0, [lr]
    95f0:	e50b0010 	str	r0, [fp, #-16]
    95f4:	e59e0004 	ldr	r0, [lr, #4]
    95f8:	e50b000c 	str	r0, [fp, #-12]
    95fc:	e51b0004 	ldr	r0, [fp, #-4]
    9600:	e58d001c 	str	r0, [sp, #28]
    9604:	e1a0000c 	mov	r0, ip
    9608:	e1a01002 	mov	r1, r2
    960c:	e1a02003 	mov	r2, r3
    9610:	e59d301c 	ldr	r3, [sp, #28]
    9614:	ebfffe65 	bl	8fb0 <snprintf@plt>
    9618:	e59f10c8 	ldr	r1, [pc, #200]	; 96e8 <GPIO_direction+0x120>
    961c:	e28d202e 	add	r2, sp, #46	; 0x2e
    9620:	e58d0018 	str	r0, [sp, #24]
    9624:	e1a00002 	mov	r0, r2
    9628:	ebfffe78 	bl	9010 <open@plt>
    962c:	e59f10b0 	ldr	r1, [pc, #176]	; 96e4 <GPIO_direction+0x11c>
    9630:	e58d0028 	str	r0, [sp, #40]	; 0x28
    9634:	e59d0028 	ldr	r0, [sp, #40]	; 0x28
    9638:	e1510000 	cmp	r1, r0
    963c:	0a000022 	beq	96cc <GPIO_direction+0x104>
    9640:	e59f00b0 	ldr	r0, [pc, #176]	; 96f8 <GPIO_direction+0x130>
    9644:	e51b1008 	ldr	r1, [fp, #-8]
    9648:	e3510000 	cmp	r1, #0
    964c:	13a01001 	movne	r1, #1
    9650:	e24b2010 	sub	r2, fp, #16
    9654:	e0821101 	add	r1, r2, r1, lsl #2
    9658:	e5911000 	ldr	r1, [r1]
    965c:	e58d1020 	str	r1, [sp, #32]
    9660:	e59d1028 	ldr	r1, [sp, #40]	; 0x28
    9664:	e59d2020 	ldr	r2, [sp, #32]
    9668:	e59d3020 	ldr	r3, [sp, #32]
    966c:	e58d0014 	str	r0, [sp, #20]
    9670:	e1a00003 	mov	r0, r3
    9674:	e58d2010 	str	r2, [sp, #16]
    9678:	e58d100c 	str	r1, [sp, #12]
    967c:	ebfffe6f 	bl	9040 <strlen@plt>
    9680:	e59d100c 	ldr	r1, [sp, #12]
    9684:	e58d0008 	str	r0, [sp, #8]
    9688:	e1a00001 	mov	r0, r1
    968c:	e59d1010 	ldr	r1, [sp, #16]
    9690:	e59d2008 	ldr	r2, [sp, #8]
    9694:	ebfffe60 	bl	901c <write@plt>
    9698:	e59f1044 	ldr	r1, [pc, #68]	; 96e4 <GPIO_direction+0x11c>
    969c:	e1510000 	cmp	r1, r0
    96a0:	0a000002 	beq	96b0 <GPIO_direction+0xe8>
    96a4:	e59f0050 	ldr	r0, [pc, #80]	; 96fc <GPIO_direction+0x134>
    96a8:	e58d0024 	str	r0, [sp, #36]	; 0x24
    96ac:	ea000002 	b	96bc <GPIO_direction+0xf4>
    96b0:	ebfffe32 	bl	8f80 <__errno_location@plt>
    96b4:	e5900000 	ldr	r0, [r0]
    96b8:	e58d0024 	str	r0, [sp, #36]	; 0x24
    96bc:	e59d0028 	ldr	r0, [sp, #40]	; 0x28
    96c0:	ebfffe58 	bl	9028 <close@plt>
    96c4:	e58d0004 	str	r0, [sp, #4]
    96c8:	ea000002 	b	96d8 <GPIO_direction+0x110>
    96cc:	ebfffe2b 	bl	8f80 <__errno_location@plt>
    96d0:	e5900000 	ldr	r0, [r0]
    96d4:	e58d0024 	str	r0, [sp, #36]	; 0x24
    96d8:	e59d0024 	ldr	r0, [sp, #36]	; 0x24
    96dc:	e1a0d00b 	mov	sp, fp
    96e0:	e8bd8800 	pop	{fp, pc}
    96e4:	ffffffff 			; <UNDEFINED> instruction: 0xffffffff
    96e8:	00000001 	andeq	r0, r0, r1
    96ec:	00000022 	andeq	r0, r0, r2, lsr #32
    96f0:	0000c6b2 			; <UNDEFINED> instruction: 0x0000c6b2
    96f4:	0000d23c 	andeq	sp, r0, ip, lsr r2
    96f8:	00000002 	andeq	r0, r0, r2
    96fc:	00000000 	andeq	r0, r0, r0

00009700 <GPIO_read>:
    9700:	e92d4800 	push	{fp, lr}
    9704:	e1a0b00d 	mov	fp, sp
    9708:	e24dd040 	sub	sp, sp, #64	; 0x40
    970c:	e59f20cc 	ldr	r2, [pc, #204]	; 97e0 <GPIO_read+0xe0>
    9710:	e50b0004 	str	r0, [fp, #-4]
    9714:	e50b1008 	str	r1, [fp, #-8]
    9718:	e51b0008 	ldr	r0, [fp, #-8]
    971c:	e1500002 	cmp	r0, r2
    9720:	0a000029 	beq	97cc <GPIO_read+0xcc>
    9724:	e59f10c0 	ldr	r1, [pc, #192]	; 97ec <GPIO_read+0xec>
    9728:	e59f20c0 	ldr	r2, [pc, #192]	; 97f0 <GPIO_read+0xf0>
    972c:	e28d001a 	add	r0, sp, #26
    9730:	e51b3004 	ldr	r3, [fp, #-4]
    9734:	ebfffe1d 	bl	8fb0 <snprintf@plt>
    9738:	e59f10a0 	ldr	r1, [pc, #160]	; 97e0 <GPIO_read+0xe0>
    973c:	e28d201a 	add	r2, sp, #26
    9740:	e58d0008 	str	r0, [sp, #8]
    9744:	e1a00002 	mov	r0, r2
    9748:	ebfffe30 	bl	9010 <open@plt>
    974c:	e59f1094 	ldr	r1, [pc, #148]	; 97e8 <GPIO_read+0xe8>
    9750:	e58d0010 	str	r0, [sp, #16]
    9754:	e59d0010 	ldr	r0, [sp, #16]
    9758:	e1510000 	cmp	r1, r0
    975c:	0a000016 	beq	97bc <GPIO_read+0xbc>
    9760:	e59f208c 	ldr	r2, [pc, #140]	; 97f4 <GPIO_read+0xf4>
    9764:	e28d1016 	add	r1, sp, #22
    9768:	e59d0010 	ldr	r0, [sp, #16]
    976c:	ebfffe36 	bl	904c <read@plt>
    9770:	e59f1070 	ldr	r1, [pc, #112]	; 97e8 <GPIO_read+0xe8>
    9774:	e1510000 	cmp	r1, r0
    9778:	0a000008 	beq	97a0 <GPIO_read+0xa0>
    977c:	e28d0016 	add	r0, sp, #22
    9780:	e3a01000 	mov	r1, #0
    9784:	e5cd1019 	strb	r1, [sp, #25]
    9788:	ebfffe32 	bl	9058 <atoi@plt>
    978c:	e59f104c 	ldr	r1, [pc, #76]	; 97e0 <GPIO_read+0xe0>
    9790:	e51be008 	ldr	lr, [fp, #-8]
    9794:	e58e0000 	str	r0, [lr]
    9798:	e58d100c 	str	r1, [sp, #12]
    979c:	ea000002 	b	97ac <GPIO_read+0xac>
    97a0:	ebfffdf6 	bl	8f80 <__errno_location@plt>
    97a4:	e5900000 	ldr	r0, [r0]
    97a8:	e58d000c 	str	r0, [sp, #12]
    97ac:	e59d0010 	ldr	r0, [sp, #16]
    97b0:	ebfffe1c 	bl	9028 <close@plt>
    97b4:	e58d0004 	str	r0, [sp, #4]
    97b8:	ea000002 	b	97c8 <GPIO_read+0xc8>
    97bc:	ebfffdef 	bl	8f80 <__errno_location@plt>
    97c0:	e5900000 	ldr	r0, [r0]
    97c4:	e58d000c 	str	r0, [sp, #12]
    97c8:	ea000001 	b	97d4 <GPIO_read+0xd4>
    97cc:	e59f0010 	ldr	r0, [pc, #16]	; 97e4 <GPIO_read+0xe4>
    97d0:	e58d000c 	str	r0, [sp, #12]
    97d4:	e59d000c 	ldr	r0, [sp, #12]
    97d8:	e1a0d00b 	mov	sp, fp
    97dc:	e8bd8800 	pop	{fp, pc}
    97e0:	00000000 	andeq	r0, r0, r0
    97e4:	00000016 	andeq	r0, r0, r6, lsl r0
    97e8:	ffffffff 			; <UNDEFINED> instruction: 0xffffffff
    97ec:	0000001e 	andeq	r0, r0, lr, lsl r0
    97f0:	0000c6f3 	strdeq	ip, [r0], -r3
    97f4:	00000003 	andeq	r0, r0, r3

000097f8 <GPIO_write>:
    97f8:	e92d4800 	push	{fp, lr}
    97fc:	e1a0b00d 	mov	fp, sp
    9800:	e24dd058 	sub	sp, sp, #88	; 0x58
    9804:	e59f2110 	ldr	r2, [pc, #272]	; 991c <GPIO_write+0x124>
    9808:	e59f3110 	ldr	r3, [pc, #272]	; 9920 <GPIO_write+0x128>
    980c:	e28dc02a 	add	ip, sp, #42	; 0x2a
    9810:	e59fe10c 	ldr	lr, [pc, #268]	; 9924 <GPIO_write+0x12c>
    9814:	e50b0004 	str	r0, [fp, #-4]
    9818:	e50b1008 	str	r1, [fp, #-8]
    981c:	e59e0000 	ldr	r0, [lr]
    9820:	e50b0010 	str	r0, [fp, #-16]
    9824:	e59e0004 	ldr	r0, [lr, #4]
    9828:	e50b000c 	str	r0, [fp, #-12]
    982c:	e51b0004 	ldr	r0, [fp, #-4]
    9830:	e58d0018 	str	r0, [sp, #24]
    9834:	e1a0000c 	mov	r0, ip
    9838:	e1a01002 	mov	r1, r2
    983c:	e1a02003 	mov	r2, r3
    9840:	e59d3018 	ldr	r3, [sp, #24]
    9844:	ebfffdd9 	bl	8fb0 <snprintf@plt>
    9848:	e59f10c8 	ldr	r1, [pc, #200]	; 9918 <GPIO_write+0x120>
    984c:	e28d202a 	add	r2, sp, #42	; 0x2a
    9850:	e58d0014 	str	r0, [sp, #20]
    9854:	e1a00002 	mov	r0, r2
    9858:	ebfffdec 	bl	9010 <open@plt>
    985c:	e59f10b0 	ldr	r1, [pc, #176]	; 9914 <GPIO_write+0x11c>
    9860:	e58d0024 	str	r0, [sp, #36]	; 0x24
    9864:	e59d0024 	ldr	r0, [sp, #36]	; 0x24
    9868:	e1510000 	cmp	r1, r0
    986c:	0a000022 	beq	98fc <GPIO_write+0x104>
    9870:	e59f00b0 	ldr	r0, [pc, #176]	; 9928 <GPIO_write+0x130>
    9874:	e51b1008 	ldr	r1, [fp, #-8]
    9878:	e3510000 	cmp	r1, #0
    987c:	13a01001 	movne	r1, #1
    9880:	e24b2010 	sub	r2, fp, #16
    9884:	e0821101 	add	r1, r2, r1, lsl #2
    9888:	e5911000 	ldr	r1, [r1]
    988c:	e58d101c 	str	r1, [sp, #28]
    9890:	e59d1024 	ldr	r1, [sp, #36]	; 0x24
    9894:	e59d201c 	ldr	r2, [sp, #28]
    9898:	e59d301c 	ldr	r3, [sp, #28]
    989c:	e58d0010 	str	r0, [sp, #16]
    98a0:	e1a00003 	mov	r0, r3
    98a4:	e58d200c 	str	r2, [sp, #12]
    98a8:	e58d1008 	str	r1, [sp, #8]
    98ac:	ebfffde3 	bl	9040 <strlen@plt>
    98b0:	e59d1008 	ldr	r1, [sp, #8]
    98b4:	e58d0004 	str	r0, [sp, #4]
    98b8:	e1a00001 	mov	r0, r1
    98bc:	e59d100c 	ldr	r1, [sp, #12]
    98c0:	e59d2004 	ldr	r2, [sp, #4]
    98c4:	ebfffdd4 	bl	901c <write@plt>
    98c8:	e59f1044 	ldr	r1, [pc, #68]	; 9914 <GPIO_write+0x11c>
    98cc:	e1510000 	cmp	r1, r0
    98d0:	0a000002 	beq	98e0 <GPIO_write+0xe8>
    98d4:	e59f0050 	ldr	r0, [pc, #80]	; 992c <GPIO_write+0x134>
    98d8:	e58d0020 	str	r0, [sp, #32]
    98dc:	ea000002 	b	98ec <GPIO_write+0xf4>
    98e0:	ebfffda6 	bl	8f80 <__errno_location@plt>
    98e4:	e5900000 	ldr	r0, [r0]
    98e8:	e58d0020 	str	r0, [sp, #32]
    98ec:	e59d0024 	ldr	r0, [sp, #36]	; 0x24
    98f0:	ebfffdcc 	bl	9028 <close@plt>
    98f4:	e58d0000 	str	r0, [sp]
    98f8:	ea000002 	b	9908 <GPIO_write+0x110>
    98fc:	ebfffd9f 	bl	8f80 <__errno_location@plt>
    9900:	e5900000 	ldr	r0, [r0]
    9904:	e58d0020 	str	r0, [sp, #32]
    9908:	e59d0020 	ldr	r0, [sp, #32]
    990c:	e1a0d00b 	mov	sp, fp
    9910:	e8bd8800 	pop	{fp, pc}
    9914:	ffffffff 			; <UNDEFINED> instruction: 0xffffffff
    9918:	00000001 	andeq	r0, r0, r1
    991c:	0000001e 	andeq	r0, r0, lr, lsl r0
    9920:	0000c6f3 	strdeq	ip, [r0], -r3
    9924:	0000d244 	andeq	sp, r0, r4, asr #4
    9928:	00000002 	andeq	r0, r0, r2
    992c:	00000000 	andeq	r0, r0, r0

00009930 <export_gpios>:
    9930:	e92d4800 	push	{fp, lr}
    9934:	e1a0b00d 	mov	fp, sp
    9938:	e24dd088 	sub	sp, sp, #136	; 0x88
    993c:	e59f02e0 	ldr	r0, [pc, #736]	; 9c24 <export_gpios+0x2f4>
    9940:	ebfffe8e 	bl	9380 <GPIO_export>
    9944:	e59fe2d4 	ldr	lr, [pc, #724]	; 9c20 <export_gpios+0x2f0>
    9948:	e50b0008 	str	r0, [fp, #-8]
    994c:	e51b0008 	ldr	r0, [fp, #-8]
    9950:	e15e0000 	cmp	lr, r0
    9954:	1a00009a 	bne	9bc4 <export_gpios+0x294>
    9958:	e59f02d0 	ldr	r0, [pc, #720]	; 9c30 <export_gpios+0x300>
    995c:	ebfffe87 	bl	9380 <GPIO_export>
    9960:	e59fe2b8 	ldr	lr, [pc, #696]	; 9c20 <export_gpios+0x2f0>
    9964:	e50b0008 	str	r0, [fp, #-8]
    9968:	e51b0008 	ldr	r0, [fp, #-8]
    996c:	e15e0000 	cmp	lr, r0
    9970:	1a00007a 	bne	9b60 <export_gpios+0x230>
    9974:	e59f02c0 	ldr	r0, [pc, #704]	; 9c3c <export_gpios+0x30c>
    9978:	ebfffe80 	bl	9380 <GPIO_export>
    997c:	e59fe29c 	ldr	lr, [pc, #668]	; 9c20 <export_gpios+0x2f0>
    9980:	e50b0008 	str	r0, [fp, #-8]
    9984:	e51b0008 	ldr	r0, [fp, #-8]
    9988:	e15e0000 	cmp	lr, r0
    998c:	1a000056 	bne	9aec <export_gpios+0x1bc>
    9990:	e59f02b0 	ldr	r0, [pc, #688]	; 9c48 <export_gpios+0x318>
    9994:	ebfffe79 	bl	9380 <GPIO_export>
    9998:	e59fe280 	ldr	lr, [pc, #640]	; 9c20 <export_gpios+0x2f0>
    999c:	e50b0008 	str	r0, [fp, #-8]
    99a0:	e51b0008 	ldr	r0, [fp, #-8]
    99a4:	e15e0000 	cmp	lr, r0
    99a8:	1a00002e 	bne	9a68 <export_gpios+0x138>
    99ac:	e59f02a0 	ldr	r0, [pc, #672]	; 9c54 <export_gpios+0x324>
    99b0:	ebfffe72 	bl	9380 <GPIO_export>
    99b4:	e59fe264 	ldr	lr, [pc, #612]	; 9c20 <export_gpios+0x2f0>
    99b8:	e50b0008 	str	r0, [fp, #-8]
    99bc:	e51b0008 	ldr	r0, [fp, #-8]
    99c0:	e15e0000 	cmp	lr, r0
    99c4:	1a000002 	bne	99d4 <export_gpios+0xa4>
    99c8:	e59f0250 	ldr	r0, [pc, #592]	; 9c20 <export_gpios+0x2f0>
    99cc:	e50b0004 	str	r0, [fp, #-4]
    99d0:	ea000023 	b	9a64 <export_gpios+0x134>
    99d4:	e59f0280 	ldr	r0, [pc, #640]	; 9c5c <export_gpios+0x32c>
    99d8:	e51b1008 	ldr	r1, [fp, #-8]
    99dc:	e50b1004 	str	r1, [fp, #-4]
    99e0:	e5900000 	ldr	r0, [r0]
    99e4:	e51b3008 	ldr	r3, [fp, #-8]
    99e8:	e51b1008 	ldr	r1, [fp, #-8]
    99ec:	e50b000c 	str	r0, [fp, #-12]
    99f0:	e1a00001 	mov	r0, r1
    99f4:	e50b3010 	str	r3, [fp, #-16]
    99f8:	ebfffd75 	bl	8fd4 <strerror@plt>
    99fc:	e59f1254 	ldr	r1, [pc, #596]	; 9c58 <export_gpios+0x328>
    9a00:	e59f224c 	ldr	r2, [pc, #588]	; 9c54 <export_gpios+0x324>
    9a04:	e51b300c 	ldr	r3, [fp, #-12]
    9a08:	e50b0014 	str	r0, [fp, #-20]	; 0xffffffec
    9a0c:	e1a00003 	mov	r0, r3
    9a10:	e51b3010 	ldr	r3, [fp, #-16]
    9a14:	e51be014 	ldr	lr, [fp, #-20]	; 0xffffffec
    9a18:	e58de000 	str	lr, [sp]
    9a1c:	eb000167 	bl	9fc0 <msg_printf>
    9a20:	e59f11fc 	ldr	r1, [pc, #508]	; 9c24 <export_gpios+0x2f4>
    9a24:	e50b0018 	str	r0, [fp, #-24]	; 0xffffffe8
    9a28:	e1a00001 	mov	r0, r1
    9a2c:	ebfffeb9 	bl	9518 <GPIO_unexport>
    9a30:	e59f11f8 	ldr	r1, [pc, #504]	; 9c30 <export_gpios+0x300>
    9a34:	e50b001c 	str	r0, [fp, #-28]	; 0xffffffe4
    9a38:	e1a00001 	mov	r0, r1
    9a3c:	ebfffeb5 	bl	9518 <GPIO_unexport>
    9a40:	e59f11f4 	ldr	r1, [pc, #500]	; 9c3c <export_gpios+0x30c>
    9a44:	e50b0020 	str	r0, [fp, #-32]	; 0xffffffe0
    9a48:	e1a00001 	mov	r0, r1
    9a4c:	ebfffeb1 	bl	9518 <GPIO_unexport>
    9a50:	e59f11f0 	ldr	r1, [pc, #496]	; 9c48 <export_gpios+0x318>
    9a54:	e50b0024 	str	r0, [fp, #-36]	; 0xffffffdc
    9a58:	e1a00001 	mov	r0, r1
    9a5c:	ebfffead 	bl	9518 <GPIO_unexport>
    9a60:	e50b0028 	str	r0, [fp, #-40]	; 0xffffffd8
    9a64:	ea00001f 	b	9ae8 <export_gpios+0x1b8>
    9a68:	e59f01e0 	ldr	r0, [pc, #480]	; 9c50 <export_gpios+0x320>
    9a6c:	e51b1008 	ldr	r1, [fp, #-8]
    9a70:	e50b1004 	str	r1, [fp, #-4]
    9a74:	e5900000 	ldr	r0, [r0]
    9a78:	e51b3008 	ldr	r3, [fp, #-8]
    9a7c:	e51b1008 	ldr	r1, [fp, #-8]
    9a80:	e50b002c 	str	r0, [fp, #-44]	; 0xffffffd4
    9a84:	e1a00001 	mov	r0, r1
    9a88:	e50b3030 	str	r3, [fp, #-48]	; 0xffffffd0
    9a8c:	ebfffd50 	bl	8fd4 <strerror@plt>
    9a90:	e59f11b4 	ldr	r1, [pc, #436]	; 9c4c <export_gpios+0x31c>
    9a94:	e59f21ac 	ldr	r2, [pc, #428]	; 9c48 <export_gpios+0x318>
    9a98:	e51b302c 	ldr	r3, [fp, #-44]	; 0xffffffd4
    9a9c:	e50b0034 	str	r0, [fp, #-52]	; 0xffffffcc
    9aa0:	e1a00003 	mov	r0, r3
    9aa4:	e51b3030 	ldr	r3, [fp, #-48]	; 0xffffffd0
    9aa8:	e51be034 	ldr	lr, [fp, #-52]	; 0xffffffcc
    9aac:	e58de000 	str	lr, [sp]
    9ab0:	eb000142 	bl	9fc0 <msg_printf>
    9ab4:	e59f1168 	ldr	r1, [pc, #360]	; 9c24 <export_gpios+0x2f4>
    9ab8:	e50b0038 	str	r0, [fp, #-56]	; 0xffffffc8
    9abc:	e1a00001 	mov	r0, r1
    9ac0:	ebfffe94 	bl	9518 <GPIO_unexport>
    9ac4:	e59f1164 	ldr	r1, [pc, #356]	; 9c30 <export_gpios+0x300>
    9ac8:	e50b003c 	str	r0, [fp, #-60]	; 0xffffffc4
    9acc:	e1a00001 	mov	r0, r1
    9ad0:	ebfffe90 	bl	9518 <GPIO_unexport>
    9ad4:	e59f1160 	ldr	r1, [pc, #352]	; 9c3c <export_gpios+0x30c>
    9ad8:	e50b0040 	str	r0, [fp, #-64]	; 0xffffffc0
    9adc:	e1a00001 	mov	r0, r1
    9ae0:	ebfffe8c 	bl	9518 <GPIO_unexport>
    9ae4:	e58d0044 	str	r0, [sp, #68]	; 0x44
    9ae8:	ea00001b 	b	9b5c <export_gpios+0x22c>
    9aec:	e59f0150 	ldr	r0, [pc, #336]	; 9c44 <export_gpios+0x314>
    9af0:	e51b1008 	ldr	r1, [fp, #-8]
    9af4:	e50b1004 	str	r1, [fp, #-4]
    9af8:	e5900000 	ldr	r0, [r0]
    9afc:	e51b3008 	ldr	r3, [fp, #-8]
    9b00:	e51b1008 	ldr	r1, [fp, #-8]
    9b04:	e58d0040 	str	r0, [sp, #64]	; 0x40
    9b08:	e1a00001 	mov	r0, r1
    9b0c:	e58d303c 	str	r3, [sp, #60]	; 0x3c
    9b10:	ebfffd2f 	bl	8fd4 <strerror@plt>
    9b14:	e59f1124 	ldr	r1, [pc, #292]	; 9c40 <export_gpios+0x310>
    9b18:	e59f211c 	ldr	r2, [pc, #284]	; 9c3c <export_gpios+0x30c>
    9b1c:	e59d3040 	ldr	r3, [sp, #64]	; 0x40
    9b20:	e58d0038 	str	r0, [sp, #56]	; 0x38
    9b24:	e1a00003 	mov	r0, r3
    9b28:	e59d303c 	ldr	r3, [sp, #60]	; 0x3c
    9b2c:	e59de038 	ldr	lr, [sp, #56]	; 0x38
    9b30:	e58de000 	str	lr, [sp]
    9b34:	eb000121 	bl	9fc0 <msg_printf>
    9b38:	e59f10e4 	ldr	r1, [pc, #228]	; 9c24 <export_gpios+0x2f4>
    9b3c:	e58d0034 	str	r0, [sp, #52]	; 0x34
    9b40:	e1a00001 	mov	r0, r1
    9b44:	ebfffe73 	bl	9518 <GPIO_unexport>
    9b48:	e59f10e0 	ldr	r1, [pc, #224]	; 9c30 <export_gpios+0x300>
    9b4c:	e58d0030 	str	r0, [sp, #48]	; 0x30
    9b50:	e1a00001 	mov	r0, r1
    9b54:	ebfffe6f 	bl	9518 <GPIO_unexport>
    9b58:	e58d002c 	str	r0, [sp, #44]	; 0x2c
    9b5c:	ea000017 	b	9bc0 <export_gpios+0x290>
    9b60:	e59f00d0 	ldr	r0, [pc, #208]	; 9c38 <export_gpios+0x308>
    9b64:	e51b1008 	ldr	r1, [fp, #-8]
    9b68:	e50b1004 	str	r1, [fp, #-4]
    9b6c:	e5900000 	ldr	r0, [r0]
    9b70:	e51b3008 	ldr	r3, [fp, #-8]
    9b74:	e51b1008 	ldr	r1, [fp, #-8]
    9b78:	e58d0028 	str	r0, [sp, #40]	; 0x28
    9b7c:	e1a00001 	mov	r0, r1
    9b80:	e58d3024 	str	r3, [sp, #36]	; 0x24
    9b84:	ebfffd12 	bl	8fd4 <strerror@plt>
    9b88:	e59f10a4 	ldr	r1, [pc, #164]	; 9c34 <export_gpios+0x304>
    9b8c:	e59f209c 	ldr	r2, [pc, #156]	; 9c30 <export_gpios+0x300>
    9b90:	e59d3028 	ldr	r3, [sp, #40]	; 0x28
    9b94:	e58d0020 	str	r0, [sp, #32]
    9b98:	e1a00003 	mov	r0, r3
    9b9c:	e59d3024 	ldr	r3, [sp, #36]	; 0x24
    9ba0:	e59de020 	ldr	lr, [sp, #32]
    9ba4:	e58de000 	str	lr, [sp]
    9ba8:	eb000104 	bl	9fc0 <msg_printf>
    9bac:	e59f1070 	ldr	r1, [pc, #112]	; 9c24 <export_gpios+0x2f4>
    9bb0:	e58d001c 	str	r0, [sp, #28]
    9bb4:	e1a00001 	mov	r0, r1
    9bb8:	ebfffe56 	bl	9518 <GPIO_unexport>
    9bbc:	e58d0018 	str	r0, [sp, #24]
    9bc0:	ea000013 	b	9c14 <export_gpios+0x2e4>
    9bc4:	e59f0060 	ldr	r0, [pc, #96]	; 9c2c <export_gpios+0x2fc>
    9bc8:	e51b1008 	ldr	r1, [fp, #-8]
    9bcc:	e50b1004 	str	r1, [fp, #-4]
    9bd0:	e5900000 	ldr	r0, [r0]
    9bd4:	e51b3008 	ldr	r3, [fp, #-8]
    9bd8:	e51b1008 	ldr	r1, [fp, #-8]
    9bdc:	e58d0014 	str	r0, [sp, #20]
    9be0:	e1a00001 	mov	r0, r1
    9be4:	e58d3010 	str	r3, [sp, #16]
    9be8:	ebfffcf9 	bl	8fd4 <strerror@plt>
    9bec:	e59f1034 	ldr	r1, [pc, #52]	; 9c28 <export_gpios+0x2f8>
    9bf0:	e59f202c 	ldr	r2, [pc, #44]	; 9c24 <export_gpios+0x2f4>
    9bf4:	e59d3014 	ldr	r3, [sp, #20]
    9bf8:	e58d000c 	str	r0, [sp, #12]
    9bfc:	e1a00003 	mov	r0, r3
    9c00:	e59d3010 	ldr	r3, [sp, #16]
    9c04:	e59de00c 	ldr	lr, [sp, #12]
    9c08:	e58de000 	str	lr, [sp]
    9c0c:	eb0000eb 	bl	9fc0 <msg_printf>
    9c10:	e58d0008 	str	r0, [sp, #8]
    9c14:	e51b0004 	ldr	r0, [fp, #-4]
    9c18:	e1a0d00b 	mov	sp, fp
    9c1c:	e8bd8800 	pop	{fp, pc}
    9c20:	00000000 	andeq	r0, r0, r0
    9c24:	000001e8 	andeq	r0, r0, r8, ror #3
    9c28:	0000c7ec 	andeq	ip, r0, ip, ror #15
    9c2c:	0000f140 	andeq	pc, r0, r0, asr #2
    9c30:	000001e9 	andeq	r0, r0, r9, ror #3
    9c34:	0000c7b6 			; <UNDEFINED> instruction: 0x0000c7b6
    9c38:	0000f140 	andeq	pc, r0, r0, asr #2
    9c3c:	000001ea 	andeq	r0, r0, sl, ror #3
    9c40:	0000c780 	andeq	ip, r0, r0, lsl #15
    9c44:	0000f140 	andeq	pc, r0, r0, asr #2
    9c48:	000001eb 	andeq	r0, r0, fp, ror #3
    9c4c:	0000c74a 	andeq	ip, r0, sl, asr #14
    9c50:	0000f140 	andeq	pc, r0, r0, asr #2
    9c54:	000001ec 	andeq	r0, r0, ip, ror #3
    9c58:	0000c714 	andeq	ip, r0, r4, lsl r7
    9c5c:	0000f140 	andeq	pc, r0, r0, asr #2

00009c60 <configure_gpios>:
    9c60:	e92d4800 	push	{fp, lr}
    9c64:	e1a0b00d 	mov	fp, sp
    9c68:	e24dd030 	sub	sp, sp, #48	; 0x30
    9c6c:	e59f1184 	ldr	r1, [pc, #388]	; 9df8 <configure_gpios+0x198>
    9c70:	e59f0184 	ldr	r0, [pc, #388]	; 9dfc <configure_gpios+0x19c>
    9c74:	e50b0008 	str	r0, [fp, #-8]
    9c78:	e51b0008 	ldr	r0, [fp, #-8]
    9c7c:	ebfffe51 	bl	95c8 <GPIO_direction>
    9c80:	e59f1170 	ldr	r1, [pc, #368]	; 9df8 <configure_gpios+0x198>
    9c84:	e50b0004 	str	r0, [fp, #-4]
    9c88:	e51b0004 	ldr	r0, [fp, #-4]
    9c8c:	e1510000 	cmp	r1, r0
    9c90:	1a00003e 	bne	9d90 <configure_gpios+0x130>
    9c94:	e59f1164 	ldr	r1, [pc, #356]	; 9e00 <configure_gpios+0x1a0>
    9c98:	e59f0164 	ldr	r0, [pc, #356]	; 9e04 <configure_gpios+0x1a4>
    9c9c:	e50b0008 	str	r0, [fp, #-8]
    9ca0:	e51b0008 	ldr	r0, [fp, #-8]
    9ca4:	ebfffe47 	bl	95c8 <GPIO_direction>
    9ca8:	e59f1148 	ldr	r1, [pc, #328]	; 9df8 <configure_gpios+0x198>
    9cac:	e50b0004 	str	r0, [fp, #-4]
    9cb0:	e51b0004 	ldr	r0, [fp, #-4]
    9cb4:	e1510000 	cmp	r1, r0
    9cb8:	1a000033 	bne	9d8c <configure_gpios+0x12c>
    9cbc:	e59f113c 	ldr	r1, [pc, #316]	; 9e00 <configure_gpios+0x1a0>
    9cc0:	e51b0008 	ldr	r0, [fp, #-8]
    9cc4:	ebfffecb 	bl	97f8 <GPIO_write>
    9cc8:	e59f1130 	ldr	r1, [pc, #304]	; 9e00 <configure_gpios+0x1a0>
    9ccc:	e59fe134 	ldr	lr, [pc, #308]	; 9e08 <configure_gpios+0x1a8>
    9cd0:	e50be008 	str	lr, [fp, #-8]
    9cd4:	e51be008 	ldr	lr, [fp, #-8]
    9cd8:	e50b000c 	str	r0, [fp, #-12]
    9cdc:	e1a0000e 	mov	r0, lr
    9ce0:	ebfffe38 	bl	95c8 <GPIO_direction>
    9ce4:	e59f110c 	ldr	r1, [pc, #268]	; 9df8 <configure_gpios+0x198>
    9ce8:	e50b0004 	str	r0, [fp, #-4]
    9cec:	e51b0004 	ldr	r0, [fp, #-4]
    9cf0:	e1510000 	cmp	r1, r0
    9cf4:	1a000023 	bne	9d88 <configure_gpios+0x128>
    9cf8:	e59f1100 	ldr	r1, [pc, #256]	; 9e00 <configure_gpios+0x1a0>
    9cfc:	e51b0008 	ldr	r0, [fp, #-8]
    9d00:	ebfffebc 	bl	97f8 <GPIO_write>
    9d04:	e59f10f4 	ldr	r1, [pc, #244]	; 9e00 <configure_gpios+0x1a0>
    9d08:	e59fe0fc 	ldr	lr, [pc, #252]	; 9e0c <configure_gpios+0x1ac>
    9d0c:	e50be008 	str	lr, [fp, #-8]
    9d10:	e51be008 	ldr	lr, [fp, #-8]
    9d14:	e50b0010 	str	r0, [fp, #-16]
    9d18:	e1a0000e 	mov	r0, lr
    9d1c:	ebfffe29 	bl	95c8 <GPIO_direction>
    9d20:	e59f10d0 	ldr	r1, [pc, #208]	; 9df8 <configure_gpios+0x198>
    9d24:	e50b0004 	str	r0, [fp, #-4]
    9d28:	e51b0004 	ldr	r0, [fp, #-4]
    9d2c:	e1510000 	cmp	r1, r0
    9d30:	1a000013 	bne	9d84 <configure_gpios+0x124>
    9d34:	e59f10c4 	ldr	r1, [pc, #196]	; 9e00 <configure_gpios+0x1a0>
    9d38:	e51b0008 	ldr	r0, [fp, #-8]
    9d3c:	ebfffead 	bl	97f8 <GPIO_write>
    9d40:	e59f10b8 	ldr	r1, [pc, #184]	; 9e00 <configure_gpios+0x1a0>
    9d44:	e59fe0c4 	ldr	lr, [pc, #196]	; 9e10 <configure_gpios+0x1b0>
    9d48:	e50be008 	str	lr, [fp, #-8]
    9d4c:	e51be008 	ldr	lr, [fp, #-8]
    9d50:	e50b0014 	str	r0, [fp, #-20]	; 0xffffffec
    9d54:	e1a0000e 	mov	r0, lr
    9d58:	ebfffe1a 	bl	95c8 <GPIO_direction>
    9d5c:	e59f1094 	ldr	r1, [pc, #148]	; 9df8 <configure_gpios+0x198>
    9d60:	e50b0004 	str	r0, [fp, #-4]
    9d64:	e51b0004 	ldr	r0, [fp, #-4]
    9d68:	e1510000 	cmp	r1, r0
    9d6c:	1a000003 	bne	9d80 <configure_gpios+0x120>
    9d70:	e59f1088 	ldr	r1, [pc, #136]	; 9e00 <configure_gpios+0x1a0>
    9d74:	e51b0008 	ldr	r0, [fp, #-8]
    9d78:	ebfffe9e 	bl	97f8 <GPIO_write>
    9d7c:	e58d0018 	str	r0, [sp, #24]
    9d80:	eaffffff 	b	9d84 <configure_gpios+0x124>
    9d84:	eaffffff 	b	9d88 <configure_gpios+0x128>
    9d88:	eaffffff 	b	9d8c <configure_gpios+0x12c>
    9d8c:	eaffffff 	b	9d90 <configure_gpios+0x130>
    9d90:	e51b0004 	ldr	r0, [fp, #-4]
    9d94:	e3500000 	cmp	r0, #0
    9d98:	0a000013 	beq	9dec <configure_gpios+0x18c>
    9d9c:	e59f0074 	ldr	r0, [pc, #116]	; 9e18 <configure_gpios+0x1b8>
    9da0:	e5900000 	ldr	r0, [r0]
    9da4:	e51b2008 	ldr	r2, [fp, #-8]
    9da8:	e51b3004 	ldr	r3, [fp, #-4]
    9dac:	e51b1004 	ldr	r1, [fp, #-4]
    9db0:	e58d0014 	str	r0, [sp, #20]
    9db4:	e1a00001 	mov	r0, r1
    9db8:	e58d3010 	str	r3, [sp, #16]
    9dbc:	e58d200c 	str	r2, [sp, #12]
    9dc0:	ebfffc83 	bl	8fd4 <strerror@plt>
    9dc4:	e59f1048 	ldr	r1, [pc, #72]	; 9e14 <configure_gpios+0x1b4>
    9dc8:	e59d2014 	ldr	r2, [sp, #20]
    9dcc:	e58d0008 	str	r0, [sp, #8]
    9dd0:	e1a00002 	mov	r0, r2
    9dd4:	e59d200c 	ldr	r2, [sp, #12]
    9dd8:	e59d3010 	ldr	r3, [sp, #16]
    9ddc:	e59de008 	ldr	lr, [sp, #8]
    9de0:	e58de000 	str	lr, [sp]
    9de4:	eb000075 	bl	9fc0 <msg_printf>
    9de8:	e58d0004 	str	r0, [sp, #4]
    9dec:	e51b0004 	ldr	r0, [fp, #-4]
    9df0:	e1a0d00b 	mov	sp, fp
    9df4:	e8bd8800 	pop	{fp, pc}
    9df8:	00000000 	andeq	r0, r0, r0
    9dfc:	000001e8 	andeq	r0, r0, r8, ror #3
    9e00:	00000001 	andeq	r0, r0, r1
    9e04:	000001e9 	andeq	r0, r0, r9, ror #3
    9e08:	000001ea 	andeq	r0, r0, sl, ror #3
    9e0c:	000001eb 	andeq	r0, r0, fp, ror #3
    9e10:	000001ec 	andeq	r0, r0, ip, ror #3
    9e14:	0000c81d 	andeq	ip, r0, sp, lsl r8
    9e18:	0000f140 	andeq	pc, r0, r0, asr #2

00009e1c <unexport_gpios>:
    9e1c:	e92d4800 	push	{fp, lr}
    9e20:	e1a0b00d 	mov	fp, sp
    9e24:	e24dd018 	sub	sp, sp, #24
    9e28:	e59f00dc 	ldr	r0, [pc, #220]	; 9f0c <unexport_gpios+0xf0>
    9e2c:	e59f10dc 	ldr	r1, [pc, #220]	; 9f10 <unexport_gpios+0xf4>
    9e30:	e50b1004 	str	r1, [fp, #-4]
    9e34:	ebfffdb7 	bl	9518 <GPIO_unexport>
    9e38:	e59f10c8 	ldr	r1, [pc, #200]	; 9f08 <unexport_gpios+0xec>
    9e3c:	e51be004 	ldr	lr, [fp, #-4]
    9e40:	e18e0000 	orr	r0, lr, r0
    9e44:	e50b0004 	str	r0, [fp, #-4]
    9e48:	e1a00001 	mov	r0, r1
    9e4c:	ebfffdb1 	bl	9518 <GPIO_unexport>
    9e50:	e59f10ac 	ldr	r1, [pc, #172]	; 9f04 <unexport_gpios+0xe8>
    9e54:	e51be004 	ldr	lr, [fp, #-4]
    9e58:	e18e0000 	orr	r0, lr, r0
    9e5c:	e50b0004 	str	r0, [fp, #-4]
    9e60:	e1a00001 	mov	r0, r1
    9e64:	ebfffdab 	bl	9518 <GPIO_unexport>
    9e68:	e59f1090 	ldr	r1, [pc, #144]	; 9f00 <unexport_gpios+0xe4>
    9e6c:	e51be004 	ldr	lr, [fp, #-4]
    9e70:	e18e0000 	orr	r0, lr, r0
    9e74:	e50b0004 	str	r0, [fp, #-4]
    9e78:	e1a00001 	mov	r0, r1
    9e7c:	ebfffda5 	bl	9518 <GPIO_unexport>
    9e80:	e59f1074 	ldr	r1, [pc, #116]	; 9efc <unexport_gpios+0xe0>
    9e84:	e51be004 	ldr	lr, [fp, #-4]
    9e88:	e18e0000 	orr	r0, lr, r0
    9e8c:	e50b0004 	str	r0, [fp, #-4]
    9e90:	e1a00001 	mov	r0, r1
    9e94:	ebfffd9f 	bl	9518 <GPIO_unexport>
    9e98:	e51b1004 	ldr	r1, [fp, #-4]
    9e9c:	e1810000 	orr	r0, r1, r0
    9ea0:	e50b0004 	str	r0, [fp, #-4]
    9ea4:	e51b0004 	ldr	r0, [fp, #-4]
    9ea8:	e3500000 	cmp	r0, #0
    9eac:	0a00000f 	beq	9ef0 <unexport_gpios+0xd4>
    9eb0:	e59f0060 	ldr	r0, [pc, #96]	; 9f18 <unexport_gpios+0xfc>
    9eb4:	e5900000 	ldr	r0, [r0]
    9eb8:	e51b2004 	ldr	r2, [fp, #-4]
    9ebc:	e51b1004 	ldr	r1, [fp, #-4]
    9ec0:	e50b0008 	str	r0, [fp, #-8]
    9ec4:	e1a00001 	mov	r0, r1
    9ec8:	e58d200c 	str	r2, [sp, #12]
    9ecc:	ebfffc40 	bl	8fd4 <strerror@plt>
    9ed0:	e59f103c 	ldr	r1, [pc, #60]	; 9f14 <unexport_gpios+0xf8>
    9ed4:	e51b2008 	ldr	r2, [fp, #-8]
    9ed8:	e58d0008 	str	r0, [sp, #8]
    9edc:	e1a00002 	mov	r0, r2
    9ee0:	e59d200c 	ldr	r2, [sp, #12]
    9ee4:	e59d3008 	ldr	r3, [sp, #8]
    9ee8:	eb000034 	bl	9fc0 <msg_printf>
    9eec:	e58d0004 	str	r0, [sp, #4]
    9ef0:	e51b0004 	ldr	r0, [fp, #-4]
    9ef4:	e1a0d00b 	mov	sp, fp
    9ef8:	e8bd8800 	pop	{fp, pc}
    9efc:	000001ec 	andeq	r0, r0, ip, ror #3
    9f00:	000001eb 	andeq	r0, r0, fp, ror #3
    9f04:	000001ea 	andeq	r0, r0, sl, ror #3
    9f08:	000001e9 	andeq	r0, r0, r9, ror #3
    9f0c:	000001e8 	andeq	r0, r0, r8, ror #3
    9f10:	00000000 	andeq	r0, r0, r0
    9f14:	0000c852 	andeq	ip, r0, r2, asr r8
    9f18:	0000f140 	andeq	pc, r0, r0, asr #2

00009f1c <get_localtime_str>:
    9f1c:	e92d4800 	push	{fp, lr}
    9f20:	e1a0b00d 	mov	fp, sp
    9f24:	e24dd010 	sub	sp, sp, #16
    9f28:	e59f2088 	ldr	r2, [pc, #136]	; 9fb8 <get_localtime_str+0x9c>
    9f2c:	e50b0004 	str	r0, [fp, #-4]
    9f30:	e58d1008 	str	r1, [sp, #8]
    9f34:	e1a00002 	mov	r0, r2
    9f38:	ebfffc49 	bl	9064 <time@plt>
    9f3c:	e58d0004 	str	r0, [sp, #4]
    9f40:	e59d0004 	ldr	r0, [sp, #4]
    9f44:	e3700001 	cmn	r0, #1
    9f48:	0a000011 	beq	9f94 <get_localtime_str+0x78>
    9f4c:	e28d0004 	add	r0, sp, #4
    9f50:	ebfffc46 	bl	9070 <localtime@plt>
    9f54:	e59f2060 	ldr	r2, [pc, #96]	; 9fbc <get_localtime_str+0xa0>
    9f58:	e58d0000 	str	r0, [sp]
    9f5c:	e51b0004 	ldr	r0, [fp, #-4]
    9f60:	e59d1008 	ldr	r1, [sp, #8]
    9f64:	e59d3000 	ldr	r3, [sp]
    9f68:	ebfffc43 	bl	907c <strftime@plt>
    9f6c:	e3500000 	cmp	r0, #0
    9f70:	1a000006 	bne	9f90 <get_localtime_str+0x74>
    9f74:	e59d0008 	ldr	r0, [sp, #8]
    9f78:	e3500000 	cmp	r0, #0
    9f7c:	9a000002 	bls	9f8c <get_localtime_str+0x70>
    9f80:	e51b0004 	ldr	r0, [fp, #-4]
    9f84:	e3a01000 	mov	r1, #0
    9f88:	e5c01000 	strb	r1, [r0]
    9f8c:	eaffffff 	b	9f90 <get_localtime_str+0x74>
    9f90:	ea000006 	b	9fb0 <get_localtime_str+0x94>
    9f94:	e59d0008 	ldr	r0, [sp, #8]
    9f98:	e3500000 	cmp	r0, #0
    9f9c:	9a000002 	bls	9fac <get_localtime_str+0x90>
    9fa0:	e51b0004 	ldr	r0, [fp, #-4]
    9fa4:	e3a01000 	mov	r1, #0
    9fa8:	e5c01000 	strb	r1, [r0]
    9fac:	eaffffff 	b	9fb0 <get_localtime_str+0x94>
    9fb0:	e1a0d00b 	mov	sp, fp
    9fb4:	e8bd8800 	pop	{fp, pc}
    9fb8:	00000000 	andeq	r0, r0, r0
    9fbc:	0000c87c 	andeq	ip, r0, ip, ror r8

00009fc0 <msg_printf>:
    9fc0:	e24dd008 	sub	sp, sp, #8
    9fc4:	e92d4800 	push	{fp, lr}
    9fc8:	e1a0b00d 	mov	fp, sp
    9fcc:	e24dd038 	sub	sp, sp, #56	; 0x38
    9fd0:	e58b300c 	str	r3, [fp, #12]
    9fd4:	e58b2008 	str	r2, [fp, #8]
    9fd8:	e59f20f8 	ldr	r2, [pc, #248]	; a0d8 <msg_printf+0x118>
    9fdc:	e50b0004 	str	r0, [fp, #-4]
    9fe0:	e50b1008 	str	r1, [fp, #-8]
    9fe4:	e5920000 	ldr	r0, [r2]
    9fe8:	e3500000 	cmp	r0, #0
    9fec:	1a000003 	bne	a000 <msg_printf+0x40>
    9ff0:	e59f00e4 	ldr	r0, [pc, #228]	; a0dc <msg_printf+0x11c>
    9ff4:	e51b1004 	ldr	r1, [fp, #-4]
    9ff8:	e1510000 	cmp	r1, r0
    9ffc:	0a00002e 	beq	a0bc <msg_printf+0xfc>
    a000:	e59f10dc 	ldr	r1, [pc, #220]	; a0e4 <msg_printf+0x124>
    a004:	e28d000c 	add	r0, sp, #12
    a008:	e59f20cc 	ldr	r2, [pc, #204]	; a0dc <msg_printf+0x11c>
    a00c:	e50b2010 	str	r2, [fp, #-16]
    a010:	e50b2014 	str	r2, [fp, #-20]	; 0xffffffec
    a014:	ebffffc0 	bl	9f1c <get_localtime_str>
    a018:	e59f00c0 	ldr	r0, [pc, #192]	; a0e0 <msg_printf+0x120>
    a01c:	e24b1018 	sub	r1, fp, #24
    a020:	e28b2008 	add	r2, fp, #8
    a024:	e5812000 	str	r2, [r1]
    a028:	e5900000 	ldr	r0, [r0]
    a02c:	e3500000 	cmp	r0, #0
    a030:	0a000003 	beq	a044 <msg_printf+0x84>
    a034:	e51b0008 	ldr	r0, [fp, #-8]
    a038:	e51b1018 	ldr	r1, [fp, #-24]	; 0xffffffe8
    a03c:	ebfffc11 	bl	9088 <vprintf@plt>
    a040:	e50b0010 	str	r0, [fp, #-16]
    a044:	e59f0090 	ldr	r0, [pc, #144]	; a0dc <msg_printf+0x11c>
    a048:	e51b1004 	ldr	r1, [fp, #-4]
    a04c:	e1510000 	cmp	r1, r0
    a050:	0a00000c 	beq	a088 <msg_printf+0xc8>
    a054:	e51b0004 	ldr	r0, [fp, #-4]
    a058:	e59f1088 	ldr	r1, [pc, #136]	; a0e8 <msg_printf+0x128>
    a05c:	e28d200c 	add	r2, sp, #12
    a060:	ebfffc0b 	bl	9094 <fprintf@plt>
    a064:	e51b1004 	ldr	r1, [fp, #-4]
    a068:	e51b2008 	ldr	r2, [fp, #-8]
    a06c:	e51be018 	ldr	lr, [fp, #-24]	; 0xffffffe8
    a070:	e58d0008 	str	r0, [sp, #8]
    a074:	e1a00001 	mov	r0, r1
    a078:	e1a01002 	mov	r1, r2
    a07c:	e1a0200e 	mov	r2, lr
    a080:	ebfffc06 	bl	90a0 <vfprintf@plt>
    a084:	e50b0014 	str	r0, [fp, #-20]	; 0xffffffec
    a088:	e24b0018 	sub	r0, fp, #24
    a08c:	e51b1010 	ldr	r1, [fp, #-16]
    a090:	e3510000 	cmp	r1, #0
    a094:	e58d0004 	str	r0, [sp, #4]
    a098:	0a000002 	beq	a0a8 <msg_printf+0xe8>
    a09c:	e51b0010 	ldr	r0, [fp, #-16]
    a0a0:	e58d0000 	str	r0, [sp]
    a0a4:	ea000001 	b	a0b0 <msg_printf+0xf0>
    a0a8:	e51b0014 	ldr	r0, [fp, #-20]	; 0xffffffec
    a0ac:	e58d0000 	str	r0, [sp]
    a0b0:	e59d0000 	ldr	r0, [sp]
    a0b4:	e50b000c 	str	r0, [fp, #-12]
    a0b8:	ea000001 	b	a0c4 <msg_printf+0x104>
    a0bc:	e59f0018 	ldr	r0, [pc, #24]	; a0dc <msg_printf+0x11c>
    a0c0:	e50b000c 	str	r0, [fp, #-12]
    a0c4:	e51b000c 	ldr	r0, [fp, #-12]
    a0c8:	e1a0d00b 	mov	sp, fp
    a0cc:	e8bd4800 	pop	{fp, lr}
    a0d0:	e28dd008 	add	sp, sp, #8
    a0d4:	e12fff1e 	bx	lr
    a0d8:	0000f008 	andeq	pc, r0, r8
    a0dc:	00000000 	andeq	r0, r0, r0
    a0e0:	0000f008 	andeq	pc, r0, r8
    a0e4:	00000014 	andeq	r0, r0, r4, lsl r0
    a0e8:	0000c88e 	andeq	ip, r0, lr, lsl #17

0000a0ec <open_msg_file>:
    a0ec:	e92d4800 	push	{fp, lr}
    a0f0:	e1a0b00d 	mov	fp, sp
    a0f4:	e24dd058 	sub	sp, sp, #88	; 0x58
    a0f8:	e59f21d4 	ldr	r2, [pc, #468]	; a2d4 <open_msg_file+0x1e8>
    a0fc:	e50b0004 	str	r0, [fp, #-4]
    a100:	e50b1008 	str	r1, [fp, #-8]
    a104:	e51b0004 	ldr	r0, [fp, #-4]
    a108:	e1a01002 	mov	r1, r2
    a10c:	ebfffbe6 	bl	90ac <fopen@plt>
    a110:	e59f11b8 	ldr	r1, [pc, #440]	; a2d0 <open_msg_file+0x1e4>
    a114:	e50b000c 	str	r0, [fp, #-12]
    a118:	e51b000c 	ldr	r0, [fp, #-12]
    a11c:	e1500001 	cmp	r0, r1
    a120:	0a000067 	beq	a2c4 <open_msg_file+0x1d8>
    a124:	e51b000c 	ldr	r0, [fp, #-12]
    a128:	ebfffbe2 	bl	90b8 <fileno@plt>
    a12c:	e59f11a8 	ldr	r1, [pc, #424]	; a2dc <open_msg_file+0x1f0>
    a130:	ebfffbe3 	bl	90c4 <flock@plt>
    a134:	e59f1194 	ldr	r1, [pc, #404]	; a2d0 <open_msg_file+0x1e4>
    a138:	e51be00c 	ldr	lr, [fp, #-12]
    a13c:	e58d0028 	str	r0, [sp, #40]	; 0x28
    a140:	e1a0000e 	mov	r0, lr
    a144:	ebfffbe1 	bl	90d0 <setbuf@plt>
    a148:	e59f1180 	ldr	r1, [pc, #384]	; a2d0 <open_msg_file+0x1e4>
    a14c:	e59f2184 	ldr	r2, [pc, #388]	; a2d8 <open_msg_file+0x1ec>
    a150:	e51b000c 	ldr	r0, [fp, #-12]
    a154:	ebfffbe0 	bl	90dc <fseek@plt>
    a158:	e51b100c 	ldr	r1, [fp, #-12]
    a15c:	e58d0024 	str	r0, [sp, #36]	; 0x24
    a160:	e1a00001 	mov	r0, r1
    a164:	ebfffbdf 	bl	90e8 <ftell@plt>
    a168:	e50b0010 	str	r0, [fp, #-16]
    a16c:	e51b0010 	ldr	r0, [fp, #-16]
    a170:	e51b1008 	ldr	r1, [fp, #-8]
    a174:	e1500001 	cmp	r0, r1
    a178:	da00003e 	ble	a278 <open_msg_file+0x18c>
    a17c:	e59f014c 	ldr	r0, [pc, #332]	; a2d0 <open_msg_file+0x1e4>
    a180:	e51b1008 	ldr	r1, [fp, #-8]
    a184:	e1a02001 	mov	r2, r1
    a188:	e58d0020 	str	r0, [sp, #32]
    a18c:	e1a00001 	mov	r0, r1
    a190:	e58d201c 	str	r2, [sp, #28]
    a194:	ebfffbd6 	bl	90f4 <malloc@plt>
    a198:	e59f1130 	ldr	r1, [pc, #304]	; a2d0 <open_msg_file+0x1e4>
    a19c:	e58d002c 	str	r0, [sp, #44]	; 0x2c
    a1a0:	e59d002c 	ldr	r0, [sp, #44]	; 0x2c
    a1a4:	e1500001 	cmp	r0, r1
    a1a8:	0a000031 	beq	a274 <open_msg_file+0x188>
    a1ac:	e59f2124 	ldr	r2, [pc, #292]	; a2d8 <open_msg_file+0x1ec>
    a1b0:	e59f0118 	ldr	r0, [pc, #280]	; a2d0 <open_msg_file+0x1e4>
    a1b4:	e51b100c 	ldr	r1, [fp, #-12]
    a1b8:	e51b3008 	ldr	r3, [fp, #-8]
    a1bc:	e0400003 	sub	r0, r0, r3
    a1c0:	e58d0018 	str	r0, [sp, #24]
    a1c4:	e1a00001 	mov	r0, r1
    a1c8:	e59d1018 	ldr	r1, [sp, #24]
    a1cc:	ebfffbc2 	bl	90dc <fseek@plt>
    a1d0:	e59f110c 	ldr	r1, [pc, #268]	; a2e4 <open_msg_file+0x1f8>
    a1d4:	e59d202c 	ldr	r2, [sp, #44]	; 0x2c
    a1d8:	e51b3008 	ldr	r3, [fp, #-8]
    a1dc:	e51be00c 	ldr	lr, [fp, #-12]
    a1e0:	e58d0014 	str	r0, [sp, #20]
    a1e4:	e1a00002 	mov	r0, r2
    a1e8:	e1a02003 	mov	r2, r3
    a1ec:	e1a0300e 	mov	r3, lr
    a1f0:	ebfffbc2 	bl	9100 <fread@plt>
    a1f4:	e50b0014 	str	r0, [fp, #-20]	; 0xffffffec
    a1f8:	e51b000c 	ldr	r0, [fp, #-12]
    a1fc:	ebfffbc2 	bl	910c <fclose@plt>
    a200:	e59d102c 	ldr	r1, [sp, #44]	; 0x2c
    a204:	e58d0010 	str	r0, [sp, #16]
    a208:	e1a00001 	mov	r0, r1
    a20c:	ebfffbc1 	bl	9118 <free@plt>
    a210:	e59f10c8 	ldr	r1, [pc, #200]	; a2e0 <open_msg_file+0x1f4>
    a214:	e51b0004 	ldr	r0, [fp, #-4]
    a218:	ebfffba3 	bl	90ac <fopen@plt>
    a21c:	e59f10ac 	ldr	r1, [pc, #172]	; a2d0 <open_msg_file+0x1e4>
    a220:	e50b000c 	str	r0, [fp, #-12]
    a224:	e51b000c 	ldr	r0, [fp, #-12]
    a228:	e1500001 	cmp	r0, r1
    a22c:	0a00000f 	beq	a270 <open_msg_file+0x184>
    a230:	e59f10b4 	ldr	r1, [pc, #180]	; a2ec <open_msg_file+0x200>
    a234:	e24b0028 	sub	r0, fp, #40	; 0x28
    a238:	ebffff37 	bl	9f1c <get_localtime_str>
    a23c:	e59f10a4 	ldr	r1, [pc, #164]	; a2e8 <open_msg_file+0x1fc>
    a240:	e24b2028 	sub	r2, fp, #40	; 0x28
    a244:	e51b000c 	ldr	r0, [fp, #-12]
    a248:	ebfffb91 	bl	9094 <fprintf@plt>
    a24c:	e59f1090 	ldr	r1, [pc, #144]	; a2e4 <open_msg_file+0x1f8>
    a250:	e59d202c 	ldr	r2, [sp, #44]	; 0x2c
    a254:	e51be014 	ldr	lr, [fp, #-20]	; 0xffffffec
    a258:	e51b300c 	ldr	r3, [fp, #-12]
    a25c:	e58d000c 	str	r0, [sp, #12]
    a260:	e1a00002 	mov	r0, r2
    a264:	e1a0200e 	mov	r2, lr
    a268:	ebfffbad 	bl	9124 <fwrite@plt>
    a26c:	e58d0008 	str	r0, [sp, #8]
    a270:	eaffffff 	b	a274 <open_msg_file+0x188>
    a274:	eaffffff 	b	a278 <open_msg_file+0x18c>
    a278:	e59f0050 	ldr	r0, [pc, #80]	; a2d0 <open_msg_file+0x1e4>
    a27c:	e51b100c 	ldr	r1, [fp, #-12]
    a280:	e1510000 	cmp	r1, r0
    a284:	0a00000d 	beq	a2c0 <open_msg_file+0x1d4>
    a288:	e59f105c 	ldr	r1, [pc, #92]	; a2ec <open_msg_file+0x200>
    a28c:	e24b0028 	sub	r0, fp, #40	; 0x28
    a290:	ebffff21 	bl	9f1c <get_localtime_str>
    a294:	e59f1058 	ldr	r1, [pc, #88]	; a2f4 <open_msg_file+0x208>
    a298:	e24b2028 	sub	r2, fp, #40	; 0x28
    a29c:	e51b000c 	ldr	r0, [fp, #-12]
    a2a0:	ebfffb7b 	bl	9094 <fprintf@plt>
    a2a4:	e59f1044 	ldr	r1, [pc, #68]	; a2f0 <open_msg_file+0x204>
    a2a8:	e24b2028 	sub	r2, fp, #40	; 0x28
    a2ac:	e51be00c 	ldr	lr, [fp, #-12]
    a2b0:	e58d0004 	str	r0, [sp, #4]
    a2b4:	e1a0000e 	mov	r0, lr
    a2b8:	ebfffb75 	bl	9094 <fprintf@plt>
    a2bc:	e58d0000 	str	r0, [sp]
    a2c0:	eaffffff 	b	a2c4 <open_msg_file+0x1d8>
    a2c4:	e51b000c 	ldr	r0, [fp, #-12]
    a2c8:	e1a0d00b 	mov	sp, fp
    a2cc:	e8bd8800 	pop	{fp, pc}
    a2d0:	00000000 	andeq	r0, r0, r0
    a2d4:	0000c894 	muleq	r0, r4, r8
    a2d8:	00000002 	andeq	r0, r0, r2
    a2dc:	00000008 	andeq	r0, r0, r8
    a2e0:	0000c898 	muleq	r0, r8, r8
    a2e4:	00000001 	andeq	r0, r0, r1
    a2e8:	0000c89b 	muleq	r0, fp, r8
    a2ec:	00000014 	andeq	r0, r0, r4, lsl r0
    a2f0:	0000c8fa 	strdeq	ip, [r0], -sl
    a2f4:	0000c8ba 			; <UNDEFINED> instruction: 0x0000c8ba

0000a2f8 <close_log_file>:
    a2f8:	e92d4800 	push	{fp, lr}
    a2fc:	e1a0b00d 	mov	fp, sp
    a300:	e24dd020 	sub	sp, sp, #32
    a304:	e59f1044 	ldr	r1, [pc, #68]	; a350 <close_log_file+0x58>
    a308:	e50b0004 	str	r0, [fp, #-4]
    a30c:	e51b0004 	ldr	r0, [fp, #-4]
    a310:	e1500001 	cmp	r0, r1
    a314:	0a00000b 	beq	a348 <close_log_file+0x50>
    a318:	e59f1038 	ldr	r1, [pc, #56]	; a358 <close_log_file+0x60>
    a31c:	e28d0008 	add	r0, sp, #8
    a320:	ebfffefd 	bl	9f1c <get_localtime_str>
    a324:	e59f1028 	ldr	r1, [pc, #40]	; a354 <close_log_file+0x5c>
    a328:	e28d2008 	add	r2, sp, #8
    a32c:	e51b0004 	ldr	r0, [fp, #-4]
    a330:	ebfffb57 	bl	9094 <fprintf@plt>
    a334:	e51b1004 	ldr	r1, [fp, #-4]
    a338:	e58d0004 	str	r0, [sp, #4]
    a33c:	e1a00001 	mov	r0, r1
    a340:	ebfffb71 	bl	910c <fclose@plt>
    a344:	e58d0000 	str	r0, [sp]
    a348:	e1a0d00b 	mov	sp, fp
    a34c:	e8bd8800 	pop	{fp, pc}
    a350:	00000000 	andeq	r0, r0, r0
    a354:	0000c916 	andeq	ip, r0, r6, lsl r9
    a358:	00000014 	andeq	r0, r0, r4, lsl r0

0000a35c <open_log_files>:
    a35c:	e92d4800 	push	{fp, lr}
    a360:	e1a0b00d 	mov	fp, sp
    a364:	e24dd010 	sub	sp, sp, #16
    a368:	e59f0074 	ldr	r0, [pc, #116]	; a3e4 <open_log_files+0x88>
    a36c:	e3a01632 	mov	r1, #52428800	; 0x3200000
    a370:	e50b1004 	str	r1, [fp, #-4]
    a374:	ebffff5c 	bl	a0ec <open_msg_file>
    a378:	e59f1068 	ldr	r1, [pc, #104]	; a3e8 <open_log_files+0x8c>
    a37c:	e5810000 	str	r0, [r1]
    a380:	e59f0064 	ldr	r0, [pc, #100]	; a3ec <open_log_files+0x90>
    a384:	e51be004 	ldr	lr, [fp, #-4]
    a388:	e58d1008 	str	r1, [sp, #8]
    a38c:	e1a0100e 	mov	r1, lr
    a390:	ebffff55 	bl	a0ec <open_msg_file>
    a394:	e59f1054 	ldr	r1, [pc, #84]	; a3f0 <open_log_files+0x94>
    a398:	e5810000 	str	r0, [r1]
    a39c:	e59d0008 	ldr	r0, [sp, #8]
    a3a0:	e5901000 	ldr	r1, [r0]
    a3a4:	e3a0e001 	mov	lr, #1
    a3a8:	e3510000 	cmp	r1, #0
    a3ac:	e58de004 	str	lr, [sp, #4]
    a3b0:	0a000007 	beq	a3d4 <open_log_files+0x78>
    a3b4:	eaffffff 	b	a3b8 <open_log_files+0x5c>
    a3b8:	e59f0034 	ldr	r0, [pc, #52]	; a3f4 <open_log_files+0x98>
    a3bc:	e59f1034 	ldr	r1, [pc, #52]	; a3f8 <open_log_files+0x9c>
    a3c0:	e5911000 	ldr	r1, [r1]
    a3c4:	e1510000 	cmp	r1, r0
    a3c8:	e59f0024 	ldr	r0, [pc, #36]	; a3f4 <open_log_files+0x98>
    a3cc:	03a00001 	moveq	r0, #1
    a3d0:	e58d0004 	str	r0, [sp, #4]
    a3d4:	e59d0004 	ldr	r0, [sp, #4]
    a3d8:	e2000001 	and	r0, r0, #1
    a3dc:	e1a0d00b 	mov	sp, fp
    a3e0:	e8bd8800 	pop	{fp, pc}
    a3e4:	0000c936 	andeq	ip, r0, r6, lsr r9
    a3e8:	0000f140 	andeq	pc, r0, r0, asr #2
    a3ec:	0000c953 	andeq	ip, r0, r3, asr r9
    a3f0:	0000f144 	andeq	pc, r0, r4, asr #2
    a3f4:	00000000 	andeq	r0, r0, r0
    a3f8:	0000f144 	andeq	pc, r0, r4, asr #2

0000a3fc <close_log_files>:
    a3fc:	e92d4800 	push	{fp, lr}
    a400:	e1a0b00d 	mov	fp, sp
    a404:	e59f0018 	ldr	r0, [pc, #24]	; a424 <close_log_files+0x28>
    a408:	e5900000 	ldr	r0, [r0]
    a40c:	ebffffb9 	bl	a2f8 <close_log_file>
    a410:	e59f0008 	ldr	r0, [pc, #8]	; a420 <close_log_files+0x24>
    a414:	e5900000 	ldr	r0, [r0]
    a418:	ebffffb6 	bl	a2f8 <close_log_file>
    a41c:	e8bd8800 	pop	{fp, pc}
    a420:	0000f140 	andeq	pc, r0, r0, asr #2
    a424:	0000f144 	andeq	pc, r0, r4, asr #2

0000a428 <get_current_exec_path>:
    a428:	e92d4830 	push	{r4, r5, fp, lr}
    a42c:	e28db008 	add	fp, sp, #8
    a430:	e24dd028 	sub	sp, sp, #40	; 0x28
    a434:	e24dda01 	sub	sp, sp, #4096	; 0x1000
    a438:	e50b000c 	str	r0, [fp, #-12]
    a43c:	e50b1010 	str	r1, [fp, #-16]
    a440:	e51b0010 	ldr	r0, [fp, #-16]
    a444:	e3500000 	cmp	r0, #0
    a448:	9a000033 	bls	a51c <get_current_exec_path+0xf4>
    a44c:	e59f00e0 	ldr	r0, [pc, #224]	; a534 <get_current_exec_path+0x10c>
    a450:	e59f20e0 	ldr	r2, [pc, #224]	; a538 <get_current_exec_path+0x110>
    a454:	e28d101b 	add	r1, sp, #27
    a458:	ebfffb34 	bl	9130 <readlink@plt>
    a45c:	e58d0014 	str	r0, [sp, #20]
    a460:	e59d0014 	ldr	r0, [sp, #20]
    a464:	e3700001 	cmn	r0, #1
    a468:	0a000024 	beq	a500 <get_current_exec_path+0xd8>
    a46c:	e28d001b 	add	r0, sp, #27
    a470:	e59d1014 	ldr	r1, [sp, #20]
    a474:	e28d201b 	add	r2, sp, #27
    a478:	e3a03000 	mov	r3, #0
    a47c:	e7c23001 	strb	r3, [r2, r1]
    a480:	ebfffb2d 	bl	913c <dirname@plt>
    a484:	e58d0010 	str	r0, [sp, #16]
    a488:	e51b0010 	ldr	r0, [fp, #-16]
    a48c:	e59d1010 	ldr	r1, [sp, #16]
    a490:	e58d000c 	str	r0, [sp, #12]
    a494:	e1a00001 	mov	r0, r1
    a498:	ebfffae8 	bl	9040 <strlen@plt>
    a49c:	e2800001 	add	r0, r0, #1
    a4a0:	e59d100c 	ldr	r1, [sp, #12]
    a4a4:	e1510000 	cmp	r1, r0
    a4a8:	9a00000e 	bls	a4e8 <get_current_exec_path+0xc0>
    a4ac:	e59f108c 	ldr	r1, [pc, #140]	; a540 <get_current_exec_path+0x118>
    a4b0:	e51b000c 	ldr	r0, [fp, #-12]
    a4b4:	e59d2010 	ldr	r2, [sp, #16]
    a4b8:	e58d1008 	str	r1, [sp, #8]
    a4bc:	e1a01002 	mov	r1, r2
    a4c0:	ebfffac0 	bl	8fc8 <strcpy@plt>
    a4c4:	e51b100c 	ldr	r1, [fp, #-12]
    a4c8:	e58d0004 	str	r0, [sp, #4]
    a4cc:	e1a00001 	mov	r0, r1
    a4d0:	e59d1008 	ldr	r1, [sp, #8]
    a4d4:	ebfffb1b 	bl	9148 <strcat@plt>
    a4d8:	e59f105c 	ldr	r1, [pc, #92]	; a53c <get_current_exec_path+0x114>
    a4dc:	e50b1014 	str	r1, [fp, #-20]	; 0xffffffec
    a4e0:	e58d0000 	str	r0, [sp]
    a4e4:	ea000004 	b	a4fc <get_current_exec_path+0xd4>
    a4e8:	e59f0040 	ldr	r0, [pc, #64]	; a530 <get_current_exec_path+0x108>
    a4ec:	e51b100c 	ldr	r1, [fp, #-12]
    a4f0:	e3a02000 	mov	r2, #0
    a4f4:	e5c12000 	strb	r2, [r1]
    a4f8:	e50b0014 	str	r0, [fp, #-20]	; 0xffffffec
    a4fc:	ea000005 	b	a518 <get_current_exec_path+0xf0>
    a500:	e51b000c 	ldr	r0, [fp, #-12]
    a504:	e3a01000 	mov	r1, #0
    a508:	e5c01000 	strb	r1, [r0]
    a50c:	ebfffa9b 	bl	8f80 <__errno_location@plt>
    a510:	e5900000 	ldr	r0, [r0]
    a514:	e50b0014 	str	r0, [fp, #-20]	; 0xffffffec
    a518:	ea000001 	b	a524 <get_current_exec_path+0xfc>
    a51c:	e59f000c 	ldr	r0, [pc, #12]	; a530 <get_current_exec_path+0x108>
    a520:	e50b0014 	str	r0, [fp, #-20]	; 0xffffffec
    a524:	e51b0014 	ldr	r0, [fp, #-20]	; 0xffffffec
    a528:	e24bd008 	sub	sp, fp, #8
    a52c:	e8bd8830 	pop	{r4, r5, fp, pc}
    a530:	00000016 	andeq	r0, r0, r6, lsl r0
    a534:	0000c970 	andeq	ip, r0, r0, ror r9
    a538:	00001000 	andeq	r1, r0, r0
    a53c:	00000000 	andeq	r0, r0, r0
    a540:	0000c97f 	andeq	ip, r0, pc, ror r9

0000a544 <kill_processes>:
    a544:	e92d4800 	push	{fp, lr}
    a548:	e1a0b00d 	mov	fp, sp
    a54c:	e24dd018 	sub	sp, sp, #24
    a550:	e59f207c 	ldr	r2, [pc, #124]	; a5d4 <kill_processes+0x90>
    a554:	e50b0004 	str	r0, [fp, #-4]
    a558:	e50b1008 	str	r1, [fp, #-8]
    a55c:	e58d200c 	str	r2, [sp, #12]
    a560:	e59d000c 	ldr	r0, [sp, #12]
    a564:	e51b1008 	ldr	r1, [fp, #-8]
    a568:	e1500001 	cmp	r0, r1
    a56c:	2a000016 	bcs	a5cc <kill_processes+0x88>
    a570:	e59f0060 	ldr	r0, [pc, #96]	; a5d8 <kill_processes+0x94>
    a574:	e51b1004 	ldr	r1, [fp, #-4]
    a578:	e59d200c 	ldr	r2, [sp, #12]
    a57c:	e0811102 	add	r1, r1, r2, lsl #2
    a580:	e5911000 	ldr	r1, [r1]
    a584:	e3710001 	cmn	r1, #1
    a588:	e58d0008 	str	r0, [sp, #8]
    a58c:	0a000009 	beq	a5b8 <kill_processes+0x74>
    a590:	e59f1044 	ldr	r1, [pc, #68]	; a5dc <kill_processes+0x98>
    a594:	e59f003c 	ldr	r0, [pc, #60]	; a5d8 <kill_processes+0x94>
    a598:	e51b2004 	ldr	r2, [fp, #-4]
    a59c:	e59d300c 	ldr	r3, [sp, #12]
    a5a0:	e0822103 	add	r2, r2, r3, lsl #2
    a5a4:	e5922000 	ldr	r2, [r2]
    a5a8:	e58d0004 	str	r0, [sp, #4]
    a5ac:	e1a00002 	mov	r0, r2
    a5b0:	ebfffae7 	bl	9154 <kill@plt>
    a5b4:	e58d0000 	str	r0, [sp]
    a5b8:	eaffffff 	b	a5bc <kill_processes+0x78>
    a5bc:	e59d000c 	ldr	r0, [sp, #12]
    a5c0:	e2800001 	add	r0, r0, #1
    a5c4:	e58d000c 	str	r0, [sp, #12]
    a5c8:	eaffffe4 	b	a560 <kill_processes+0x1c>
    a5cc:	e1a0d00b 	mov	sp, fp
    a5d0:	e8bd8800 	pop	{fp, pc}
    a5d4:	00000000 	andeq	r0, r0, r0
    a5d8:	00000002 	andeq	r0, r0, r2
    a5dc:	0000000f 	andeq	r0, r0, pc

0000a5e0 <wait_processes>:
    a5e0:	e92d4800 	push	{fp, lr}
    a5e4:	e1a0b00d 	mov	fp, sp
    a5e8:	e24dd048 	sub	sp, sp, #72	; 0x48
    a5ec:	e59f3180 	ldr	r3, [pc, #384]	; a774 <wait_processes+0x194>
    a5f0:	e50b0004 	str	r0, [fp, #-4]
    a5f4:	e50b1008 	str	r1, [fp, #-8]
    a5f8:	e50b200c 	str	r2, [fp, #-12]
    a5fc:	e50b3010 	str	r3, [fp, #-16]
    a600:	e59f016c 	ldr	r0, [pc, #364]	; a774 <wait_processes+0x194>
    a604:	e50b0014 	str	r0, [fp, #-20]	; 0xffffffec
    a608:	e51b000c 	ldr	r0, [fp, #-12]
    a60c:	ebfffad3 	bl	9160 <alarm@plt>
    a610:	e59fe15c 	ldr	lr, [pc, #348]	; a774 <wait_processes+0x194>
    a614:	e50b0020 	str	r0, [fp, #-32]	; 0xffffffe0
    a618:	e1a0000e 	mov	r0, lr
    a61c:	e1a0100e 	mov	r1, lr
    a620:	e1a0200e 	mov	r2, lr
    a624:	ebfffad0 	bl	916c <waitpid@plt>
    a628:	e50b0018 	str	r0, [fp, #-24]	; 0xffffffe8
    a62c:	e51b0018 	ldr	r0, [fp, #-24]	; 0xffffffe8
    a630:	e3700001 	cmn	r0, #1
    a634:	0a000033 	beq	a708 <wait_processes+0x128>
    a638:	e59f0134 	ldr	r0, [pc, #308]	; a774 <wait_processes+0x194>
    a63c:	e50b001c 	str	r0, [fp, #-28]	; 0xffffffe4
    a640:	e51b001c 	ldr	r0, [fp, #-28]	; 0xffffffe4
    a644:	e51b1008 	ldr	r1, [fp, #-8]
    a648:	e1500001 	cmp	r0, r1
    a64c:	2a00002c 	bcs	a704 <wait_processes+0x124>
    a650:	e59f0128 	ldr	r0, [pc, #296]	; a780 <wait_processes+0x1a0>
    a654:	e51b1004 	ldr	r1, [fp, #-4]
    a658:	e51b201c 	ldr	r2, [fp, #-28]	; 0xffffffe4
    a65c:	e0811102 	add	r1, r1, r2, lsl #2
    a660:	e5911000 	ldr	r1, [r1]
    a664:	e3710001 	cmn	r1, #1
    a668:	e58d0024 	str	r0, [sp, #36]	; 0x24
    a66c:	0a00001f 	beq	a6f0 <wait_processes+0x110>
    a670:	e59f0108 	ldr	r0, [pc, #264]	; a780 <wait_processes+0x1a0>
    a674:	e51b1004 	ldr	r1, [fp, #-4]
    a678:	e51b201c 	ldr	r2, [fp, #-28]	; 0xffffffe4
    a67c:	e0811102 	add	r1, r1, r2, lsl #2
    a680:	e5911000 	ldr	r1, [r1]
    a684:	e51b2018 	ldr	r2, [fp, #-24]	; 0xffffffe8
    a688:	e1510002 	cmp	r1, r2
    a68c:	e58d0020 	str	r0, [sp, #32]
    a690:	1a000012 	bne	a6e0 <wait_processes+0x100>
    a694:	e59f00e8 	ldr	r0, [pc, #232]	; a784 <wait_processes+0x1a4>
    a698:	e59f10e0 	ldr	r1, [pc, #224]	; a780 <wait_processes+0x1a0>
    a69c:	e59f20e4 	ldr	r2, [pc, #228]	; a788 <wait_processes+0x1a8>
    a6a0:	e5922000 	ldr	r2, [r2]
    a6a4:	e51b3018 	ldr	r3, [fp, #-24]	; 0xffffffe8
    a6a8:	e59fc0dc 	ldr	ip, [pc, #220]	; a78c <wait_processes+0x1ac>
    a6ac:	e58d001c 	str	r0, [sp, #28]
    a6b0:	e1a00002 	mov	r0, r2
    a6b4:	e58d1018 	str	r1, [sp, #24]
    a6b8:	e1a0100c 	mov	r1, ip
    a6bc:	e1a02003 	mov	r2, r3
    a6c0:	ebfffe3e 	bl	9fc0 <msg_printf>
    a6c4:	e51b1004 	ldr	r1, [fp, #-4]
    a6c8:	e51b201c 	ldr	r2, [fp, #-28]	; 0xffffffe4
    a6cc:	e0811102 	add	r1, r1, r2, lsl #2
    a6d0:	e59d201c 	ldr	r2, [sp, #28]
    a6d4:	e5812000 	str	r2, [r1]
    a6d8:	e58d0014 	str	r0, [sp, #20]
    a6dc:	ea000002 	b	a6ec <wait_processes+0x10c>
    a6e0:	e51b0014 	ldr	r0, [fp, #-20]	; 0xffffffec
    a6e4:	e2800001 	add	r0, r0, #1
    a6e8:	e50b0014 	str	r0, [fp, #-20]	; 0xffffffec
    a6ec:	eaffffff 	b	a6f0 <wait_processes+0x110>
    a6f0:	eaffffff 	b	a6f4 <wait_processes+0x114>
    a6f4:	e51b001c 	ldr	r0, [fp, #-28]	; 0xffffffe4
    a6f8:	e2800001 	add	r0, r0, #1
    a6fc:	e50b001c 	str	r0, [fp, #-28]	; 0xffffffe4
    a700:	eaffffce 	b	a640 <wait_processes+0x60>
    a704:	ea000013 	b	a758 <wait_processes+0x178>
    a708:	ebfffa1c 	bl	8f80 <__errno_location@plt>
    a70c:	e59fe068 	ldr	lr, [pc, #104]	; a77c <wait_processes+0x19c>
    a710:	e5900000 	ldr	r0, [r0]
    a714:	e50b0010 	str	r0, [fp, #-16]
    a718:	e59e0000 	ldr	r0, [lr]
    a71c:	e58d0010 	str	r0, [sp, #16]
    a720:	ebfffa16 	bl	8f80 <__errno_location@plt>
    a724:	e5902000 	ldr	r2, [r0]
    a728:	e58d200c 	str	r2, [sp, #12]
    a72c:	ebfffa13 	bl	8f80 <__errno_location@plt>
    a730:	e5900000 	ldr	r0, [r0]
    a734:	ebfffa26 	bl	8fd4 <strerror@plt>
    a738:	e59f1038 	ldr	r1, [pc, #56]	; a778 <wait_processes+0x198>
    a73c:	e59d2010 	ldr	r2, [sp, #16]
    a740:	e58d0008 	str	r0, [sp, #8]
    a744:	e1a00002 	mov	r0, r2
    a748:	e59d200c 	ldr	r2, [sp, #12]
    a74c:	e59d3008 	ldr	r3, [sp, #8]
    a750:	ebfffe1a 	bl	9fc0 <msg_printf>
    a754:	e58d0004 	str	r0, [sp, #4]
    a758:	eaffffff 	b	a75c <wait_processes+0x17c>
    a75c:	e51b0014 	ldr	r0, [fp, #-20]	; 0xffffffec
    a760:	e3500000 	cmp	r0, #0
    a764:	caffffa5 	bgt	a600 <wait_processes+0x20>
    a768:	e51b0010 	ldr	r0, [fp, #-16]
    a76c:	e1a0d00b 	mov	sp, fp
    a770:	e8bd8800 	pop	{fp, pc}
    a774:	00000000 	andeq	r0, r0, r0
    a778:	0000c9a9 	andeq	ip, r0, r9, lsr #19
    a77c:	0000f140 	andeq	pc, r0, r0, asr #2
    a780:	00000002 	andeq	r0, r0, r2
    a784:	ffffffff 			; <UNDEFINED> instruction: 0xffffffff
    a788:	0000f140 	andeq	pc, r0, r0, asr #2
    a78c:	0000c981 	andeq	ip, r0, r1, lsl #19

0000a790 <configure_timer>:
    a790:	e92d4800 	push	{fp, lr}
    a794:	e1a0b00d 	mov	fp, sp
    a798:	e24dd030 	sub	sp, sp, #48	; 0x30
    a79c:	ed0b0a01 	vstr	s0, [fp, #-4]
    a7a0:	ed1b0a01 	vldr	s0, [fp, #-4]
    a7a4:	eeb50ac0 	vcmpe.f32	s0, #0.0
    a7a8:	eef1fa10 	vmrs	APSR_nzcv, fpscr
    a7ac:	5a000005 	bpl	a7c8 <configure_timer+0x38>
    a7b0:	e59f010c 	ldr	r0, [pc, #268]	; a8c4 <configure_timer+0x134>
    a7b4:	e58d0020 	str	r0, [sp, #32]
    a7b8:	e58d0024 	str	r0, [sp, #36]	; 0x24
    a7bc:	e58d0018 	str	r0, [sp, #24]
    a7c0:	e58d001c 	str	r0, [sp, #28]
    a7c4:	ea000012 	b	a814 <configure_timer+0x84>
    a7c8:	ed9f0b3a 	vldr	d0, [pc, #232]	; a8b8 <configure_timer+0x128>
    a7cc:	e59f00ec 	ldr	r0, [pc, #236]	; a8c0 <configure_timer+0x130>
    a7d0:	e59f10ec 	ldr	r1, [pc, #236]	; a8c4 <configure_timer+0x134>
    a7d4:	e58d1020 	str	r1, [sp, #32]
    a7d8:	e58d0024 	str	r0, [sp, #36]	; 0x24
    a7dc:	ed1b1a01 	vldr	s2, [fp, #-4]
    a7e0:	eebd1ac1 	vcvt.s32.f32	s2, s2
    a7e4:	ee110a10 	vmov	r0, s2
    a7e8:	e58d0018 	str	r0, [sp, #24]
    a7ec:	ed1b1a01 	vldr	s2, [fp, #-4]
    a7f0:	e59d0018 	ldr	r0, [sp, #24]
    a7f4:	ee020a10 	vmov	s4, r0
    a7f8:	eeb82ac2 	vcvt.f32.s32	s4, s4
    a7fc:	ee311a42 	vsub.f32	s2, s2, s4
    a800:	eeb73ac1 	vcvt.f64.f32	d3, s2
    a804:	ee230b00 	vmul.f64	d0, d3, d0
    a808:	eebd1bc0 	vcvt.s32.f64	s2, d0
    a80c:	ee110a10 	vmov	r0, s2
    a810:	e58d001c 	str	r0, [sp, #28]
    a814:	e59f00a8 	ldr	r0, [pc, #168]	; a8c4 <configure_timer+0x134>
    a818:	e58d0014 	str	r0, [sp, #20]
    a81c:	e28d1018 	add	r1, sp, #24
    a820:	e59d2014 	ldr	r2, [sp, #20]
    a824:	ebfffa53 	bl	9178 <setitimer@plt>
    a828:	e3500000 	cmp	r0, #0
    a82c:	1a000009 	bne	a858 <configure_timer+0xc8>
    a830:	e59f1098 	ldr	r1, [pc, #152]	; a8d0 <configure_timer+0x140>
    a834:	e59f0098 	ldr	r0, [pc, #152]	; a8d4 <configure_timer+0x144>
    a838:	e5900000 	ldr	r0, [r0]
    a83c:	e59d2018 	ldr	r2, [sp, #24]
    a840:	e59d301c 	ldr	r3, [sp, #28]
    a844:	ebfffddd 	bl	9fc0 <msg_printf>
    a848:	e59f1074 	ldr	r1, [pc, #116]	; a8c4 <configure_timer+0x134>
    a84c:	e50b1008 	str	r1, [fp, #-8]
    a850:	e58d0010 	str	r0, [sp, #16]
    a854:	ea000013 	b	a8a8 <configure_timer+0x118>
    a858:	ebfff9c8 	bl	8f80 <__errno_location@plt>
    a85c:	e59fe068 	ldr	lr, [pc, #104]	; a8cc <configure_timer+0x13c>
    a860:	e5900000 	ldr	r0, [r0]
    a864:	e50b0008 	str	r0, [fp, #-8]
    a868:	e59e0000 	ldr	r0, [lr]
    a86c:	e58d000c 	str	r0, [sp, #12]
    a870:	ebfff9c2 	bl	8f80 <__errno_location@plt>
    a874:	e5902000 	ldr	r2, [r0]
    a878:	e58d2008 	str	r2, [sp, #8]
    a87c:	ebfff9bf 	bl	8f80 <__errno_location@plt>
    a880:	e5900000 	ldr	r0, [r0]
    a884:	ebfff9d2 	bl	8fd4 <strerror@plt>
    a888:	e59f1038 	ldr	r1, [pc, #56]	; a8c8 <configure_timer+0x138>
    a88c:	e59d200c 	ldr	r2, [sp, #12]
    a890:	e58d0004 	str	r0, [sp, #4]
    a894:	e1a00002 	mov	r0, r2
    a898:	e59d2008 	ldr	r2, [sp, #8]
    a89c:	e59d3004 	ldr	r3, [sp, #4]
    a8a0:	ebfffdc6 	bl	9fc0 <msg_printf>
    a8a4:	e58d0000 	str	r0, [sp]
    a8a8:	e51b0008 	ldr	r0, [fp, #-8]
    a8ac:	e1a0d00b 	mov	sp, fp
    a8b0:	e8bd8800 	pop	{fp, pc}
    a8b4:	e1a00000 	nop			; (mov r0, r0)
    a8b8:	00000000 	andeq	r0, r0, r0
    a8bc:	412e8480 	smlawbmi	lr, r0, r4, r8
    a8c0:	0003d090 	muleq	r3, r0, r0
    a8c4:	00000000 	andeq	r0, r0, r0
    a8c8:	0000ca10 	andeq	ip, r0, r0, lsl sl
    a8cc:	0000f140 	andeq	pc, r0, r0, asr #2
    a8d0:	0000c9e2 	andeq	ip, r0, r2, ror #19
    a8d4:	0000f140 	andeq	pc, r0, r0, asr #2

0000a8d8 <herror_msg>:
    a8d8:	e24dd00c 	sub	sp, sp, #12
    a8dc:	e58d0008 	str	r0, [sp, #8]
    a8e0:	e59d0008 	ldr	r0, [sp, #8]
    a8e4:	e3500001 	cmp	r0, #1
    a8e8:	e58d0000 	str	r0, [sp]
    a8ec:	0a000008 	beq	a914 <herror_msg+0x3c>
    a8f0:	eaffffff 	b	a8f4 <herror_msg+0x1c>
    a8f4:	e59d0000 	ldr	r0, [sp]
    a8f8:	e3500002 	cmp	r0, #2
    a8fc:	0a00000a 	beq	a92c <herror_msg+0x54>
    a900:	eaffffff 	b	a904 <herror_msg+0x2c>
    a904:	e59d0000 	ldr	r0, [sp]
    a908:	e3500004 	cmp	r0, #4
    a90c:	0a000003 	beq	a920 <herror_msg+0x48>
    a910:	ea000008 	b	a938 <herror_msg+0x60>
    a914:	e59f0038 	ldr	r0, [pc, #56]	; a954 <herror_msg+0x7c>
    a918:	e58d0004 	str	r0, [sp, #4]
    a91c:	ea000007 	b	a940 <herror_msg+0x68>
    a920:	e59f0028 	ldr	r0, [pc, #40]	; a950 <herror_msg+0x78>
    a924:	e58d0004 	str	r0, [sp, #4]
    a928:	ea000004 	b	a940 <herror_msg+0x68>
    a92c:	e59f0018 	ldr	r0, [pc, #24]	; a94c <herror_msg+0x74>
    a930:	e58d0004 	str	r0, [sp, #4]
    a934:	ea000001 	b	a940 <herror_msg+0x68>
    a938:	e59f0018 	ldr	r0, [pc, #24]	; a958 <herror_msg+0x80>
    a93c:	e58d0004 	str	r0, [sp, #4]
    a940:	e59d0004 	ldr	r0, [sp, #4]
    a944:	e28dd00c 	add	sp, sp, #12
    a948:	e12fff1e 	bx	lr
    a94c:	0000ca6d 	andeq	ip, r0, sp, ror #20
    a950:	0000ca4a 	andeq	ip, r0, sl, asr #20
    a954:	0000ca33 	andeq	ip, r0, r3, lsr sl
    a958:	0000ca86 	andeq	ip, r0, r6, lsl #21

0000a95c <resp_code_msg>:
    a95c:	e24dd00c 	sub	sp, sp, #12
    a960:	e58d0008 	str	r0, [sp, #8]
    a964:	e59d0008 	ldr	r0, [sp, #8]
    a968:	e2400001 	sub	r0, r0, #1
    a96c:	e3500004 	cmp	r0, #4
    a970:	e58d0000 	str	r0, [sp]
    a974:	8a000017 	bhi	a9d8 <resp_code_msg+0x7c>
    a978:	e28f0008 	add	r0, pc, #8
    a97c:	e59d1000 	ldr	r1, [sp]
    a980:	e7900101 	ldr	r0, [r0, r1, lsl #2]
    a984:	e1a0f000 	mov	pc, r0
    a988:	0000a99c 	muleq	r0, ip, r9
    a98c:	0000a9a8 	andeq	sl, r0, r8, lsr #19
    a990:	0000a9b4 			; <UNDEFINED> instruction: 0x0000a9b4
    a994:	0000a9c0 	andeq	sl, r0, r0, asr #19
    a998:	0000a9cc 	andeq	sl, r0, ip, asr #19
    a99c:	e59f0058 	ldr	r0, [pc, #88]	; a9fc <resp_code_msg+0xa0>
    a9a0:	e58d0004 	str	r0, [sp, #4]
    a9a4:	ea00000d 	b	a9e0 <resp_code_msg+0x84>
    a9a8:	e59f0048 	ldr	r0, [pc, #72]	; a9f8 <resp_code_msg+0x9c>
    a9ac:	e58d0004 	str	r0, [sp, #4]
    a9b0:	ea00000a 	b	a9e0 <resp_code_msg+0x84>
    a9b4:	e59f0038 	ldr	r0, [pc, #56]	; a9f4 <resp_code_msg+0x98>
    a9b8:	e58d0004 	str	r0, [sp, #4]
    a9bc:	ea000007 	b	a9e0 <resp_code_msg+0x84>
    a9c0:	e59f0028 	ldr	r0, [pc, #40]	; a9f0 <resp_code_msg+0x94>
    a9c4:	e58d0004 	str	r0, [sp, #4]
    a9c8:	ea000004 	b	a9e0 <resp_code_msg+0x84>
    a9cc:	e59f0018 	ldr	r0, [pc, #24]	; a9ec <resp_code_msg+0x90>
    a9d0:	e58d0004 	str	r0, [sp, #4]
    a9d4:	ea000001 	b	a9e0 <resp_code_msg+0x84>
    a9d8:	e59f0020 	ldr	r0, [pc, #32]	; aa00 <resp_code_msg+0xa4>
    a9dc:	e58d0004 	str	r0, [sp, #4]
    a9e0:	e59d0004 	ldr	r0, [sp, #4]
    a9e4:	e28dd00c 	add	sp, sp, #12
    a9e8:	e12fff1e 	bx	lr
    a9ec:	0000cadc 	ldrdeq	ip, [r0], -ip	; <UNPREDICTABLE>
    a9f0:	0000cacc 	andeq	ip, r0, ip, asr #21
    a9f4:	0000caba 			; <UNDEFINED> instruction: 0x0000caba
    a9f8:	0000caa8 	andeq	ip, r0, r8, lsr #21
    a9fc:	0000ca97 	muleq	r0, r7, sl
    aa00:	0000caed 	andeq	ip, r0, sp, ror #21

0000aa04 <hostname_to_ip>:
    aa04:	e92d4800 	push	{fp, lr}
    aa08:	e1a0b00d 	mov	fp, sp
    aa0c:	e24dd050 	sub	sp, sp, #80	; 0x50
    aa10:	e59f2134 	ldr	r2, [pc, #308]	; ab4c <hostname_to_ip+0x148>
    aa14:	e59f3134 	ldr	r3, [pc, #308]	; ab50 <hostname_to_ip+0x14c>
    aa18:	e50b0004 	str	r0, [fp, #-4]
    aa1c:	e50b1008 	str	r1, [fp, #-8]
    aa20:	e28d0024 	add	r0, sp, #36	; 0x24
    aa24:	e1a01000 	mov	r1, r0
    aa28:	e3a0c000 	mov	ip, #0
    aa2c:	e581c01c 	str	ip, [r1, #28]
    aa30:	e581c018 	str	ip, [r1, #24]
    aa34:	e581c014 	str	ip, [r1, #20]
    aa38:	e581c010 	str	ip, [r1, #16]
    aa3c:	e581c00c 	str	ip, [r1, #12]
    aa40:	e581c008 	str	ip, [r1, #8]
    aa44:	e581c004 	str	ip, [r1, #4]
    aa48:	e581c000 	str	ip, [r1]
    aa4c:	e58d3028 	str	r3, [sp, #40]	; 0x28
    aa50:	e58d202c 	str	r2, [sp, #44]	; 0x2c
    aa54:	e51b1004 	ldr	r1, [fp, #-4]
    aa58:	e58d0010 	str	r0, [sp, #16]
    aa5c:	e1a00001 	mov	r0, r1
    aa60:	e1a01002 	mov	r1, r2
    aa64:	e59d2010 	ldr	r2, [sp, #16]
    aa68:	e28d3020 	add	r3, sp, #32
    aa6c:	ebfff9c4 	bl	9184 <getaddrinfo@plt>
    aa70:	e58d001c 	str	r0, [sp, #28]
    aa74:	e59d001c 	ldr	r0, [sp, #28]
    aa78:	e3500000 	cmp	r0, #0
    aa7c:	1a00001d 	bne	aaf8 <hostname_to_ip+0xf4>
    aa80:	e59f00d4 	ldr	r0, [pc, #212]	; ab5c <hostname_to_ip+0x158>
    aa84:	e50b000c 	str	r0, [fp, #-12]
    aa88:	e59d0020 	ldr	r0, [sp, #32]
    aa8c:	e58d0018 	str	r0, [sp, #24]
    aa90:	e59f00b4 	ldr	r0, [pc, #180]	; ab4c <hostname_to_ip+0x148>
    aa94:	e59d1018 	ldr	r1, [sp, #24]
    aa98:	e1510000 	cmp	r1, r0
    aa9c:	0a000012 	beq	aaec <hostname_to_ip+0xe8>
    aaa0:	e59d0018 	ldr	r0, [sp, #24]
    aaa4:	e5900014 	ldr	r0, [r0, #20]
    aaa8:	e58d0014 	str	r0, [sp, #20]
    aaac:	e51b0008 	ldr	r0, [fp, #-8]
    aab0:	e59d1014 	ldr	r1, [sp, #20]
    aab4:	e5911004 	ldr	r1, [r1, #4]
    aab8:	e5801000 	str	r1, [r0]
    aabc:	e51b0008 	ldr	r0, [fp, #-8]
    aac0:	e5900000 	ldr	r0, [r0]
    aac4:	e3500000 	cmp	r0, #0
    aac8:	0a000002 	beq	aad8 <hostname_to_ip+0xd4>
    aacc:	e59f0078 	ldr	r0, [pc, #120]	; ab4c <hostname_to_ip+0x148>
    aad0:	e50b000c 	str	r0, [fp, #-12]
    aad4:	ea000004 	b	aaec <hostname_to_ip+0xe8>
    aad8:	eaffffff 	b	aadc <hostname_to_ip+0xd8>
    aadc:	e59d0018 	ldr	r0, [sp, #24]
    aae0:	e590001c 	ldr	r0, [r0, #28]
    aae4:	e58d0018 	str	r0, [sp, #24]
    aae8:	eaffffe8 	b	aa90 <hostname_to_ip+0x8c>
    aaec:	e59d0020 	ldr	r0, [sp, #32]
    aaf0:	ebfff9a6 	bl	9190 <freeaddrinfo@plt>
    aaf4:	ea000011 	b	ab40 <hostname_to_ip+0x13c>
    aaf8:	e59f0058 	ldr	r0, [pc, #88]	; ab58 <hostname_to_ip+0x154>
    aafc:	e5900000 	ldr	r0, [r0]
    ab00:	e51b2004 	ldr	r2, [fp, #-4]
    ab04:	e59d101c 	ldr	r1, [sp, #28]
    ab08:	e58d000c 	str	r0, [sp, #12]
    ab0c:	e1a00001 	mov	r0, r1
    ab10:	e58d2008 	str	r2, [sp, #8]
    ab14:	ebfff9a0 	bl	919c <gai_strerror@plt>
    ab18:	e59f1034 	ldr	r1, [pc, #52]	; ab54 <hostname_to_ip+0x150>
    ab1c:	e59d200c 	ldr	r2, [sp, #12]
    ab20:	e58d0004 	str	r0, [sp, #4]
    ab24:	e1a00002 	mov	r0, r2
    ab28:	e59d2008 	ldr	r2, [sp, #8]
    ab2c:	e59d3004 	ldr	r3, [sp, #4]
    ab30:	ebfffd22 	bl	9fc0 <msg_printf>
    ab34:	e59d101c 	ldr	r1, [sp, #28]
    ab38:	e50b100c 	str	r1, [fp, #-12]
    ab3c:	e58d0000 	str	r0, [sp]
    ab40:	e51b000c 	ldr	r0, [fp, #-12]
    ab44:	e1a0d00b 	mov	sp, fp
    ab48:	e8bd8800 	pop	{fp, pc}
    ab4c:	00000000 	andeq	r0, r0, r0
    ab50:	00000002 	andeq	r0, r0, r2
    ab54:	0000cb04 	andeq	ip, r0, r4, lsl #22
    ab58:	0000f140 	andeq	pc, r0, r0, asr #2
    ab5c:	ffffffff 			; <UNDEFINED> instruction: 0xffffffff

0000ab60 <hostname_to_ip_at_dns>:
    ab60:	e92d4ff0 	push	{r4, r5, r6, r7, r8, r9, sl, fp, lr}
    ab64:	e28db01c 	add	fp, sp, #28
    ab68:	e24ddf95 	sub	sp, sp, #596	; 0x254
    ab6c:	e24ddb02 	sub	sp, sp, #2048	; 0x800
    ab70:	e24beb01 	sub	lr, fp, #1024	; 0x400
    ab74:	e24e3086 	sub	r3, lr, #134	; 0x86
    ab78:	e28dec01 	add	lr, sp, #256	; 0x100
    ab7c:	e28ec0d2 	add	ip, lr, #210	; 0xd2
    ab80:	e50b0024 	str	r0, [fp, #-36]	; 0xffffffdc
    ab84:	e50b1028 	str	r1, [fp, #-40]	; 0xffffffd8
    ab88:	e50b202c 	str	r2, [fp, #-44]	; 0xffffffd4
    ab8c:	e24b0e23 	sub	r0, fp, #560	; 0x230
    ab90:	e1a01000 	mov	r1, r0
    ab94:	e3a02000 	mov	r2, #0
    ab98:	e3a0ec02 	mov	lr, #512	; 0x200
    ab9c:	e58d00c8 	str	r0, [sp, #200]	; 0xc8
    aba0:	e1a00001 	mov	r0, r1
    aba4:	e1a01002 	mov	r1, r2
    aba8:	e1a0200e 	mov	r2, lr
    abac:	e58d30c4 	str	r3, [sp, #196]	; 0xc4
    abb0:	e58dc0c0 	str	ip, [sp, #192]	; 0xc0
    abb4:	ebfff8eb 	bl	8f68 <memset@plt>
    abb8:	e59d10c8 	ldr	r1, [sp, #200]	; 0xc8
    abbc:	e58d00bc 	str	r0, [sp, #188]	; 0xbc
    abc0:	e1a00001 	mov	r0, r1
    abc4:	ebfff977 	bl	91a8 <__res_ninit@plt>
    abc8:	e50b0030 	str	r0, [fp, #-48]	; 0xffffffd0
    abcc:	e51b0030 	ldr	r0, [fp, #-48]	; 0xffffffd0
    abd0:	e3500000 	cmp	r0, #0
    abd4:	1a000144 	bne	b0ec <hostname_to_ip_at_dns+0x58c>
    abd8:	e51b0024 	ldr	r0, [fp, #-36]	; 0xffffffdc
    abdc:	e24b1f8d 	sub	r1, fp, #564	; 0x234
    abe0:	ebffff87 	bl	aa04 <hostname_to_ip>
    abe4:	e50b0030 	str	r0, [fp, #-48]	; 0xffffffd0
    abe8:	e51b0030 	ldr	r0, [fp, #-48]	; 0xffffffd0
    abec:	e3500000 	cmp	r0, #0
    abf0:	1a00013c 	bne	b0e8 <hostname_to_ip_at_dns+0x588>
    abf4:	e59f0528 	ldr	r0, [pc, #1320]	; b124 <hostname_to_ip_at_dns+0x5c4>
    abf8:	e51b1224 	ldr	r1, [fp, #-548]	; 0xfffffddc
    abfc:	e50b1448 	str	r1, [fp, #-1096]	; 0xfffffbb8
    ac00:	e50b0450 	str	r0, [fp, #-1104]	; 0xfffffbb0
    ac04:	e51b0450 	ldr	r0, [fp, #-1104]	; 0xfffffbb0
    ac08:	e51b1448 	ldr	r1, [fp, #-1096]	; 0xfffffbb8
    ac0c:	e1500001 	cmp	r0, r1
    ac10:	aa00000e 	bge	ac50 <hostname_to_ip_at_dns+0xf0>
    ac14:	e59f0564 	ldr	r0, [pc, #1380]	; b180 <hostname_to_ip_at_dns+0x620>
    ac18:	e51b1450 	ldr	r1, [fp, #-1104]	; 0xfffffbb0
    ac1c:	e24beb01 	sub	lr, fp, #1024	; 0x400
    ac20:	e24e2044 	sub	r2, lr, #68	; 0x44
    ac24:	e0822101 	add	r2, r2, r1, lsl #2
    ac28:	e24b3e23 	sub	r3, fp, #560	; 0x230
    ac2c:	e2833010 	add	r3, r3, #16
    ac30:	e0831201 	add	r1, r3, r1, lsl #4
    ac34:	e5911004 	ldr	r1, [r1, #4]
    ac38:	e5821000 	str	r1, [r2]
    ac3c:	e58d00b8 	str	r0, [sp, #184]	; 0xb8
    ac40:	e51b0450 	ldr	r0, [fp, #-1104]	; 0xfffffbb0
    ac44:	e2800001 	add	r0, r0, #1
    ac48:	e50b0450 	str	r0, [fp, #-1104]	; 0xfffffbb0
    ac4c:	eaffffec 	b	ac04 <hostname_to_ip_at_dns+0xa4>
    ac50:	e59f04d0 	ldr	r0, [pc, #1232]	; b128 <hostname_to_ip_at_dns+0x5c8>
    ac54:	e59f14d0 	ldr	r1, [pc, #1232]	; b12c <hostname_to_ip_at_dns+0x5cc>
    ac58:	e59f24d0 	ldr	r2, [pc, #1232]	; b130 <hostname_to_ip_at_dns+0x5d0>
    ac5c:	e51b3228 	ldr	r3, [fp, #-552]	; 0xfffffdd8
    ac60:	e50b344c 	str	r3, [fp, #-1100]	; 0xfffffbb4
    ac64:	e51b3228 	ldr	r3, [fp, #-552]	; 0xfffffdd8
    ac68:	e0032002 	and	r2, r3, r2
    ac6c:	e50b2228 	str	r2, [fp, #-552]	; 0xfffffdd8
    ac70:	e51b2234 	ldr	r2, [fp, #-564]	; 0xfffffdcc
    ac74:	e50b221c 	str	r2, [fp, #-540]	; 0xfffffde4
    ac78:	e50b0224 	str	r0, [fp, #-548]	; 0xfffffddc
    ac7c:	e51b2028 	ldr	r2, [fp, #-40]	; 0xffffffd8
    ac80:	e24beb01 	sub	lr, fp, #1024	; 0x400
    ac84:	e24e3034 	sub	r3, lr, #52	; 0x34
    ac88:	e24bce23 	sub	ip, fp, #560	; 0x230
    ac8c:	e58d00b4 	str	r0, [sp, #180]	; 0xb4
    ac90:	e1a0000c 	mov	r0, ip
    ac94:	e58d10b0 	str	r1, [sp, #176]	; 0xb0
    ac98:	e1a01002 	mov	r1, r2
    ac9c:	e59d20b4 	ldr	r2, [sp, #180]	; 0xb4
    aca0:	e59dc0b4 	ldr	ip, [sp, #180]	; 0xb4
    aca4:	e58d30ac 	str	r3, [sp, #172]	; 0xac
    aca8:	e1a0300c 	mov	r3, ip
    acac:	e59de0ac 	ldr	lr, [sp, #172]	; 0xac
    acb0:	e58de000 	str	lr, [sp]
    acb4:	e59d40b0 	ldr	r4, [sp, #176]	; 0xb0
    acb8:	e58d4004 	str	r4, [sp, #4]
    acbc:	ebfff93c 	bl	91b4 <__res_nquery@plt>
    acc0:	e50b0438 	str	r0, [fp, #-1080]	; 0xfffffbc8
    acc4:	e51b0438 	ldr	r0, [fp, #-1080]	; 0xfffffbc8
    acc8:	e3700001 	cmn	r0, #1
    accc:	0a0000c0 	beq	afd4 <hostname_to_ip_at_dns+0x474>
    acd0:	e24beb01 	sub	lr, fp, #1024	; 0x400
    acd4:	e24e0034 	sub	r0, lr, #52	; 0x34
    acd8:	e51b1438 	ldr	r1, [fp, #-1080]	; 0xfffffbc8
    acdc:	e24b2d12 	sub	r2, fp, #1152	; 0x480
    ace0:	ebfff936 	bl	91c0 <ns_initparse@plt>
    ace4:	e50b0030 	str	r0, [fp, #-48]	; 0xffffffd0
    ace8:	e51b0030 	ldr	r0, [fp, #-48]	; 0xffffffd0
    acec:	e3500000 	cmp	r0, #0
    acf0:	ba0000a9 	blt	af9c <hostname_to_ip_at_dns+0x43c>
    acf4:	e51b0454 	ldr	r0, [fp, #-1108]	; 0xfffffbac
    acf8:	e51b1458 	ldr	r1, [fp, #-1112]	; 0xfffffba8
    acfc:	e51b245c 	ldr	r2, [fp, #-1116]	; 0xfffffba4
    ad00:	e51b3460 	ldr	r3, [fp, #-1120]	; 0xfffffba0
    ad04:	e51bc464 	ldr	ip, [fp, #-1124]	; 0xfffffb9c
    ad08:	e51be468 	ldr	lr, [fp, #-1128]	; 0xfffffb98
    ad0c:	e51b446c 	ldr	r4, [fp, #-1132]	; 0xfffffb94
    ad10:	e51b5470 	ldr	r5, [fp, #-1136]	; 0xfffffb90
    ad14:	e51b6480 	ldr	r6, [fp, #-1152]	; 0xfffffb80
    ad18:	e51b747c 	ldr	r7, [fp, #-1148]	; 0xfffffb84
    ad1c:	e51b8478 	ldr	r8, [fp, #-1144]	; 0xfffffb88
    ad20:	e51b9474 	ldr	r9, [fp, #-1140]	; 0xfffffb8c
    ad24:	e1a0a00d 	mov	sl, sp
    ad28:	e58d00a8 	str	r0, [sp, #168]	; 0xa8
    ad2c:	e3a00009 	mov	r0, #9
    ad30:	e58a0020 	str	r0, [sl, #32]
    ad34:	e58a5000 	str	r5, [sl]
    ad38:	e58a4004 	str	r4, [sl, #4]
    ad3c:	e58ae008 	str	lr, [sl, #8]
    ad40:	e58ac00c 	str	ip, [sl, #12]
    ad44:	e58a3010 	str	r3, [sl, #16]
    ad48:	e58a2014 	str	r2, [sl, #20]
    ad4c:	e58a1018 	str	r1, [sl, #24]
    ad50:	e59d00a8 	ldr	r0, [sp, #168]	; 0xa8
    ad54:	e58a001c 	str	r0, [sl, #28]
    ad58:	e1a00006 	mov	r0, r6
    ad5c:	e1a01007 	mov	r1, r7
    ad60:	e1a02008 	mov	r2, r8
    ad64:	e1a03009 	mov	r3, r9
    ad68:	ebfff917 	bl	91cc <ns_msg_getflag@plt>
    ad6c:	e50b0484 	str	r0, [fp, #-1156]	; 0xfffffb7c
    ad70:	e51b0484 	ldr	r0, [fp, #-1156]	; 0xfffffb7c
    ad74:	e3500000 	cmp	r0, #0
    ad78:	1a000072 	bne	af48 <hostname_to_ip_at_dns+0x3e8>
    ad7c:	e59d00c4 	ldr	r0, [sp, #196]	; 0xc4
    ad80:	e1d011b4 	ldrh	r1, [r0, #20]
    ad84:	e2811000 	add	r1, r1, #0
    ad88:	e1c010b0 	strh	r1, [r0]
    ad8c:	e1d010b0 	ldrh	r1, [r0]
    ad90:	e3510001 	cmp	r1, #1
    ad94:	1a000059 	bne	af00 <hostname_to_ip_at_dns+0x3a0>
    ad98:	e59f1388 	ldr	r1, [pc, #904]	; b128 <hostname_to_ip_at_dns+0x5c8>
    ad9c:	e59f2380 	ldr	r2, [pc, #896]	; b124 <hostname_to_ip_at_dns+0x5c4>
    ada0:	e24b0d12 	sub	r0, fp, #1152	; 0x480
    ada4:	e28d3f75 	add	r3, sp, #468	; 0x1d4
    ada8:	ebfff90a 	bl	91d8 <ns_parserr@plt>
    adac:	e50b0030 	str	r0, [fp, #-48]	; 0xffffffd0
    adb0:	e51b0030 	ldr	r0, [fp, #-48]	; 0xffffffd0
    adb4:	e3500000 	cmp	r0, #0
    adb8:	1a000042 	bne	aec8 <hostname_to_ip_at_dns+0x368>
    adbc:	e59f03a0 	ldr	r0, [pc, #928]	; b164 <hostname_to_ip_at_dns+0x604>
    adc0:	e28d1f75 	add	r1, sp, #468	; 0x1d4
    adc4:	e0810000 	add	r0, r1, r0
    adc8:	e1d000b0 	ldrh	r0, [r0]
    adcc:	e2800000 	add	r0, r0, #0
    add0:	e59d10c0 	ldr	r1, [sp, #192]	; 0xc0
    add4:	e1c100b0 	strh	r0, [r1]
    add8:	e1d100b0 	ldrh	r0, [r1]
    addc:	e3500001 	cmp	r0, #1
    ade0:	1a000021 	bne	ae6c <hostname_to_ip_at_dns+0x30c>
    ade4:	e59f0338 	ldr	r0, [pc, #824]	; b124 <hostname_to_ip_at_dns+0x5c4>
    ade8:	e59f1388 	ldr	r1, [pc, #904]	; b178 <hostname_to_ip_at_dns+0x618>
    adec:	e28d20cc 	add	r2, sp, #204	; 0xcc
    adf0:	e24b3d12 	sub	r3, fp, #1152	; 0x480
    adf4:	e58d00a4 	str	r0, [sp, #164]	; 0xa4
    adf8:	e1a00003 	mov	r0, r3
    adfc:	e28d3f75 	add	r3, sp, #468	; 0x1d4
    ae00:	e58d10a0 	str	r1, [sp, #160]	; 0xa0
    ae04:	e1a01003 	mov	r1, r3
    ae08:	e59d30a4 	ldr	r3, [sp, #164]	; 0xa4
    ae0c:	e58d209c 	str	r2, [sp, #156]	; 0x9c
    ae10:	e1a02003 	mov	r2, r3
    ae14:	e59dc09c 	ldr	ip, [sp, #156]	; 0x9c
    ae18:	e58dc000 	str	ip, [sp]
    ae1c:	e59de0a0 	ldr	lr, [sp, #160]	; 0xa0
    ae20:	e58de004 	str	lr, [sp, #4]
    ae24:	ebfff8ee 	bl	91e4 <ns_sprintrr@plt>
    ae28:	e59f1340 	ldr	r1, [pc, #832]	; b170 <hostname_to_ip_at_dns+0x610>
    ae2c:	e28d20cc 	add	r2, sp, #204	; 0xcc
    ae30:	e59f333c 	ldr	r3, [pc, #828]	; b174 <hostname_to_ip_at_dns+0x614>
    ae34:	e5933000 	ldr	r3, [r3]
    ae38:	e58d0098 	str	r0, [sp, #152]	; 0x98
    ae3c:	e1a00003 	mov	r0, r3
    ae40:	ebfffc5e 	bl	9fc0 <msg_printf>
    ae44:	e59f12d8 	ldr	r1, [pc, #728]	; b124 <hostname_to_ip_at_dns+0x5c4>
    ae48:	e59d25e4 	ldr	r2, [sp, #1508]	; 0x5e4
    ae4c:	e58d21cc 	str	r2, [sp, #460]	; 0x1cc
    ae50:	e51b202c 	ldr	r2, [fp, #-44]	; 0xffffffd4
    ae54:	e59d31cc 	ldr	r3, [sp, #460]	; 0x1cc
    ae58:	e5933000 	ldr	r3, [r3]
    ae5c:	e5823000 	str	r3, [r2]
    ae60:	e50b1030 	str	r1, [fp, #-48]	; 0xffffffd0
    ae64:	e58d0094 	str	r0, [sp, #148]	; 0x94
    ae68:	ea000015 	b	aec4 <hostname_to_ip_at_dns+0x364>
    ae6c:	e59f02c4 	ldr	r0, [pc, #708]	; b138 <hostname_to_ip_at_dns+0x5d8>
    ae70:	e5900000 	ldr	r0, [r0]
    ae74:	e51b1234 	ldr	r1, [fp, #-564]	; 0xfffffdcc
    ae78:	e58d0090 	str	r0, [sp, #144]	; 0x90
    ae7c:	e1a00001 	mov	r0, r1
    ae80:	ebfff8da 	bl	91f0 <inet_ntoa@plt>
    ae84:	e59f12e0 	ldr	r1, [pc, #736]	; b16c <hostname_to_ip_at_dns+0x60c>
    ae88:	e59f3298 	ldr	r3, [pc, #664]	; b128 <hostname_to_ip_at_dns+0x5c8>
    ae8c:	e59de0c0 	ldr	lr, [sp, #192]	; 0xc0
    ae90:	e1de20b0 	ldrh	r2, [lr]
    ae94:	e59dc090 	ldr	ip, [sp, #144]	; 0x90
    ae98:	e58d008c 	str	r0, [sp, #140]	; 0x8c
    ae9c:	e1a0000c 	mov	r0, ip
    aea0:	e59d408c 	ldr	r4, [sp, #140]	; 0x8c
    aea4:	e58d2088 	str	r2, [sp, #136]	; 0x88
    aea8:	e1a02004 	mov	r2, r4
    aeac:	e59d5088 	ldr	r5, [sp, #136]	; 0x88
    aeb0:	e58d5000 	str	r5, [sp]
    aeb4:	ebfffc41 	bl	9fc0 <msg_printf>
    aeb8:	e59f12a8 	ldr	r1, [pc, #680]	; b168 <hostname_to_ip_at_dns+0x608>
    aebc:	e50b1030 	str	r1, [fp, #-48]	; 0xffffffd0
    aec0:	e58d0084 	str	r0, [sp, #132]	; 0x84
    aec4:	ea00000c 	b	aefc <hostname_to_ip_at_dns+0x39c>
    aec8:	e59f0290 	ldr	r0, [pc, #656]	; b160 <hostname_to_ip_at_dns+0x600>
    aecc:	e5900000 	ldr	r0, [r0]
    aed0:	e58d0080 	str	r0, [sp, #128]	; 0x80
    aed4:	ebfff829 	bl	8f80 <__errno_location@plt>
    aed8:	e5900000 	ldr	r0, [r0]
    aedc:	ebfff83c 	bl	8fd4 <strerror@plt>
    aee0:	e59f1274 	ldr	r1, [pc, #628]	; b15c <hostname_to_ip_at_dns+0x5fc>
    aee4:	e59de080 	ldr	lr, [sp, #128]	; 0x80
    aee8:	e58d007c 	str	r0, [sp, #124]	; 0x7c
    aeec:	e1a0000e 	mov	r0, lr
    aef0:	e59d207c 	ldr	r2, [sp, #124]	; 0x7c
    aef4:	ebfffc31 	bl	9fc0 <msg_printf>
    aef8:	e58d0078 	str	r0, [sp, #120]	; 0x78
    aefc:	ea000010 	b	af44 <hostname_to_ip_at_dns+0x3e4>
    af00:	e59f0230 	ldr	r0, [pc, #560]	; b138 <hostname_to_ip_at_dns+0x5d8>
    af04:	e5900000 	ldr	r0, [r0]
    af08:	e51b1234 	ldr	r1, [fp, #-564]	; 0xfffffdcc
    af0c:	e58d0074 	str	r0, [sp, #116]	; 0x74
    af10:	e1a00001 	mov	r0, r1
    af14:	ebfff8b5 	bl	91f0 <inet_ntoa@plt>
    af18:	e59f1238 	ldr	r1, [pc, #568]	; b158 <hostname_to_ip_at_dns+0x5f8>
    af1c:	e59de0c4 	ldr	lr, [sp, #196]	; 0xc4
    af20:	e1de30b0 	ldrh	r3, [lr]
    af24:	e59d2074 	ldr	r2, [sp, #116]	; 0x74
    af28:	e58d0070 	str	r0, [sp, #112]	; 0x70
    af2c:	e1a00002 	mov	r0, r2
    af30:	e59d2070 	ldr	r2, [sp, #112]	; 0x70
    af34:	ebfffc21 	bl	9fc0 <msg_printf>
    af38:	e59f1214 	ldr	r1, [pc, #532]	; b154 <hostname_to_ip_at_dns+0x5f4>
    af3c:	e50b1030 	str	r1, [fp, #-48]	; 0xffffffd0
    af40:	e58d006c 	str	r0, [sp, #108]	; 0x6c
    af44:	ea000013 	b	af98 <hostname_to_ip_at_dns+0x438>
    af48:	e59f01e8 	ldr	r0, [pc, #488]	; b138 <hostname_to_ip_at_dns+0x5d8>
    af4c:	e5900000 	ldr	r0, [r0]
    af50:	e51b1234 	ldr	r1, [fp, #-564]	; 0xfffffdcc
    af54:	e58d0068 	str	r0, [sp, #104]	; 0x68
    af58:	e1a00001 	mov	r0, r1
    af5c:	ebfff8a3 	bl	91f0 <inet_ntoa@plt>
    af60:	e51b1484 	ldr	r1, [fp, #-1156]	; 0xfffffb7c
    af64:	e58d0064 	str	r0, [sp, #100]	; 0x64
    af68:	e1a00001 	mov	r0, r1
    af6c:	ebfffe7a 	bl	a95c <resp_code_msg>
    af70:	e59f11d8 	ldr	r1, [pc, #472]	; b150 <hostname_to_ip_at_dns+0x5f0>
    af74:	e59de068 	ldr	lr, [sp, #104]	; 0x68
    af78:	e58d0060 	str	r0, [sp, #96]	; 0x60
    af7c:	e1a0000e 	mov	r0, lr
    af80:	e59d2064 	ldr	r2, [sp, #100]	; 0x64
    af84:	e59d3060 	ldr	r3, [sp, #96]	; 0x60
    af88:	ebfffc0c 	bl	9fc0 <msg_printf>
    af8c:	e59f11b8 	ldr	r1, [pc, #440]	; b14c <hostname_to_ip_at_dns+0x5ec>
    af90:	e50b1030 	str	r1, [fp, #-48]	; 0xffffffd0
    af94:	e58d005c 	str	r0, [sp, #92]	; 0x5c
    af98:	ea00000c 	b	afd0 <hostname_to_ip_at_dns+0x470>
    af9c:	e59f01a4 	ldr	r0, [pc, #420]	; b148 <hostname_to_ip_at_dns+0x5e8>
    afa0:	e5900000 	ldr	r0, [r0]
    afa4:	e58d0058 	str	r0, [sp, #88]	; 0x58
    afa8:	ebfff7f4 	bl	8f80 <__errno_location@plt>
    afac:	e5900000 	ldr	r0, [r0]
    afb0:	ebfff807 	bl	8fd4 <strerror@plt>
    afb4:	e59f1188 	ldr	r1, [pc, #392]	; b144 <hostname_to_ip_at_dns+0x5e4>
    afb8:	e59de058 	ldr	lr, [sp, #88]	; 0x58
    afbc:	e58d0054 	str	r0, [sp, #84]	; 0x54
    afc0:	e1a0000e 	mov	r0, lr
    afc4:	e59d2054 	ldr	r2, [sp, #84]	; 0x54
    afc8:	ebfffbfc 	bl	9fc0 <msg_printf>
    afcc:	e58d0050 	str	r0, [sp, #80]	; 0x50
    afd0:	ea00002a 	b	b080 <hostname_to_ip_at_dns+0x520>
    afd4:	ebfff7e9 	bl	8f80 <__errno_location@plt>
    afd8:	e5900000 	ldr	r0, [r0]
    afdc:	e350006f 	cmp	r0, #111	; 0x6f
    afe0:	1a00000d 	bne	b01c <hostname_to_ip_at_dns+0x4bc>
    afe4:	e59f014c 	ldr	r0, [pc, #332]	; b138 <hostname_to_ip_at_dns+0x5d8>
    afe8:	e5900000 	ldr	r0, [r0]
    afec:	e51b1234 	ldr	r1, [fp, #-564]	; 0xfffffdcc
    aff0:	e58d004c 	str	r0, [sp, #76]	; 0x4c
    aff4:	e1a00001 	mov	r0, r1
    aff8:	ebfff87c 	bl	91f0 <inet_ntoa@plt>
    affc:	e59f1138 	ldr	r1, [pc, #312]	; b13c <hostname_to_ip_at_dns+0x5dc>
    b000:	e59de04c 	ldr	lr, [sp, #76]	; 0x4c
    b004:	e58d0048 	str	r0, [sp, #72]	; 0x48
    b008:	e1a0000e 	mov	r0, lr
    b00c:	e59d2048 	ldr	r2, [sp, #72]	; 0x48
    b010:	ebfffbea 	bl	9fc0 <msg_printf>
    b014:	e58d0044 	str	r0, [sp, #68]	; 0x44
    b018:	ea000016 	b	b078 <hostname_to_ip_at_dns+0x518>
    b01c:	e59f0114 	ldr	r0, [pc, #276]	; b138 <hostname_to_ip_at_dns+0x5d8>
    b020:	e5900000 	ldr	r0, [r0]
    b024:	e51b1234 	ldr	r1, [fp, #-564]	; 0xfffffdcc
    b028:	e58d0040 	str	r0, [sp, #64]	; 0x40
    b02c:	e1a00001 	mov	r0, r1
    b030:	ebfff86e 	bl	91f0 <inet_ntoa@plt>
    b034:	e58d003c 	str	r0, [sp, #60]	; 0x3c
    b038:	ebfff86f 	bl	91fc <__h_errno_location@plt>
    b03c:	e5903000 	ldr	r3, [r0]
    b040:	e58d3038 	str	r3, [sp, #56]	; 0x38
    b044:	ebfff86c 	bl	91fc <__h_errno_location@plt>
    b048:	e5900000 	ldr	r0, [r0]
    b04c:	ebfffe21 	bl	a8d8 <herror_msg>
    b050:	e59f10dc 	ldr	r1, [pc, #220]	; b134 <hostname_to_ip_at_dns+0x5d4>
    b054:	e59d3040 	ldr	r3, [sp, #64]	; 0x40
    b058:	e58d0034 	str	r0, [sp, #52]	; 0x34
    b05c:	e1a00003 	mov	r0, r3
    b060:	e59d203c 	ldr	r2, [sp, #60]	; 0x3c
    b064:	e59d3038 	ldr	r3, [sp, #56]	; 0x38
    b068:	e59de034 	ldr	lr, [sp, #52]	; 0x34
    b06c:	e58de000 	str	lr, [sp]
    b070:	ebfffbd2 	bl	9fc0 <msg_printf>
    b074:	e58d0030 	str	r0, [sp, #48]	; 0x30
    b078:	e59f00c0 	ldr	r0, [pc, #192]	; b140 <hostname_to_ip_at_dns+0x5e0>
    b07c:	e50b0030 	str	r0, [fp, #-48]	; 0xffffffd0
    b080:	e59f009c 	ldr	r0, [pc, #156]	; b124 <hostname_to_ip_at_dns+0x5c4>
    b084:	e51b144c 	ldr	r1, [fp, #-1100]	; 0xfffffbb4
    b088:	e50b1228 	str	r1, [fp, #-552]	; 0xfffffdd8
    b08c:	e51b1448 	ldr	r1, [fp, #-1096]	; 0xfffffbb8
    b090:	e50b1224 	str	r1, [fp, #-548]	; 0xfffffddc
    b094:	e50b0450 	str	r0, [fp, #-1104]	; 0xfffffbb0
    b098:	e51b0450 	ldr	r0, [fp, #-1104]	; 0xfffffbb0
    b09c:	e51b1448 	ldr	r1, [fp, #-1096]	; 0xfffffbb8
    b0a0:	e1500001 	cmp	r0, r1
    b0a4:	aa00000e 	bge	b0e4 <hostname_to_ip_at_dns+0x584>
    b0a8:	e59f00cc 	ldr	r0, [pc, #204]	; b17c <hostname_to_ip_at_dns+0x61c>
    b0ac:	e51b1450 	ldr	r1, [fp, #-1104]	; 0xfffffbb0
    b0b0:	e24b2e23 	sub	r2, fp, #560	; 0x230
    b0b4:	e0822201 	add	r2, r2, r1, lsl #4
    b0b8:	e2822010 	add	r2, r2, #16
    b0bc:	e24beb01 	sub	lr, fp, #1024	; 0x400
    b0c0:	e24e3044 	sub	r3, lr, #68	; 0x44
    b0c4:	e0831101 	add	r1, r3, r1, lsl #2
    b0c8:	e5911000 	ldr	r1, [r1]
    b0cc:	e5821004 	str	r1, [r2, #4]
    b0d0:	e58d002c 	str	r0, [sp, #44]	; 0x2c
    b0d4:	e51b0450 	ldr	r0, [fp, #-1104]	; 0xfffffbb0
    b0d8:	e2800001 	add	r0, r0, #1
    b0dc:	e50b0450 	str	r0, [fp, #-1104]	; 0xfffffbb0
    b0e0:	eaffffec 	b	b098 <hostname_to_ip_at_dns+0x538>
    b0e4:	eaffffff 	b	b0e8 <hostname_to_ip_at_dns+0x588>
    b0e8:	ea000008 	b	b110 <hostname_to_ip_at_dns+0x5b0>
    b0ec:	e59f002c 	ldr	r0, [pc, #44]	; b120 <hostname_to_ip_at_dns+0x5c0>
    b0f0:	e5900000 	ldr	r0, [r0]
    b0f4:	e58d0028 	str	r0, [sp, #40]	; 0x28
    b0f8:	ebfff7a0 	bl	8f80 <__errno_location@plt>
    b0fc:	e59f1018 	ldr	r1, [pc, #24]	; b11c <hostname_to_ip_at_dns+0x5bc>
    b100:	e5902000 	ldr	r2, [r0]
    b104:	e59d0028 	ldr	r0, [sp, #40]	; 0x28
    b108:	ebfffbac 	bl	9fc0 <msg_printf>
    b10c:	e58d0024 	str	r0, [sp, #36]	; 0x24
    b110:	e51b0030 	ldr	r0, [fp, #-48]	; 0xffffffd0
    b114:	e24bd01c 	sub	sp, fp, #28
    b118:	e8bd8ff0 	pop	{r4, r5, r6, r7, r8, r9, sl, fp, pc}
    b11c:	0000cc3b 	andeq	ip, r0, fp, lsr ip
    b120:	0000f140 	andeq	pc, r0, r0, asr #2
    b124:	00000000 	andeq	r0, r0, r0
    b128:	00000001 	andeq	r0, r0, r1
    b12c:	00000200 	andeq	r0, r0, r0, lsl #4
    b130:	ffffff7f 			; <UNDEFINED> instruction: 0xffffff7f
    b134:	0000cc0a 	andeq	ip, r0, sl, lsl #24
    b138:	0000f140 	andeq	pc, r0, r0, asr #2
    b13c:	0000cbcf 	andeq	ip, r0, pc, asr #23
    b140:	fffffffd 			; <UNDEFINED> instruction: 0xfffffffd
    b144:	0000cbbd 			; <UNDEFINED> instruction: 0x0000cbbd
    b148:	0000f140 	andeq	pc, r0, r0, asr #2
    b14c:	fffffffc 			; <UNDEFINED> instruction: 0xfffffffc
    b150:	0000cb8c 	andeq	ip, r0, ip, lsl #23
    b154:	ffffffff 			; <UNDEFINED> instruction: 0xffffffff
    b158:	0000cb6d 	andeq	ip, r0, sp, ror #22
    b15c:	0000cb5d 	andeq	ip, r0, sp, asr fp
    b160:	0000f140 	andeq	pc, r0, r0, asr #2
    b164:	00000402 	andeq	r0, r0, r2, lsl #8
    b168:	fffffffe 			; <UNDEFINED> instruction: 0xfffffffe
    b16c:	0000cb38 	andeq	ip, r0, r8, lsr fp
    b170:	0000cb32 	andeq	ip, r0, r2, lsr fp
    b174:	0000f140 	andeq	pc, r0, r0, asr #2
    b178:	00000100 	andeq	r0, r0, r0, lsl #2
    b17c:	00000002 	andeq	r0, r0, r2
    b180:	00000004 	andeq	r0, r0, r4

0000b184 <get_public_ip>:
    b184:	e92d4800 	push	{fp, lr}
    b188:	e1a0b00d 	mov	fp, sp
    b18c:	e24dd018 	sub	sp, sp, #24
    b190:	e59f105c 	ldr	r1, [pc, #92]	; b1f4 <get_public_ip+0x70>
    b194:	e59f205c 	ldr	r2, [pc, #92]	; b1f8 <get_public_ip+0x74>
    b198:	e50b0004 	str	r0, [fp, #-4]
    b19c:	e1a00001 	mov	r0, r1
    b1a0:	e1a01002 	mov	r1, r2
    b1a4:	e28d200c 	add	r2, sp, #12
    b1a8:	ebfffe6c 	bl	ab60 <hostname_to_ip_at_dns>
    b1ac:	e50b0008 	str	r0, [fp, #-8]
    b1b0:	e51b0008 	ldr	r0, [fp, #-8]
    b1b4:	e3500000 	cmp	r0, #0
    b1b8:	1a00000a 	bne	b1e8 <get_public_ip+0x64>
    b1bc:	e51b0004 	ldr	r0, [fp, #-4]
    b1c0:	e59d100c 	ldr	r1, [sp, #12]
    b1c4:	e58d0008 	str	r0, [sp, #8]
    b1c8:	e1a00001 	mov	r0, r1
    b1cc:	ebfff807 	bl	91f0 <inet_ntoa@plt>
    b1d0:	e59d1008 	ldr	r1, [sp, #8]
    b1d4:	e58d0004 	str	r0, [sp, #4]
    b1d8:	e1a00001 	mov	r0, r1
    b1dc:	e59d1004 	ldr	r1, [sp, #4]
    b1e0:	ebfff778 	bl	8fc8 <strcpy@plt>
    b1e4:	e58d0000 	str	r0, [sp]
    b1e8:	e51b0008 	ldr	r0, [fp, #-8]
    b1ec:	e1a0d00b 	mov	sp, fp
    b1f0:	e8bd8800 	pop	{fp, pc}
    b1f4:	0000cc55 	andeq	ip, r0, r5, asr ip
    b1f8:	0000cc6b 	andeq	ip, r0, fp, ror #24

0000b1fc <pushover_init>:
    b1fc:	e92d4830 	push	{r4, r5, fp, lr}
    b200:	e28db008 	add	fp, sp, #8
    b204:	e24dd0c8 	sub	sp, sp, #200	; 0xc8
    b208:	e24ddb06 	sub	sp, sp, #6144	; 0x1800
    b20c:	e50b0010 	str	r0, [fp, #-16]
    b210:	e51b0010 	ldr	r0, [fp, #-16]
    b214:	ebfff789 	bl	9040 <strlen@plt>
    b218:	e3500a01 	cmp	r0, #4096	; 0x1000
    b21c:	9a000002 	bls	b22c <pushover_init+0x30>
    b220:	e59f0574 	ldr	r0, [pc, #1396]	; b79c <pushover_init+0x5a0>
    b224:	e50b000c 	str	r0, [fp, #-12]
    b228:	ea00014d 	b	b764 <pushover_init+0x568>
    b22c:	e51b0010 	ldr	r0, [fp, #-16]
    b230:	e5d00000 	ldrb	r0, [r0]
    b234:	e350002f 	cmp	r0, #47	; 0x2f
    b238:	0a00002c 	beq	b2f0 <pushover_init+0xf4>
    b23c:	e59f152c 	ldr	r1, [pc, #1324]	; b770 <pushover_init+0x574>
    b240:	e28deb02 	add	lr, sp, #2048	; 0x800
    b244:	e28e00b7 	add	r0, lr, #183	; 0xb7
    b248:	ebfffc76 	bl	a428 <get_current_exec_path>
    b24c:	e50b0014 	str	r0, [fp, #-20]	; 0xffffffec
    b250:	e51b0014 	ldr	r0, [fp, #-20]	; 0xffffffec
    b254:	e3500000 	cmp	r0, #0
    b258:	1a000016 	bne	b2b8 <pushover_init+0xbc>
    b25c:	e28deb02 	add	lr, sp, #2048	; 0x800
    b260:	e28e00b7 	add	r0, lr, #183	; 0xb7
    b264:	ebfff775 	bl	9040 <strlen@plt>
    b268:	e51be010 	ldr	lr, [fp, #-16]
    b26c:	e58d0078 	str	r0, [sp, #120]	; 0x78
    b270:	e1a0000e 	mov	r0, lr
    b274:	ebfff771 	bl	9040 <strlen@plt>
    b278:	e59de078 	ldr	lr, [sp, #120]	; 0x78
    b27c:	e08e0000 	add	r0, lr, r0
    b280:	e3500a01 	cmp	r0, #4096	; 0x1000
    b284:	8a000005 	bhi	b2a0 <pushover_init+0xa4>
    b288:	e28deb02 	add	lr, sp, #2048	; 0x800
    b28c:	e28e00b7 	add	r0, lr, #183	; 0xb7
    b290:	e51b1010 	ldr	r1, [fp, #-16]
    b294:	ebfff7ab 	bl	9148 <strcat@plt>
    b298:	e58d0074 	str	r0, [sp, #116]	; 0x74
    b29c:	ea000004 	b	b2b4 <pushover_init+0xb8>
    b2a0:	e28deb02 	add	lr, sp, #2048	; 0x800
    b2a4:	e28e00b7 	add	r0, lr, #183	; 0xb7
    b2a8:	e51b1010 	ldr	r1, [fp, #-16]
    b2ac:	ebfff745 	bl	8fc8 <strcpy@plt>
    b2b0:	e58d0070 	str	r0, [sp, #112]	; 0x70
    b2b4:	ea00000c 	b	b2ec <pushover_init+0xf0>
    b2b8:	e59f14b4 	ldr	r1, [pc, #1204]	; b774 <pushover_init+0x578>
    b2bc:	e59f04b4 	ldr	r0, [pc, #1204]	; b778 <pushover_init+0x57c>
    b2c0:	e5900000 	ldr	r0, [r0]
    b2c4:	e51b2014 	ldr	r2, [fp, #-20]	; 0xffffffec
    b2c8:	ebfffb3c 	bl	9fc0 <msg_printf>
    b2cc:	e28deb02 	add	lr, sp, #2048	; 0x800
    b2d0:	e28e10b7 	add	r1, lr, #183	; 0xb7
    b2d4:	e51b2010 	ldr	r2, [fp, #-16]
    b2d8:	e58d006c 	str	r0, [sp, #108]	; 0x6c
    b2dc:	e1a00001 	mov	r0, r1
    b2e0:	e1a01002 	mov	r1, r2
    b2e4:	ebfff737 	bl	8fc8 <strcpy@plt>
    b2e8:	e58d0068 	str	r0, [sp, #104]	; 0x68
    b2ec:	ea000004 	b	b304 <pushover_init+0x108>
    b2f0:	e28deb02 	add	lr, sp, #2048	; 0x800
    b2f4:	e28e00b7 	add	r0, lr, #183	; 0xb7
    b2f8:	e51b1010 	ldr	r1, [fp, #-16]
    b2fc:	ebfff731 	bl	8fc8 <strcpy@plt>
    b300:	e58d0064 	str	r0, [sp, #100]	; 0x64
    b304:	e59f1474 	ldr	r1, [pc, #1140]	; b780 <pushover_init+0x584>
    b308:	e28deb02 	add	lr, sp, #2048	; 0x800
    b30c:	e28e00b7 	add	r0, lr, #183	; 0xb7
    b310:	ebfff765 	bl	90ac <fopen@plt>
    b314:	e59f1460 	ldr	r1, [pc, #1120]	; b77c <pushover_init+0x580>
    b318:	e50b0018 	str	r0, [fp, #-24]	; 0xffffffe8
    b31c:	e51b0018 	ldr	r0, [fp, #-24]	; 0xffffffe8
    b320:	e1500001 	cmp	r0, r1
    b324:	0a0000fc 	beq	b71c <pushover_init+0x520>
    b328:	e59f044c 	ldr	r0, [pc, #1100]	; b77c <pushover_init+0x580>
    b32c:	e3a01000 	mov	r1, #0
    b330:	e5cd1093 	strb	r1, [sp, #147]	; 0x93
    b334:	e59f2458 	ldr	r2, [pc, #1112]	; b794 <pushover_init+0x598>
    b338:	e5c21000 	strb	r1, [r2]
    b33c:	e59f2454 	ldr	r2, [pc, #1108]	; b798 <pushover_init+0x59c>
    b340:	e5c21000 	strb	r1, [r2]
    b344:	e59f1440 	ldr	r1, [pc, #1088]	; b78c <pushover_init+0x590>
    b348:	e59f2440 	ldr	r2, [pc, #1088]	; b790 <pushover_init+0x594>
    b34c:	e58d0060 	str	r0, [sp, #96]	; 0x60
    b350:	e1a00001 	mov	r0, r1
    b354:	e1a01002 	mov	r1, r2
    b358:	ebfff71a 	bl	8fc8 <strcpy@plt>
    b35c:	e59d1060 	ldr	r1, [sp, #96]	; 0x60
    b360:	e50b1014 	str	r1, [fp, #-20]	; 0xffffffec
    b364:	e58d005c 	str	r0, [sp, #92]	; 0x5c
    b368:	e51b0018 	ldr	r0, [fp, #-24]	; 0xffffffe8
    b36c:	ebfff7a5 	bl	9208 <feof@plt>
    b370:	e3a0e000 	mov	lr, #0
    b374:	e3500000 	cmp	r0, #0
    b378:	e58de058 	str	lr, [sp, #88]	; 0x58
    b37c:	1a000005 	bne	b398 <pushover_init+0x19c>
    b380:	eaffffff 	b	b384 <pushover_init+0x188>
    b384:	e51b0014 	ldr	r0, [fp, #-20]	; 0xffffffec
    b388:	e3500000 	cmp	r0, #0
    b38c:	e59f03e8 	ldr	r0, [pc, #1000]	; b77c <pushover_init+0x580>
    b390:	03a00001 	moveq	r0, #1
    b394:	e58d0058 	str	r0, [sp, #88]	; 0x58
    b398:	e59d0058 	ldr	r0, [sp, #88]	; 0x58
    b39c:	e3100001 	tst	r0, #1
    b3a0:	0a000019 	beq	b40c <pushover_init+0x210>
    b3a4:	e59f1460 	ldr	r1, [pc, #1120]	; b80c <pushover_init+0x610>
    b3a8:	e28d2093 	add	r2, sp, #147	; 0x93
    b3ac:	e51b0018 	ldr	r0, [fp, #-24]	; 0xffffffe8
    b3b0:	ebfff797 	bl	9214 <__isoc99_fscanf@plt>
    b3b4:	e3500000 	cmp	r0, #0
    b3b8:	1a000012 	bne	b408 <pushover_init+0x20c>
    b3bc:	e59f144c 	ldr	r1, [pc, #1100]	; b810 <pushover_init+0x614>
    b3c0:	e59f244c 	ldr	r2, [pc, #1100]	; b814 <pushover_init+0x618>
    b3c4:	e51b0018 	ldr	r0, [fp, #-24]	; 0xffffffe8
    b3c8:	ebfff791 	bl	9214 <__isoc99_fscanf@plt>
    b3cc:	e3500000 	cmp	r0, #0
    b3d0:	1a00000c 	bne	b408 <pushover_init+0x20c>
    b3d4:	e59f143c 	ldr	r1, [pc, #1084]	; b818 <pushover_init+0x61c>
    b3d8:	e59f243c 	ldr	r2, [pc, #1084]	; b81c <pushover_init+0x620>
    b3dc:	e51b0018 	ldr	r0, [fp, #-24]	; 0xffffffe8
    b3e0:	ebfff78b 	bl	9214 <__isoc99_fscanf@plt>
    b3e4:	e3500000 	cmp	r0, #0
    b3e8:	1a000006 	bne	b408 <pushover_init+0x20c>
    b3ec:	e59f142c 	ldr	r1, [pc, #1068]	; b820 <pushover_init+0x624>
    b3f0:	e59f042c 	ldr	r0, [pc, #1068]	; b824 <pushover_init+0x628>
    b3f4:	e5900000 	ldr	r0, [r0]
    b3f8:	ebfffaf0 	bl	9fc0 <msg_printf>
    b3fc:	e59f1398 	ldr	r1, [pc, #920]	; b79c <pushover_init+0x5a0>
    b400:	e50b1014 	str	r1, [fp, #-20]	; 0xffffffec
    b404:	e58d0054 	str	r0, [sp, #84]	; 0x54
    b408:	eaffffd6 	b	b368 <pushover_init+0x16c>
    b40c:	e51b0014 	ldr	r0, [fp, #-20]	; 0xffffffec
    b410:	e3500000 	cmp	r0, #0
    b414:	1a0000bc 	bne	b70c <pushover_init+0x510>
    b418:	e28d0093 	add	r0, sp, #147	; 0x93
    b41c:	ebfff707 	bl	9040 <strlen@plt>
    b420:	e3500000 	cmp	r0, #0
    b424:	9a0000b0 	bls	b6ec <pushover_init+0x4f0>
    b428:	e59f0364 	ldr	r0, [pc, #868]	; b794 <pushover_init+0x598>
    b42c:	ebfff703 	bl	9040 <strlen@plt>
    b430:	e3500000 	cmp	r0, #0
    b434:	9a0000a4 	bls	b6cc <pushover_init+0x4d0>
    b438:	e59f0358 	ldr	r0, [pc, #856]	; b798 <pushover_init+0x59c>
    b43c:	ebfff6ff 	bl	9040 <strlen@plt>
    b440:	e3500000 	cmp	r0, #0
    b444:	9a000098 	bls	b6ac <pushover_init+0x4b0>
    b448:	e59f1368 	ldr	r1, [pc, #872]	; b7b8 <pushover_init+0x5bc>
    b44c:	e59f2368 	ldr	r2, [pc, #872]	; b7bc <pushover_init+0x5c0>
    b450:	e28d0093 	add	r0, sp, #147	; 0x93
    b454:	ebfff771 	bl	9220 <strncmp@plt>
    b458:	e3500000 	cmp	r0, #0
    b45c:	1a00008a 	bne	b68c <pushover_init+0x490>
    b460:	e59f1360 	ldr	r1, [pc, #864]	; b7c8 <pushover_init+0x5cc>
    b464:	e28d0093 	add	r0, sp, #147	; 0x93
    b468:	e2800007 	add	r0, r0, #7
    b46c:	ebfff76e 	bl	922c <strchr@plt>
    b470:	e59f1304 	ldr	r1, [pc, #772]	; b77c <pushover_init+0x580>
    b474:	e58d008c 	str	r0, [sp, #140]	; 0x8c
    b478:	e59d008c 	ldr	r0, [sp, #140]	; 0x8c
    b47c:	e1500001 	cmp	r0, r1
    b480:	1a000003 	bne	b494 <pushover_init+0x298>
    b484:	e28d0093 	add	r0, sp, #147	; 0x93
    b488:	e2800007 	add	r0, r0, #7
    b48c:	e58d008c 	str	r0, [sp, #140]	; 0x8c
    b490:	ea000002 	b	b4a0 <pushover_init+0x2a4>
    b494:	e59d008c 	ldr	r0, [sp, #140]	; 0x8c
    b498:	e2800001 	add	r0, r0, #1
    b49c:	e58d008c 	str	r0, [sp, #140]	; 0x8c
    b4a0:	e59f1324 	ldr	r1, [pc, #804]	; b7cc <pushover_init+0x5d0>
    b4a4:	e59d008c 	ldr	r0, [sp, #140]	; 0x8c
    b4a8:	ebfff75f 	bl	922c <strchr@plt>
    b4ac:	e59f12c8 	ldr	r1, [pc, #712]	; b77c <pushover_init+0x580>
    b4b0:	e58d0088 	str	r0, [sp, #136]	; 0x88
    b4b4:	e59d0088 	ldr	r0, [sp, #136]	; 0x88
    b4b8:	e1500001 	cmp	r0, r1
    b4bc:	1a000013 	bne	b510 <pushover_init+0x314>
    b4c0:	e59f1318 	ldr	r1, [pc, #792]	; b7e0 <pushover_init+0x5e4>
    b4c4:	e59f030c 	ldr	r0, [pc, #780]	; b7d8 <pushover_init+0x5dc>
    b4c8:	e59f2314 	ldr	r2, [pc, #788]	; b7e4 <pushover_init+0x5e8>
    b4cc:	e5820000 	str	r0, [r2]
    b4d0:	e59d008c 	ldr	r0, [sp, #140]	; 0x8c
    b4d4:	ebfff754 	bl	922c <strchr@plt>
    b4d8:	e59f129c 	ldr	r1, [pc, #668]	; b77c <pushover_init+0x580>
    b4dc:	e58d0088 	str	r0, [sp, #136]	; 0x88
    b4e0:	e59d0088 	ldr	r0, [sp, #136]	; 0x88
    b4e4:	e1500001 	cmp	r0, r1
    b4e8:	1a000007 	bne	b50c <pushover_init+0x310>
    b4ec:	e59d008c 	ldr	r0, [sp, #140]	; 0x8c
    b4f0:	e59d108c 	ldr	r1, [sp, #140]	; 0x8c
    b4f4:	e58d0050 	str	r0, [sp, #80]	; 0x50
    b4f8:	e1a00001 	mov	r0, r1
    b4fc:	ebfff6cf 	bl	9040 <strlen@plt>
    b500:	e59d1050 	ldr	r1, [sp, #80]	; 0x50
    b504:	e0810000 	add	r0, r1, r0
    b508:	e58d0088 	str	r0, [sp, #136]	; 0x88
    b50c:	ea00000a 	b	b53c <pushover_init+0x340>
    b510:	e59f12b8 	ldr	r1, [pc, #696]	; b7d0 <pushover_init+0x5d4>
    b514:	e59f22b8 	ldr	r2, [pc, #696]	; b7d4 <pushover_init+0x5d8>
    b518:	e59d0088 	ldr	r0, [sp, #136]	; 0x88
    b51c:	e2800001 	add	r0, r0, #1
    b520:	ebfff744 	bl	9238 <__isoc99_sscanf@plt>
    b524:	e3500000 	cmp	r0, #0
    b528:	1a000002 	bne	b538 <pushover_init+0x33c>
    b52c:	e59f02a4 	ldr	r0, [pc, #676]	; b7d8 <pushover_init+0x5dc>
    b530:	e59f12a4 	ldr	r1, [pc, #676]	; b7dc <pushover_init+0x5e0>
    b534:	e5810000 	str	r0, [r1]
    b538:	eaffffff 	b	b53c <pushover_init+0x340>
    b53c:	e59f129c 	ldr	r1, [pc, #668]	; b7e0 <pushover_init+0x5e4>
    b540:	e59d0088 	ldr	r0, [sp, #136]	; 0x88
    b544:	ebfff738 	bl	922c <strchr@plt>
    b548:	e59f122c 	ldr	r1, [pc, #556]	; b77c <pushover_init+0x580>
    b54c:	e58d0084 	str	r0, [sp, #132]	; 0x84
    b550:	e59d0084 	ldr	r0, [sp, #132]	; 0x84
    b554:	e1500001 	cmp	r0, r1
    b558:	0a000014 	beq	b5b0 <pushover_init+0x3b4>
    b55c:	e59f0284 	ldr	r0, [pc, #644]	; b7e8 <pushover_init+0x5ec>
    b560:	e59d1084 	ldr	r1, [sp, #132]	; 0x84
    b564:	e58d004c 	str	r0, [sp, #76]	; 0x4c
    b568:	e1a00001 	mov	r0, r1
    b56c:	ebfff6b3 	bl	9040 <strlen@plt>
    b570:	e58d007c 	str	r0, [sp, #124]	; 0x7c
    b574:	e59d007c 	ldr	r0, [sp, #124]	; 0x7c
    b578:	e59d104c 	ldr	r1, [sp, #76]	; 0x4c
    b57c:	e1500001 	cmp	r0, r1
    b580:	8a000009 	bhi	b5ac <pushover_init+0x3b0>
    b584:	e59d1084 	ldr	r1, [sp, #132]	; 0x84
    b588:	e59d207c 	ldr	r2, [sp, #124]	; 0x7c
    b58c:	e59f01f8 	ldr	r0, [pc, #504]	; b78c <pushover_init+0x590>
    b590:	e58d0048 	str	r0, [sp, #72]	; 0x48
    b594:	ebfff72a 	bl	9244 <memcpy@plt>
    b598:	e59d107c 	ldr	r1, [sp, #124]	; 0x7c
    b59c:	e3a02000 	mov	r2, #0
    b5a0:	e59de048 	ldr	lr, [sp, #72]	; 0x48
    b5a4:	e7ce2001 	strb	r2, [lr, r1]
    b5a8:	e58d0044 	str	r0, [sp, #68]	; 0x44
    b5ac:	eaffffff 	b	b5b0 <pushover_init+0x3b4>
    b5b0:	e59d0088 	ldr	r0, [sp, #136]	; 0x88
    b5b4:	e59d108c 	ldr	r1, [sp, #140]	; 0x8c
    b5b8:	e0400001 	sub	r0, r0, r1
    b5bc:	e58d0080 	str	r0, [sp, #128]	; 0x80
    b5c0:	e59d0080 	ldr	r0, [sp, #128]	; 0x80
    b5c4:	e3500040 	cmp	r0, #64	; 0x40
    b5c8:	8a000027 	bhi	b66c <pushover_init+0x470>
    b5cc:	e59f0220 	ldr	r0, [pc, #544]	; b7f4 <pushover_init+0x5f8>
    b5d0:	e59f1220 	ldr	r1, [pc, #544]	; b7f8 <pushover_init+0x5fc>
    b5d4:	e59d208c 	ldr	r2, [sp, #140]	; 0x8c
    b5d8:	e59d3080 	ldr	r3, [sp, #128]	; 0x80
    b5dc:	e59fc218 	ldr	ip, [pc, #536]	; b7fc <pushover_init+0x600>
    b5e0:	e58d0040 	str	r0, [sp, #64]	; 0x40
    b5e4:	e1a0000c 	mov	r0, ip
    b5e8:	e58d103c 	str	r1, [sp, #60]	; 0x3c
    b5ec:	e1a01002 	mov	r1, r2
    b5f0:	e1a02003 	mov	r2, r3
    b5f4:	e58dc038 	str	ip, [sp, #56]	; 0x38
    b5f8:	ebfff711 	bl	9244 <memcpy@plt>
    b5fc:	e59d1080 	ldr	r1, [sp, #128]	; 0x80
    b600:	e3a02000 	mov	r2, #0
    b604:	e59d3038 	ldr	r3, [sp, #56]	; 0x38
    b608:	e7c32001 	strb	r2, [r3, r1]
    b60c:	e59d1040 	ldr	r1, [sp, #64]	; 0x40
    b610:	e58d0034 	str	r0, [sp, #52]	; 0x34
    b614:	e1a00001 	mov	r0, r1
    b618:	e59d103c 	ldr	r1, [sp, #60]	; 0x3c
    b61c:	ebfffcf8 	bl	aa04 <hostname_to_ip>
    b620:	e50b0014 	str	r0, [fp, #-20]	; 0xffffffec
    b624:	e51b0014 	ldr	r0, [fp, #-20]	; 0xffffffec
    b628:	e3500000 	cmp	r0, #0
    b62c:	1a00000d 	bne	b668 <pushover_init+0x46c>
    b630:	e59f01cc 	ldr	r0, [pc, #460]	; b804 <pushover_init+0x608>
    b634:	e5900000 	ldr	r0, [r0]
    b638:	e59f11c8 	ldr	r1, [pc, #456]	; b808 <pushover_init+0x60c>
    b63c:	e5911000 	ldr	r1, [r1]
    b640:	e58d0030 	str	r0, [sp, #48]	; 0x30
    b644:	e1a00001 	mov	r0, r1
    b648:	ebfff6e8 	bl	91f0 <inet_ntoa@plt>
    b64c:	e59f11ac 	ldr	r1, [pc, #428]	; b800 <pushover_init+0x604>
    b650:	e59de030 	ldr	lr, [sp, #48]	; 0x30
    b654:	e58d002c 	str	r0, [sp, #44]	; 0x2c
    b658:	e1a0000e 	mov	r0, lr
    b65c:	e59d202c 	ldr	r2, [sp, #44]	; 0x2c
    b660:	ebfffa56 	bl	9fc0 <msg_printf>
    b664:	e58d0028 	str	r0, [sp, #40]	; 0x28
    b668:	ea000006 	b	b688 <pushover_init+0x48c>
    b66c:	e59f1178 	ldr	r1, [pc, #376]	; b7ec <pushover_init+0x5f0>
    b670:	e59f0178 	ldr	r0, [pc, #376]	; b7f0 <pushover_init+0x5f4>
    b674:	e5900000 	ldr	r0, [r0]
    b678:	ebfffa50 	bl	9fc0 <msg_printf>
    b67c:	e59f1118 	ldr	r1, [pc, #280]	; b79c <pushover_init+0x5a0>
    b680:	e50b1014 	str	r1, [fp, #-20]	; 0xffffffec
    b684:	e58d0024 	str	r0, [sp, #36]	; 0x24
    b688:	ea000006 	b	b6a8 <pushover_init+0x4ac>
    b68c:	e59f112c 	ldr	r1, [pc, #300]	; b7c0 <pushover_init+0x5c4>
    b690:	e59f012c 	ldr	r0, [pc, #300]	; b7c4 <pushover_init+0x5c8>
    b694:	e5900000 	ldr	r0, [r0]
    b698:	ebfffa48 	bl	9fc0 <msg_printf>
    b69c:	e59f10f8 	ldr	r1, [pc, #248]	; b79c <pushover_init+0x5a0>
    b6a0:	e50b1014 	str	r1, [fp, #-20]	; 0xffffffec
    b6a4:	e58d0020 	str	r0, [sp, #32]
    b6a8:	ea000006 	b	b6c8 <pushover_init+0x4cc>
    b6ac:	e59f10fc 	ldr	r1, [pc, #252]	; b7b0 <pushover_init+0x5b4>
    b6b0:	e59f00fc 	ldr	r0, [pc, #252]	; b7b4 <pushover_init+0x5b8>
    b6b4:	e5900000 	ldr	r0, [r0]
    b6b8:	ebfffa40 	bl	9fc0 <msg_printf>
    b6bc:	e59f10d8 	ldr	r1, [pc, #216]	; b79c <pushover_init+0x5a0>
    b6c0:	e50b1014 	str	r1, [fp, #-20]	; 0xffffffec
    b6c4:	e58d001c 	str	r0, [sp, #28]
    b6c8:	ea000006 	b	b6e8 <pushover_init+0x4ec>
    b6cc:	e59f10d4 	ldr	r1, [pc, #212]	; b7a8 <pushover_init+0x5ac>
    b6d0:	e59f00d4 	ldr	r0, [pc, #212]	; b7ac <pushover_init+0x5b0>
    b6d4:	e5900000 	ldr	r0, [r0]
    b6d8:	ebfffa38 	bl	9fc0 <msg_printf>
    b6dc:	e59f10b8 	ldr	r1, [pc, #184]	; b79c <pushover_init+0x5a0>
    b6e0:	e50b1014 	str	r1, [fp, #-20]	; 0xffffffec
    b6e4:	e58d0018 	str	r0, [sp, #24]
    b6e8:	ea000006 	b	b708 <pushover_init+0x50c>
    b6ec:	e59f10ac 	ldr	r1, [pc, #172]	; b7a0 <pushover_init+0x5a4>
    b6f0:	e59f00ac 	ldr	r0, [pc, #172]	; b7a4 <pushover_init+0x5a8>
    b6f4:	e5900000 	ldr	r0, [r0]
    b6f8:	ebfffa30 	bl	9fc0 <msg_printf>
    b6fc:	e59f1098 	ldr	r1, [pc, #152]	; b79c <pushover_init+0x5a0>
    b700:	e50b1014 	str	r1, [fp, #-20]	; 0xffffffec
    b704:	e58d0014 	str	r0, [sp, #20]
    b708:	eaffffff 	b	b70c <pushover_init+0x510>
    b70c:	e51b0018 	ldr	r0, [fp, #-24]	; 0xffffffe8
    b710:	ebfff67d 	bl	910c <fclose@plt>
    b714:	e58d0010 	str	r0, [sp, #16]
    b718:	ea00000f 	b	b75c <pushover_init+0x560>
    b71c:	ebfff617 	bl	8f80 <__errno_location@plt>
    b720:	e28deb02 	add	lr, sp, #2048	; 0x800
    b724:	e28e20b7 	add	r2, lr, #183	; 0xb7
    b728:	e59fe058 	ldr	lr, [pc, #88]	; b788 <pushover_init+0x58c>
    b72c:	e5900000 	ldr	r0, [r0]
    b730:	e50b0014 	str	r0, [fp, #-20]	; 0xffffffec
    b734:	e59e0000 	ldr	r0, [lr]
    b738:	e58d200c 	str	r2, [sp, #12]
    b73c:	e58d0008 	str	r0, [sp, #8]
    b740:	ebfff60e 	bl	8f80 <__errno_location@plt>
    b744:	e59f1038 	ldr	r1, [pc, #56]	; b784 <pushover_init+0x588>
    b748:	e5903000 	ldr	r3, [r0]
    b74c:	e59d0008 	ldr	r0, [sp, #8]
    b750:	e59d200c 	ldr	r2, [sp, #12]
    b754:	ebfffa19 	bl	9fc0 <msg_printf>
    b758:	e58d0004 	str	r0, [sp, #4]
    b75c:	e51b0014 	ldr	r0, [fp, #-20]	; 0xffffffec
    b760:	e50b000c 	str	r0, [fp, #-12]
    b764:	e51b000c 	ldr	r0, [fp, #-12]
    b768:	e24bd008 	sub	sp, fp, #8
    b76c:	e8bd8830 	pop	{r4, r5, fp, pc}
    b770:	00001000 	andeq	r1, r0, r0
    b774:	0000cc7c 	andeq	ip, r0, ip, ror ip
    b778:	0000f140 	andeq	pc, r0, r0, asr #2
    b77c:	00000000 	andeq	r0, r0, r0
    b780:	0000cccc 	andeq	ip, r0, ip, asr #25
    b784:	0000cec3 	andeq	ip, r0, r3, asr #29
    b788:	0000f140 	andeq	pc, r0, r0, asr #2
    b78c:	0000f1ea 	andeq	pc, r0, sl, ror #3
    b790:	0000c97f 	andeq	ip, r0, pc, ror r9
    b794:	0000f148 	andeq	pc, r0, r8, asr #2
    b798:	0000f199 	muleq	r0, r9, r1
    b79c:	00000016 	andeq	r0, r0, r6, lsl r0
    b7a0:	0000ce89 	andeq	ip, r0, r9, lsl #29
    b7a4:	0000f140 	andeq	pc, r0, r0, asr #2
    b7a8:	0000ce51 	andeq	ip, r0, r1, asr lr
    b7ac:	0000f140 	andeq	pc, r0, r0, asr #2
    b7b0:	0000ce1a 	andeq	ip, r0, sl, lsl lr
    b7b4:	0000f140 	andeq	pc, r0, r0, asr #2
    b7b8:	0000cd48 	andeq	ip, r0, r8, asr #26
    b7bc:	00000007 	andeq	r0, r0, r7
    b7c0:	0000cdd5 	ldrdeq	ip, [r0], -r5
    b7c4:	0000f140 	andeq	pc, r0, r0, asr #2
    b7c8:	00000040 	andeq	r0, r0, r0, asr #32
    b7cc:	0000003a 	andeq	r0, r0, sl, lsr r0
    b7d0:	0000cd50 	andeq	ip, r0, r0, asr sp
    b7d4:	0000f22c 	andeq	pc, r0, ip, lsr #4
    b7d8:	00000bb8 			; <UNDEFINED> instruction: 0x00000bb8
    b7dc:	0000f22c 	andeq	pc, r0, ip, lsr #4
    b7e0:	0000002f 	andeq	r0, r0, pc, lsr #32
    b7e4:	0000f22c 	andeq	pc, r0, ip, lsr #4
    b7e8:	00000823 	andeq	r0, r0, r3, lsr #16
    b7ec:	0000cd7f 	andeq	ip, r0, pc, ror sp
    b7f0:	0000f140 	andeq	pc, r0, r0, asr #2
    b7f4:	0000f230 	andeq	pc, r0, r0, lsr r2	; <UNPREDICTABLE>
    b7f8:	0000f274 	andeq	pc, r0, r4, ror r2	; <UNPREDICTABLE>
    b7fc:	0000f230 	andeq	pc, r0, r0, lsr r2	; <UNPREDICTABLE>
    b800:	0000cd53 	andeq	ip, r0, r3, asr sp
    b804:	0000f140 	andeq	pc, r0, r0, asr #2
    b808:	0000f274 	andeq	pc, r0, r4, ror r2	; <UNPREDICTABLE>
    b80c:	0000cccf 	andeq	ip, r0, pc, asr #25
    b810:	0000cce4 	andeq	ip, r0, r4, ror #25
    b814:	0000f148 	andeq	pc, r0, r8, asr #2
    b818:	0000ccf2 	strdeq	ip, [r0], -r2
    b81c:	0000f199 	muleq	r0, r9, r1
    b820:	0000ccff 	strdeq	ip, [r0], -pc	; <UNPREDICTABLE>
    b824:	0000f140 	andeq	pc, r0, r0, asr #2

0000b828 <send_notification>:
    b828:	e92d4c10 	push	{r4, sl, fp, lr}
    b82c:	e28db008 	add	fp, sp, #8
    b830:	e24ddf52 	sub	sp, sp, #328	; 0x148
    b834:	e24ddb06 	sub	sp, sp, #6144	; 0x1800
    b838:	e59f259c 	ldr	r2, [pc, #1436]	; bddc <send_notification+0x5b4>
    b83c:	e59f359c 	ldr	r3, [pc, #1436]	; bde0 <send_notification+0x5b8>
    b840:	e59fc59c 	ldr	ip, [pc, #1436]	; bde4 <send_notification+0x5bc>
    b844:	e50b000c 	str	r0, [fp, #-12]
    b848:	e50b1010 	str	r1, [fp, #-16]
    b84c:	e50bc014 	str	ip, [fp, #-20]	; 0xffffffec
    b850:	e1a00002 	mov	r0, r2
    b854:	e1a01003 	mov	r1, r3
    b858:	e1a0200c 	mov	r2, ip
    b85c:	ebfff67b 	bl	9250 <socket@plt>
    b860:	e50b0018 	str	r0, [fp, #-24]	; 0xffffffe8
    b864:	e51b0018 	ldr	r0, [fp, #-24]	; 0xffffffe8
    b868:	e3700001 	cmn	r0, #1
    b86c:	0a00014b 	beq	bda0 <send_notification+0x578>
    b870:	e59f0580 	ldr	r0, [pc, #1408]	; bdf8 <send_notification+0x5d0>
    b874:	e3a01000 	mov	r1, #0
    b878:	e50b101c 	str	r1, [fp, #-28]	; 0xffffffe4
    b87c:	e50b1020 	str	r1, [fp, #-32]	; 0xffffffe0
    b880:	e50b1024 	str	r1, [fp, #-36]	; 0xffffffdc
    b884:	e50b1028 	str	r1, [fp, #-40]	; 0xffffffd8
    b888:	e3a01002 	mov	r1, #2
    b88c:	e14b12b8 	strh	r1, [fp, #-40]	; 0xffffffd8
    b890:	e5900000 	ldr	r0, [r0]
    b894:	e6ff0070 	uxth	r0, r0
    b898:	ebfff66f 	bl	925c <htons@plt>
    b89c:	e59f254c 	ldr	r2, [pc, #1356]	; bdf0 <send_notification+0x5c8>
    b8a0:	e59f154c 	ldr	r1, [pc, #1356]	; bdf4 <send_notification+0x5cc>
    b8a4:	e14b02b6 	strh	r0, [fp, #-38]	; 0xffffffda
    b8a8:	e5910000 	ldr	r0, [r1]
    b8ac:	e50b0024 	str	r0, [fp, #-36]	; 0xffffffdc
    b8b0:	e51b0018 	ldr	r0, [fp, #-24]	; 0xffffffe8
    b8b4:	e24b1028 	sub	r1, fp, #40	; 0x28
    b8b8:	ebfff66a 	bl	9268 <connect@plt>
    b8bc:	e50b0014 	str	r0, [fp, #-20]	; 0xffffffec
    b8c0:	e51b0014 	ldr	r0, [fp, #-20]	; 0xffffffec
    b8c4:	e3500000 	cmp	r0, #0
    b8c8:	1a00011b 	bne	bd3c <send_notification+0x514>
    b8cc:	e59f1530 	ldr	r1, [pc, #1328]	; be04 <send_notification+0x5dc>
    b8d0:	e51b0018 	ldr	r0, [fp, #-24]	; 0xffffffe8
    b8d4:	ebfff666 	bl	9274 <fdopen@plt>
    b8d8:	e59f1504 	ldr	r1, [pc, #1284]	; bde4 <send_notification+0x5bc>
    b8dc:	e50b002c 	str	r0, [fp, #-44]	; 0xffffffd4
    b8e0:	e51b002c 	ldr	r0, [fp, #-44]	; 0xffffffd4
    b8e4:	e1500001 	cmp	r0, r1
    b8e8:	0a0000fd 	beq	bce4 <send_notification+0x4bc>
    b8ec:	e59f0524 	ldr	r0, [pc, #1316]	; be18 <send_notification+0x5f0>
    b8f0:	ebfff5d2 	bl	9040 <strlen@plt>
    b8f4:	e2800006 	add	r0, r0, #6
    b8f8:	e2800001 	add	r0, r0, #1
    b8fc:	e2800005 	add	r0, r0, #5
    b900:	e59fe50c 	ldr	lr, [pc, #1292]	; be14 <send_notification+0x5ec>
    b904:	e58d0094 	str	r0, [sp, #148]	; 0x94
    b908:	e1a0000e 	mov	r0, lr
    b90c:	ebfff5cb 	bl	9040 <strlen@plt>
    b910:	e59de094 	ldr	lr, [sp, #148]	; 0x94
    b914:	e08e0000 	add	r0, lr, r0
    b918:	e2800001 	add	r0, r0, #1
    b91c:	e2800008 	add	r0, r0, #8
    b920:	e51be00c 	ldr	lr, [fp, #-12]
    b924:	e58d0090 	str	r0, [sp, #144]	; 0x90
    b928:	e1a0000e 	mov	r0, lr
    b92c:	ebfff5c3 	bl	9040 <strlen@plt>
    b930:	e59de090 	ldr	lr, [sp, #144]	; 0x90
    b934:	e08e0000 	add	r0, lr, r0
    b938:	e2800001 	add	r0, r0, #1
    b93c:	e2800009 	add	r0, r0, #9
    b940:	e51be010 	ldr	lr, [fp, #-16]
    b944:	e58d008c 	str	r0, [sp, #140]	; 0x8c
    b948:	e1a0000e 	mov	r0, lr
    b94c:	ebfff5bb 	bl	9040 <strlen@plt>
    b950:	e59de08c 	ldr	lr, [sp, #140]	; 0x8c
    b954:	e08e0000 	add	r0, lr, r0
    b958:	e50b0030 	str	r0, [fp, #-48]	; 0xffffffd0
    b95c:	e51b0010 	ldr	r0, [fp, #-16]
    b960:	e59f14a8 	ldr	r1, [pc, #1192]	; be10 <send_notification+0x5e8>
    b964:	ebfff594 	bl	8fbc <strcmp@plt>
    b968:	e3500000 	cmp	r0, #0
    b96c:	1a000002 	bne	b97c <send_notification+0x154>
    b970:	e51b0030 	ldr	r0, [fp, #-48]	; 0xffffffd0
    b974:	e2800014 	add	r0, r0, #20
    b978:	e50b0030 	str	r0, [fp, #-48]	; 0xffffffd0
    b97c:	e59f14b4 	ldr	r1, [pc, #1204]	; be38 <send_notification+0x610>
    b980:	e59f24b4 	ldr	r2, [pc, #1204]	; be3c <send_notification+0x614>
    b984:	e51b002c 	ldr	r0, [fp, #-44]	; 0xffffffd4
    b988:	ebfff5c1 	bl	9094 <fprintf@plt>
    b98c:	e59f149c 	ldr	r1, [pc, #1180]	; be30 <send_notification+0x608>
    b990:	e59f249c 	ldr	r2, [pc, #1180]	; be34 <send_notification+0x60c>
    b994:	e51be02c 	ldr	lr, [fp, #-44]	; 0xffffffd4
    b998:	e58d0088 	str	r0, [sp, #136]	; 0x88
    b99c:	e1a0000e 	mov	r0, lr
    b9a0:	ebfff5bb 	bl	9094 <fprintf@plt>
    b9a4:	e59f1480 	ldr	r1, [pc, #1152]	; be2c <send_notification+0x604>
    b9a8:	e51b202c 	ldr	r2, [fp, #-44]	; 0xffffffd4
    b9ac:	e58d0084 	str	r0, [sp, #132]	; 0x84
    b9b0:	e1a00002 	mov	r0, r2
    b9b4:	ebfff5b6 	bl	9094 <fprintf@plt>
    b9b8:	e59f1468 	ldr	r1, [pc, #1128]	; be28 <send_notification+0x600>
    b9bc:	e51b202c 	ldr	r2, [fp, #-44]	; 0xffffffd4
    b9c0:	e51be030 	ldr	lr, [fp, #-48]	; 0xffffffd0
    b9c4:	e58d0080 	str	r0, [sp, #128]	; 0x80
    b9c8:	e1a00002 	mov	r0, r2
    b9cc:	e1a0200e 	mov	r2, lr
    b9d0:	ebfff5af 	bl	9094 <fprintf@plt>
    b9d4:	e59f1440 	ldr	r1, [pc, #1088]	; be1c <send_notification+0x5f4>
    b9d8:	e59f2440 	ldr	r2, [pc, #1088]	; be20 <send_notification+0x5f8>
    b9dc:	e59f3440 	ldr	r3, [pc, #1088]	; be24 <send_notification+0x5fc>
    b9e0:	e51be02c 	ldr	lr, [fp, #-44]	; 0xffffffd4
    b9e4:	e51bc00c 	ldr	ip, [fp, #-12]
    b9e8:	e51b4010 	ldr	r4, [fp, #-16]
    b9ec:	e58d007c 	str	r0, [sp, #124]	; 0x7c
    b9f0:	e1a0000e 	mov	r0, lr
    b9f4:	e58dc000 	str	ip, [sp]
    b9f8:	e58d4004 	str	r4, [sp, #4]
    b9fc:	ebfff5a4 	bl	9094 <fprintf@plt>
    ba00:	e51b1010 	ldr	r1, [fp, #-16]
    ba04:	e59f2404 	ldr	r2, [pc, #1028]	; be10 <send_notification+0x5e8>
    ba08:	e58d0078 	str	r0, [sp, #120]	; 0x78
    ba0c:	e1a00001 	mov	r0, r1
    ba10:	e1a01002 	mov	r1, r2
    ba14:	ebfff568 	bl	8fbc <strcmp@plt>
    ba18:	e3500000 	cmp	r0, #0
    ba1c:	1a000003 	bne	ba30 <send_notification+0x208>
    ba20:	e59f1418 	ldr	r1, [pc, #1048]	; be40 <send_notification+0x618>
    ba24:	e51b002c 	ldr	r0, [fp, #-44]	; 0xffffffd4
    ba28:	ebfff599 	bl	9094 <fprintf@plt>
    ba2c:	e58d0074 	str	r0, [sp, #116]	; 0x74
    ba30:	e59f140c 	ldr	r1, [pc, #1036]	; be44 <send_notification+0x61c>
    ba34:	e51b002c 	ldr	r0, [fp, #-44]	; 0xffffffd4
    ba38:	e24b2034 	sub	r2, fp, #52	; 0x34
    ba3c:	ebfff5f4 	bl	9214 <__isoc99_fscanf@plt>
    ba40:	e50b0038 	str	r0, [fp, #-56]	; 0xffffffc8
    ba44:	e51b0038 	ldr	r0, [fp, #-56]	; 0xffffffc8
    ba48:	e3500001 	cmp	r0, #1
    ba4c:	1a000091 	bne	bc98 <send_notification+0x470>
    ba50:	e51b0034 	ldr	r0, [fp, #-52]	; 0xffffffcc
    ba54:	e35000c8 	cmp	r0, #200	; 0xc8
    ba58:	1a000085 	bne	bc74 <send_notification+0x44c>
    ba5c:	e59f0380 	ldr	r0, [pc, #896]	; bde4 <send_notification+0x5bc>
    ba60:	e50b0868 	str	r0, [fp, #-2152]	; 0xfffff798
    ba64:	e50b0864 	str	r0, [fp, #-2148]	; 0xfffff79c
    ba68:	e59f13ec 	ldr	r1, [pc, #1004]	; be5c <send_notification+0x634>
    ba6c:	e24beb02 	sub	lr, fp, #2048	; 0x800
    ba70:	e24e005c 	sub	r0, lr, #92	; 0x5c
    ba74:	e51b202c 	ldr	r2, [fp, #-44]	; 0xffffffd4
    ba78:	ebfff600 	bl	9280 <fgets@plt>
    ba7c:	e59f1360 	ldr	r1, [pc, #864]	; bde4 <send_notification+0x5bc>
    ba80:	e50b0860 	str	r0, [fp, #-2144]	; 0xfffff7a0
    ba84:	e1500001 	cmp	r0, r1
    ba88:	0a00000f 	beq	bacc <send_notification+0x2a4>
    ba8c:	e55b085c 	ldrb	r0, [fp, #-2140]	; 0xfffff7a4
    ba90:	e350000d 	cmp	r0, #13
    ba94:	1a000000 	bne	ba9c <send_notification+0x274>
    ba98:	ea00000b 	b	bacc <send_notification+0x2a4>
    ba9c:	e51b0864 	ldr	r0, [fp, #-2148]	; 0xfffff79c
    baa0:	e2800001 	add	r0, r0, #1
    baa4:	e50b0864 	str	r0, [fp, #-2148]	; 0xfffff79c
    baa8:	e51b0864 	ldr	r0, [fp, #-2148]	; 0xfffff79c
    baac:	e3500b01 	cmp	r0, #1024	; 0x400
    bab0:	9a000004 	bls	bac8 <send_notification+0x2a0>
    bab4:	e59f0324 	ldr	r0, [pc, #804]	; bde0 <send_notification+0x5b8>
    bab8:	e59f1324 	ldr	r1, [pc, #804]	; bde4 <send_notification+0x5bc>
    babc:	e50b1860 	str	r1, [fp, #-2144]	; 0xfffff7a0
    bac0:	e50b0868 	str	r0, [fp, #-2152]	; 0xfffff798
    bac4:	ea000000 	b	bacc <send_notification+0x2a4>
    bac8:	eaffffe6 	b	ba68 <send_notification+0x240>
    bacc:	e59f0310 	ldr	r0, [pc, #784]	; bde4 <send_notification+0x5bc>
    bad0:	e51b1860 	ldr	r1, [fp, #-2144]	; 0xfffff7a0
    bad4:	e1510000 	cmp	r1, r0
    bad8:	0a00004d 	beq	bc14 <send_notification+0x3ec>
    badc:	e59f1390 	ldr	r1, [pc, #912]	; be74 <send_notification+0x64c>
    bae0:	e51b002c 	ldr	r0, [fp, #-44]	; 0xffffffd4
    bae4:	ebfff5ca 	bl	9214 <__isoc99_fscanf@plt>
    bae8:	e59f12f4 	ldr	r1, [pc, #756]	; bde4 <send_notification+0x5bc>
    baec:	e50b1870 	str	r1, [fp, #-2160]	; 0xfffff790
    baf0:	e58d0070 	str	r0, [sp, #112]	; 0x70
    baf4:	e59f137c 	ldr	r1, [pc, #892]	; be78 <send_notification+0x650>
    baf8:	e28deb02 	add	lr, sp, #2048	; 0x800
    bafc:	e28e20bc 	add	r2, lr, #188	; 0xbc
    bb00:	e51b002c 	ldr	r0, [fp, #-44]	; 0xffffffd4
    bb04:	ebfff5c2 	bl	9214 <__isoc99_fscanf@plt>
    bb08:	e3500001 	cmp	r0, #1
    bb0c:	1a000022 	bne	bb9c <send_notification+0x374>
    bb10:	e59f137c 	ldr	r1, [pc, #892]	; be94 <send_notification+0x66c>
    bb14:	e51b002c 	ldr	r0, [fp, #-44]	; 0xffffffd4
    bb18:	ebfff5bd 	bl	9214 <__isoc99_fscanf@plt>
    bb1c:	e59f136c 	ldr	r1, [pc, #876]	; be90 <send_notification+0x668>
    bb20:	e28d2098 	add	r2, sp, #152	; 0x98
    bb24:	e51be02c 	ldr	lr, [fp, #-44]	; 0xffffffd4
    bb28:	e58d006c 	str	r0, [sp, #108]	; 0x6c
    bb2c:	e1a0000e 	mov	r0, lr
    bb30:	ebfff5b7 	bl	9214 <__isoc99_fscanf@plt>
    bb34:	e3500001 	cmp	r0, #1
    bb38:	1a000016 	bne	bb98 <send_notification+0x370>
    bb3c:	e59f135c 	ldr	r1, [pc, #860]	; bea0 <send_notification+0x678>
    bb40:	e51b002c 	ldr	r0, [fp, #-44]	; 0xffffffd4
    bb44:	ebfff5b2 	bl	9214 <__isoc99_fscanf@plt>
    bb48:	e59f134c 	ldr	r1, [pc, #844]	; be9c <send_notification+0x674>
    bb4c:	e51be02c 	ldr	lr, [fp, #-44]	; 0xffffffd4
    bb50:	e58d0068 	str	r0, [sp, #104]	; 0x68
    bb54:	e1a0000e 	mov	r0, lr
    bb58:	ebfff5ad 	bl	9214 <__isoc99_fscanf@plt>
    bb5c:	e28deb02 	add	lr, sp, #2048	; 0x800
    bb60:	e28e10bc 	add	r1, lr, #188	; 0xbc
    bb64:	e59fe32c 	ldr	lr, [pc, #812]	; be98 <send_notification+0x670>
    bb68:	e58d0064 	str	r0, [sp, #100]	; 0x64
    bb6c:	e1a00001 	mov	r0, r1
    bb70:	e1a0100e 	mov	r1, lr
    bb74:	ebfff510 	bl	8fbc <strcmp@plt>
    bb78:	e3500000 	cmp	r0, #0
    bb7c:	1a000004 	bne	bb94 <send_notification+0x36c>
    bb80:	e28d0098 	add	r0, sp, #152	; 0x98
    bb84:	ebfff533 	bl	9058 <atoi@plt>
    bb88:	e59fe250 	ldr	lr, [pc, #592]	; bde0 <send_notification+0x5b8>
    bb8c:	e50b086c 	str	r0, [fp, #-2156]	; 0xfffff794
    bb90:	e50be870 	str	lr, [fp, #-2160]	; 0xfffff790
    bb94:	eaffffff 	b	bb98 <send_notification+0x370>
    bb98:	eaffffd5 	b	baf4 <send_notification+0x2cc>
    bb9c:	e59f12d8 	ldr	r1, [pc, #728]	; be7c <send_notification+0x654>
    bba0:	e51b002c 	ldr	r0, [fp, #-44]	; 0xffffffd4
    bba4:	ebfff59a 	bl	9214 <__isoc99_fscanf@plt>
    bba8:	e51b1870 	ldr	r1, [fp, #-2160]	; 0xfffff790
    bbac:	e3510000 	cmp	r1, #0
    bbb0:	e58d0060 	str	r0, [sp, #96]	; 0x60
    bbb4:	0a00000e 	beq	bbf4 <send_notification+0x3cc>
    bbb8:	e51b086c 	ldr	r0, [fp, #-2156]	; 0xfffff794
    bbbc:	e3500001 	cmp	r0, #1
    bbc0:	1a000002 	bne	bbd0 <send_notification+0x3a8>
    bbc4:	e59f0218 	ldr	r0, [pc, #536]	; bde4 <send_notification+0x5bc>
    bbc8:	e50b0014 	str	r0, [fp, #-20]	; 0xffffffec
    bbcc:	ea000007 	b	bbf0 <send_notification+0x3c8>
    bbd0:	e59f12b0 	ldr	r1, [pc, #688]	; be88 <send_notification+0x660>
    bbd4:	e59f02b0 	ldr	r0, [pc, #688]	; be8c <send_notification+0x664>
    bbd8:	e59f2278 	ldr	r2, [pc, #632]	; be58 <send_notification+0x630>
    bbdc:	e50b2014 	str	r2, [fp, #-20]	; 0xffffffec
    bbe0:	e5900000 	ldr	r0, [r0]
    bbe4:	e51b286c 	ldr	r2, [fp, #-2156]	; 0xfffff794
    bbe8:	ebfff8f4 	bl	9fc0 <msg_printf>
    bbec:	e58d005c 	str	r0, [sp, #92]	; 0x5c
    bbf0:	ea000006 	b	bc10 <send_notification+0x3e8>
    bbf4:	e59f1284 	ldr	r1, [pc, #644]	; be80 <send_notification+0x658>
    bbf8:	e59f0284 	ldr	r0, [pc, #644]	; be84 <send_notification+0x65c>
    bbfc:	e59f2264 	ldr	r2, [pc, #612]	; be68 <send_notification+0x640>
    bc00:	e50b2014 	str	r2, [fp, #-20]	; 0xffffffec
    bc04:	e5900000 	ldr	r0, [r0]
    bc08:	ebfff8ec 	bl	9fc0 <msg_printf>
    bc0c:	e58d0058 	str	r0, [sp, #88]	; 0x58
    bc10:	ea000016 	b	bc70 <send_notification+0x448>
    bc14:	e51b0868 	ldr	r0, [fp, #-2152]	; 0xfffff798
    bc18:	e3500000 	cmp	r0, #0
    bc1c:	0a000007 	beq	bc40 <send_notification+0x418>
    bc20:	e59f1244 	ldr	r1, [pc, #580]	; be6c <send_notification+0x644>
    bc24:	e59f0244 	ldr	r0, [pc, #580]	; be70 <send_notification+0x648>
    bc28:	e59f2238 	ldr	r2, [pc, #568]	; be68 <send_notification+0x640>
    bc2c:	e50b2014 	str	r2, [fp, #-20]	; 0xffffffec
    bc30:	e5900000 	ldr	r0, [r0]
    bc34:	ebfff8e1 	bl	9fc0 <msg_printf>
    bc38:	e58d0054 	str	r0, [sp, #84]	; 0x54
    bc3c:	ea00000a 	b	bc6c <send_notification+0x444>
    bc40:	e59f021c 	ldr	r0, [pc, #540]	; be64 <send_notification+0x63c>
    bc44:	e59f121c 	ldr	r1, [pc, #540]	; be68 <send_notification+0x640>
    bc48:	e50b1014 	str	r1, [fp, #-20]	; 0xffffffec
    bc4c:	e5900000 	ldr	r0, [r0]
    bc50:	e58d0050 	str	r0, [sp, #80]	; 0x50
    bc54:	ebfff4c9 	bl	8f80 <__errno_location@plt>
    bc58:	e59f1200 	ldr	r1, [pc, #512]	; be60 <send_notification+0x638>
    bc5c:	e5902000 	ldr	r2, [r0]
    bc60:	e59d0050 	ldr	r0, [sp, #80]	; 0x50
    bc64:	ebfff8d5 	bl	9fc0 <msg_printf>
    bc68:	e58d004c 	str	r0, [sp, #76]	; 0x4c
    bc6c:	eaffffff 	b	bc70 <send_notification+0x448>
    bc70:	ea000007 	b	bc94 <send_notification+0x46c>
    bc74:	e59f11d4 	ldr	r1, [pc, #468]	; be50 <send_notification+0x628>
    bc78:	e59f01d4 	ldr	r0, [pc, #468]	; be54 <send_notification+0x62c>
    bc7c:	e59f21d4 	ldr	r2, [pc, #468]	; be58 <send_notification+0x630>
    bc80:	e50b2014 	str	r2, [fp, #-20]	; 0xffffffec
    bc84:	e5900000 	ldr	r0, [r0]
    bc88:	e51b2034 	ldr	r2, [fp, #-52]	; 0xffffffcc
    bc8c:	ebfff8cb 	bl	9fc0 <msg_printf>
    bc90:	e58d0048 	str	r0, [sp, #72]	; 0x48
    bc94:	ea00000e 	b	bcd4 <send_notification+0x4ac>
    bc98:	ebfff4b8 	bl	8f80 <__errno_location@plt>
    bc9c:	e59fe1a8 	ldr	lr, [pc, #424]	; be4c <send_notification+0x624>
    bca0:	e5900000 	ldr	r0, [r0]
    bca4:	e50b0014 	str	r0, [fp, #-20]	; 0xffffffec
    bca8:	e59e0000 	ldr	r0, [lr]
    bcac:	e51b2038 	ldr	r2, [fp, #-56]	; 0xffffffc8
    bcb0:	e58d0044 	str	r0, [sp, #68]	; 0x44
    bcb4:	e58d2040 	str	r2, [sp, #64]	; 0x40
    bcb8:	ebfff4b0 	bl	8f80 <__errno_location@plt>
    bcbc:	e59f1184 	ldr	r1, [pc, #388]	; be48 <send_notification+0x620>
    bcc0:	e5903000 	ldr	r3, [r0]
    bcc4:	e59d0044 	ldr	r0, [sp, #68]	; 0x44
    bcc8:	e59d2040 	ldr	r2, [sp, #64]	; 0x40
    bccc:	ebfff8bb 	bl	9fc0 <msg_printf>
    bcd0:	e58d003c 	str	r0, [sp, #60]	; 0x3c
    bcd4:	e51b002c 	ldr	r0, [fp, #-44]	; 0xffffffd4
    bcd8:	ebfff50b 	bl	910c <fclose@plt>
    bcdc:	e58d0038 	str	r0, [sp, #56]	; 0x38
    bce0:	ea000014 	b	bd38 <send_notification+0x510>
    bce4:	e59f0120 	ldr	r0, [pc, #288]	; be0c <send_notification+0x5e4>
    bce8:	e5900000 	ldr	r0, [r0]
    bcec:	e58d0034 	str	r0, [sp, #52]	; 0x34
    bcf0:	ebfff4a2 	bl	8f80 <__errno_location@plt>
    bcf4:	e5902000 	ldr	r2, [r0]
    bcf8:	e58d2030 	str	r2, [sp, #48]	; 0x30
    bcfc:	ebfff49f 	bl	8f80 <__errno_location@plt>
    bd00:	e5900000 	ldr	r0, [r0]
    bd04:	ebfff4b2 	bl	8fd4 <strerror@plt>
    bd08:	e59f10f8 	ldr	r1, [pc, #248]	; be08 <send_notification+0x5e0>
    bd0c:	e59d2034 	ldr	r2, [sp, #52]	; 0x34
    bd10:	e58d002c 	str	r0, [sp, #44]	; 0x2c
    bd14:	e1a00002 	mov	r0, r2
    bd18:	e59d2030 	ldr	r2, [sp, #48]	; 0x30
    bd1c:	e59d302c 	ldr	r3, [sp, #44]	; 0x2c
    bd20:	ebfff8a6 	bl	9fc0 <msg_printf>
    bd24:	e51b1018 	ldr	r1, [fp, #-24]	; 0xffffffe8
    bd28:	e58d0028 	str	r0, [sp, #40]	; 0x28
    bd2c:	e1a00001 	mov	r0, r1
    bd30:	ebfff4bc 	bl	9028 <close@plt>
    bd34:	e58d0024 	str	r0, [sp, #36]	; 0x24
    bd38:	ea000017 	b	bd9c <send_notification+0x574>
    bd3c:	ebfff48f 	bl	8f80 <__errno_location@plt>
    bd40:	e59fe0b8 	ldr	lr, [pc, #184]	; be00 <send_notification+0x5d8>
    bd44:	e5900000 	ldr	r0, [r0]
    bd48:	e50b0014 	str	r0, [fp, #-20]	; 0xffffffec
    bd4c:	e59e0000 	ldr	r0, [lr]
    bd50:	e58d0020 	str	r0, [sp, #32]
    bd54:	ebfff489 	bl	8f80 <__errno_location@plt>
    bd58:	e5902000 	ldr	r2, [r0]
    bd5c:	e58d201c 	str	r2, [sp, #28]
    bd60:	ebfff486 	bl	8f80 <__errno_location@plt>
    bd64:	e5900000 	ldr	r0, [r0]
    bd68:	ebfff499 	bl	8fd4 <strerror@plt>
    bd6c:	e59f1088 	ldr	r1, [pc, #136]	; bdfc <send_notification+0x5d4>
    bd70:	e59d2020 	ldr	r2, [sp, #32]
    bd74:	e58d0018 	str	r0, [sp, #24]
    bd78:	e1a00002 	mov	r0, r2
    bd7c:	e59d201c 	ldr	r2, [sp, #28]
    bd80:	e59d3018 	ldr	r3, [sp, #24]
    bd84:	ebfff88d 	bl	9fc0 <msg_printf>
    bd88:	e51b1018 	ldr	r1, [fp, #-24]	; 0xffffffe8
    bd8c:	e58d0014 	str	r0, [sp, #20]
    bd90:	e1a00001 	mov	r0, r1
    bd94:	ebfff4a3 	bl	9028 <close@plt>
    bd98:	e58d0010 	str	r0, [sp, #16]
    bd9c:	ea00000b 	b	bdd0 <send_notification+0x5a8>
    bda0:	ebfff476 	bl	8f80 <__errno_location@plt>
    bda4:	e59fe040 	ldr	lr, [pc, #64]	; bdec <send_notification+0x5c4>
    bda8:	e5900000 	ldr	r0, [r0]
    bdac:	e50b0014 	str	r0, [fp, #-20]	; 0xffffffec
    bdb0:	e59e0000 	ldr	r0, [lr]
    bdb4:	e58d000c 	str	r0, [sp, #12]
    bdb8:	ebfff470 	bl	8f80 <__errno_location@plt>
    bdbc:	e59f1024 	ldr	r1, [pc, #36]	; bde8 <send_notification+0x5c0>
    bdc0:	e5902000 	ldr	r2, [r0]
    bdc4:	e59d000c 	ldr	r0, [sp, #12]
    bdc8:	ebfff87c 	bl	9fc0 <msg_printf>
    bdcc:	e58d0008 	str	r0, [sp, #8]
    bdd0:	e51b0014 	ldr	r0, [fp, #-20]	; 0xffffffec
    bdd4:	e24bd008 	sub	sp, fp, #8
    bdd8:	e8bd8c10 	pop	{r4, sl, fp, pc}
    bddc:	00000002 	andeq	r0, r0, r2
    bde0:	00000001 	andeq	r0, r0, r1
    bde4:	00000000 	andeq	r0, r0, r0
    bde8:	0000d1f7 	strdeq	sp, [r0], -r7
    bdec:	0000f140 	andeq	pc, r0, r0, asr #2
    bdf0:	00000010 	andeq	r0, r0, r0, lsl r0
    bdf4:	0000f274 	andeq	pc, r0, r4, ror r2	; <UNPREDICTABLE>
    bdf8:	0000f22c 	andeq	pc, r0, ip, lsr #4
    bdfc:	0000d1c4 	andeq	sp, r0, r4, asr #3
    be00:	0000f140 	andeq	pc, r0, r0, asr #2
    be04:	0000cef4 	strdeq	ip, [r0], -r4
    be08:	0000d17b 	andeq	sp, r0, fp, ror r1
    be0c:	0000f140 	andeq	pc, r0, r0, asr #2
    be10:	0000cef8 	strdeq	ip, [r0], -r8
    be14:	0000f199 	muleq	r0, r9, r1
    be18:	0000f148 	andeq	pc, r0, r8, asr #2
    be1c:	0000cf62 	andeq	ip, r0, r2, ror #30
    be20:	0000f148 	andeq	pc, r0, r8, asr #2
    be24:	0000f199 	muleq	r0, r9, r1
    be28:	0000cf4a 	andeq	ip, r0, sl, asr #30
    be2c:	0000cf18 	andeq	ip, r0, r8, lsl pc
    be30:	0000cf0d 	andeq	ip, r0, sp, lsl #30
    be34:	0000f230 	andeq	pc, r0, r0, lsr r2	; <UNPREDICTABLE>
    be38:	0000cefa 	strdeq	ip, [r0], -sl
    be3c:	0000f1ea 	andeq	pc, r0, sl, ror #3
    be40:	0000cf8a 	andeq	ip, r0, sl, lsl #31
    be44:	0000cf9f 	muleq	r0, pc, pc	; <UNPREDICTABLE>
    be48:	0000d12e 	andeq	sp, r0, lr, lsr #2
    be4c:	0000f140 	andeq	pc, r0, r0, asr #2
    be50:	0000d0fc 	strdeq	sp, [r0], -ip
    be54:	0000f140 	andeq	pc, r0, r0, asr #2
    be58:	00000038 	andeq	r0, r0, r8, lsr r0
    be5c:	00000823 	andeq	r0, r0, r3, lsr #16
    be60:	0000d0a8 	andeq	sp, r0, r8, lsr #1
    be64:	0000f140 	andeq	pc, r0, r0, asr #2
    be68:	00000047 	andeq	r0, r0, r7, asr #32
    be6c:	0000d06d 	andeq	sp, r0, sp, rrx
    be70:	0000f140 	andeq	pc, r0, r0, asr #2
    be74:	0000cfb6 			; <UNDEFINED> instruction: 0x0000cfb6
    be78:	0000cfba 			; <UNDEFINED> instruction: 0x0000cfba
    be7c:	0000cfdd 	ldrdeq	ip, [r0], -sp
    be80:	0000d014 	andeq	sp, r0, r4, lsl r0
    be84:	0000f140 	andeq	pc, r0, r0, asr #2
    be88:	0000cfe0 	andeq	ip, r0, r0, ror #31
    be8c:	0000f140 	andeq	pc, r0, r0, asr #2
    be90:	0000cfc9 	andeq	ip, r0, r9, asr #31
    be94:	0000cfc6 	andeq	ip, r0, r6, asr #31
    be98:	0000cfd6 	ldrdeq	ip, [r0], -r6
    be9c:	0000cfd3 	ldrdeq	ip, [r0], -r3
    bea0:	0000cfc6 	andeq	ip, r0, r6, asr #31

0000bea4 <exit_deamon_handler>:
    bea4:	e92d4800 	push	{fp, lr}
    bea8:	e28db004 	add	fp, sp, #4
    beac:	e24dd008 	sub	sp, sp, #8
    beb0:	e50b0008 	str	r0, [fp, #-8]
    beb4:	e59f3034 	ldr	r3, [pc, #52]	; bef0 <exit_deamon_handler+0x4c>
    beb8:	e5933000 	ldr	r3, [r3]
    bebc:	e51b2008 	ldr	r2, [fp, #-8]
    bec0:	e59f102c 	ldr	r1, [pc, #44]	; bef4 <exit_deamon_handler+0x50>
    bec4:	e1a00003 	mov	r0, r3
    bec8:	ebfff83c 	bl	9fc0 <msg_printf>
    becc:	e3a01002 	mov	r1, #2
    bed0:	e59f0020 	ldr	r0, [pc, #32]	; bef8 <exit_deamon_handler+0x54>
    bed4:	ebfff99a 	bl	a544 <kill_processes>
    bed8:	e59f301c 	ldr	r3, [pc, #28]	; befc <exit_deamon_handler+0x58>
    bedc:	e3a02001 	mov	r2, #1
    bee0:	e5832000 	str	r2, [r3]
    bee4:	e1a00000 	nop			; (mov r0, r0)
    bee8:	e24bd004 	sub	sp, fp, #4
    beec:	e8bd8800 	pop	{fp, pc}
    bef0:	0000f140 	andeq	pc, r0, r0, asr #2
    bef4:	0000d2a4 	andeq	sp, r0, r4, lsr #5
    bef8:	0000f00c 	andeq	pc, r0, ip
    befc:	0000f278 	andeq	pc, r0, r8, ror r2	; <UNPREDICTABLE>

0000bf00 <timer_handler>:
    bf00:	e92d4800 	push	{fp, lr}
    bf04:	e28db004 	add	fp, sp, #4
    bf08:	e24dd008 	sub	sp, sp, #8
    bf0c:	e50b0008 	str	r0, [fp, #-8]
    bf10:	e59f3034 	ldr	r3, [pc, #52]	; bf4c <timer_handler+0x4c>
    bf14:	e5930000 	ldr	r0, [r3]
    bf18:	e59f3030 	ldr	r3, [pc, #48]	; bf50 <timer_handler+0x50>
    bf1c:	e5933000 	ldr	r3, [r3]
    bf20:	e2833001 	add	r3, r3, #1
    bf24:	e59f2024 	ldr	r2, [pc, #36]	; bf50 <timer_handler+0x50>
    bf28:	e5823000 	str	r3, [r2]
    bf2c:	e59f301c 	ldr	r3, [pc, #28]	; bf50 <timer_handler+0x50>
    bf30:	e5933000 	ldr	r3, [r3]
    bf34:	e1a02003 	mov	r2, r3
    bf38:	e59f1014 	ldr	r1, [pc, #20]	; bf54 <timer_handler+0x54>
    bf3c:	ebfff81f 	bl	9fc0 <msg_printf>
    bf40:	e1a00000 	nop			; (mov r0, r0)
    bf44:	e24bd004 	sub	sp, fp, #4
    bf48:	e8bd8800 	pop	{fp, pc}
    bf4c:	0000f140 	andeq	pc, r0, r0, asr #2
    bf50:	0000f27c 	andeq	pc, r0, ip, ror r2	; <UNPREDICTABLE>
    bf54:	0000d2dc 	ldrdeq	sp, [r0], -ip

0000bf58 <set_signal_handler>:
    bf58:	e92d4810 	push	{r4, fp, lr}
    bf5c:	e28db008 	add	fp, sp, #8
    bf60:	e24dd094 	sub	sp, sp, #148	; 0x94
    bf64:	e24b309c 	sub	r3, fp, #156	; 0x9c
    bf68:	e3a0208c 	mov	r2, #140	; 0x8c
    bf6c:	e3a01000 	mov	r1, #0
    bf70:	e1a00003 	mov	r0, r3
    bf74:	ebfff3fb 	bl	8f68 <memset@plt>
    bf78:	e59f30a8 	ldr	r3, [pc, #168]	; c028 <set_signal_handler+0xd0>
    bf7c:	e50b309c 	str	r3, [fp, #-156]	; 0xffffff64
    bf80:	e24b309c 	sub	r3, fp, #156	; 0x9c
    bf84:	e3a02000 	mov	r2, #0
    bf88:	e1a01003 	mov	r1, r3
    bf8c:	e3a0000e 	mov	r0, #14
    bf90:	ebfff3f7 	bl	8f74 <sigaction@plt>
    bf94:	e59f3090 	ldr	r3, [pc, #144]	; c02c <set_signal_handler+0xd4>
    bf98:	e50b309c 	str	r3, [fp, #-156]	; 0xffffff64
    bf9c:	e3a03201 	mov	r3, #268435456	; 0x10000000
    bfa0:	e50b3018 	str	r3, [fp, #-24]	; 0xffffffe8
    bfa4:	e24b309c 	sub	r3, fp, #156	; 0x9c
    bfa8:	e3a02000 	mov	r2, #0
    bfac:	e1a01003 	mov	r1, r3
    bfb0:	e3a00002 	mov	r0, #2
    bfb4:	ebfff3ee 	bl	8f74 <sigaction@plt>
    bfb8:	e24b309c 	sub	r3, fp, #156	; 0x9c
    bfbc:	e3a02000 	mov	r2, #0
    bfc0:	e1a01003 	mov	r1, r3
    bfc4:	e3a0000f 	mov	r0, #15
    bfc8:	ebfff3e9 	bl	8f74 <sigaction@plt>
    bfcc:	e1a03000 	mov	r3, r0
    bfd0:	e3530000 	cmp	r3, #0
    bfd4:	1a000002 	bne	bfe4 <set_signal_handler+0x8c>
    bfd8:	e3a03000 	mov	r3, #0
    bfdc:	e50b3010 	str	r3, [fp, #-16]
    bfe0:	ea00000c 	b	c018 <set_signal_handler+0xc0>
    bfe4:	ebfff3e5 	bl	8f80 <__errno_location@plt>
    bfe8:	e1a03000 	mov	r3, r0
    bfec:	e5933000 	ldr	r3, [r3]
    bff0:	e50b3010 	str	r3, [fp, #-16]
    bff4:	e59f3034 	ldr	r3, [pc, #52]	; c030 <set_signal_handler+0xd8>
    bff8:	e5934000 	ldr	r4, [r3]
    bffc:	ebfff3df 	bl	8f80 <__errno_location@plt>
    c000:	e1a03000 	mov	r3, r0
    c004:	e5933000 	ldr	r3, [r3]
    c008:	e1a02003 	mov	r2, r3
    c00c:	e59f1020 	ldr	r1, [pc, #32]	; c034 <set_signal_handler+0xdc>
    c010:	e1a00004 	mov	r0, r4
    c014:	ebfff7e9 	bl	9fc0 <msg_printf>
    c018:	e51b3010 	ldr	r3, [fp, #-16]
    c01c:	e1a00003 	mov	r0, r3
    c020:	e24bd008 	sub	sp, fp, #8
    c024:	e8bd8810 	pop	{r4, fp, pc}
    c028:	0000bf00 	andeq	fp, r0, r0, lsl #30
    c02c:	0000bea4 	andeq	fp, r0, r4, lsr #29
    c030:	0000f140 	andeq	pc, r0, r0, asr #2
    c034:	0000d2f4 	strdeq	sp, [r0], -r4

0000c038 <main>:
    c038:	e92d4810 	push	{r4, fp, lr}
    c03c:	e28db008 	add	fp, sp, #8
    c040:	e24dd014 	sub	sp, sp, #20
    c044:	e50b0018 	str	r0, [fp, #-24]	; 0xffffffe8
    c048:	e50b101c 	str	r1, [fp, #-28]	; 0xffffffe4
    c04c:	e3a03000 	mov	r3, #0
    c050:	e50b3010 	str	r3, [fp, #-16]
    c054:	e51b3010 	ldr	r3, [fp, #-16]
    c058:	e3530000 	cmp	r3, #0
    c05c:	1a000036 	bne	c13c <main+0x104>
    c060:	e59f10e8 	ldr	r1, [pc, #232]	; c150 <main+0x118>
    c064:	e3a00005 	mov	r0, #5
    c068:	ebfff3c7 	bl	8f8c <syslog@plt>
    c06c:	ebfff8ba 	bl	a35c <open_log_files>
    c070:	e1a03000 	mov	r3, r0
    c074:	e3530000 	cmp	r3, #0
    c078:	0a000002 	beq	c088 <main+0x50>
    c07c:	e59f10d0 	ldr	r1, [pc, #208]	; c154 <main+0x11c>
    c080:	e3a00004 	mov	r0, #4
    c084:	ebfff3c0 	bl	8f8c <syslog@plt>
    c088:	ebffffb2 	bl	bf58 <set_signal_handler>
    c08c:	e3a02000 	mov	r2, #0
    c090:	e59f10c0 	ldr	r1, [pc, #192]	; c158 <main+0x120>
    c094:	e59f00c0 	ldr	r0, [pc, #192]	; c15c <main+0x124>
    c098:	ebfff3be 	bl	8f98 <setenv@plt>
    c09c:	e1a03000 	mov	r3, r0
    c0a0:	e3530000 	cmp	r3, #0
    c0a4:	0a000008 	beq	c0cc <main+0x94>
    c0a8:	e59f30b0 	ldr	r3, [pc, #176]	; c160 <main+0x128>
    c0ac:	e5934000 	ldr	r4, [r3]
    c0b0:	ebfff3b2 	bl	8f80 <__errno_location@plt>
    c0b4:	e1a03000 	mov	r3, r0
    c0b8:	e5933000 	ldr	r3, [r3]
    c0bc:	e1a02003 	mov	r2, r3
    c0c0:	e59f109c 	ldr	r1, [pc, #156]	; c164 <main+0x12c>
    c0c4:	e1a00004 	mov	r0, r4
    c0c8:	ebfff7bc 	bl	9fc0 <msg_printf>
    c0cc:	e59f1094 	ldr	r1, [pc, #148]	; c168 <main+0x130>
    c0d0:	e59f0094 	ldr	r0, [pc, #148]	; c16c <main+0x134>
    c0d4:	eb0000e0 	bl	c45c <init_polling>
    c0d8:	e50b0010 	str	r0, [fp, #-16]
    c0dc:	e51b3010 	ldr	r3, [fp, #-16]
    c0e0:	e3530000 	cmp	r3, #0
    c0e4:	1a000001 	bne	c0f0 <main+0xb8>
    c0e8:	eb000118 	bl	c550 <wait_polling_end>
    c0ec:	ea000004 	b	c104 <main+0xcc>
    c0f0:	e59f3068 	ldr	r3, [pc, #104]	; c160 <main+0x128>
    c0f4:	e5933000 	ldr	r3, [r3]
    c0f8:	e59f1070 	ldr	r1, [pc, #112]	; c170 <main+0x138>
    c0fc:	e1a00003 	mov	r0, r3
    c100:	ebfff7ae 	bl	9fc0 <msg_printf>
    c104:	e3a00001 	mov	r0, #1
    c108:	ebfff3a5 	bl	8fa4 <sleep@plt>
    c10c:	e59f304c 	ldr	r3, [pc, #76]	; c160 <main+0x128>
    c110:	e5933000 	ldr	r3, [r3]
    c114:	e59f1058 	ldr	r1, [pc, #88]	; c174 <main+0x13c>
    c118:	e1a00003 	mov	r0, r3
    c11c:	ebfff7a7 	bl	9fc0 <msg_printf>
    c120:	ed9f0a09 	vldr	s0, [pc, #36]	; c14c <main+0x114>
    c124:	ebfff999 	bl	a790 <configure_timer>
    c128:	e3a02000 	mov	r2, #0
    c12c:	e3a01002 	mov	r1, #2
    c130:	e59f0040 	ldr	r0, [pc, #64]	; c178 <main+0x140>
    c134:	ebfff929 	bl	a5e0 <wait_processes>
    c138:	ebfff8af 	bl	a3fc <close_log_files>
    c13c:	e51b3010 	ldr	r3, [fp, #-16]
    c140:	e1a00003 	mov	r0, r3
    c144:	e24bd008 	sub	sp, fp, #8
    c148:	e8bd8810 	pop	{r4, fp, pc}
    c14c:	bf800000 	svclt	0x00800000
    c150:	0000d328 	andeq	sp, r0, r8, lsr #6
    c154:	0000d340 	andeq	sp, r0, r0, asr #6
    c158:	0000d35c 	andeq	sp, r0, ip, asr r3
    c15c:	0000d36c 	andeq	sp, r0, ip, ror #6
    c160:	0000f140 	andeq	pc, r0, r0, asr #2
    c164:	0000d37c 	andeq	sp, r0, ip, ror r3
    c168:	0000d3bc 			; <UNDEFINED> instruction: 0x0000d3bc
    c16c:	0000f278 	andeq	pc, r0, r8, ror r2	; <UNPREDICTABLE>
    c170:	0000d3d4 	ldrdeq	sp, [r0], -r4
    c174:	0000d3fc 	strdeq	sp, [r0], -ip
    c178:	0000f00c 	andeq	pc, r0, ip

0000c17c <send_info_notif>:
    c17c:	e92d4800 	push	{fp, lr}
    c180:	e28db004 	add	fp, sp, #4
    c184:	e24dda01 	sub	sp, sp, #4096	; 0x1000
    c188:	e24dd010 	sub	sp, sp, #16
    c18c:	e24b3a01 	sub	r3, fp, #4096	; 0x1000
    c190:	e2433004 	sub	r3, r3, #4
    c194:	e5030004 	str	r0, [r3, #-4]
    c198:	e24b3a01 	sub	r3, fp, #4096	; 0x1000
    c19c:	e2433004 	sub	r3, r3, #4
    c1a0:	e5031008 	str	r1, [r3, #-8]
    c1a4:	e24b0a01 	sub	r0, fp, #4096	; 0x1000
    c1a8:	e2400004 	sub	r0, r0, #4
    c1ac:	e24b3a01 	sub	r3, fp, #4096	; 0x1000
    c1b0:	e2433004 	sub	r3, r3, #4
    c1b4:	e5133004 	ldr	r3, [r3, #-4]
    c1b8:	e58d3000 	str	r3, [sp]
    c1bc:	e59f3038 	ldr	r3, [pc, #56]	; c1fc <send_info_notif+0x80>
    c1c0:	e59f2038 	ldr	r2, [pc, #56]	; c200 <send_info_notif+0x84>
    c1c4:	e3a01a01 	mov	r1, #4096	; 0x1000
    c1c8:	ebfff378 	bl	8fb0 <snprintf@plt>
    c1cc:	e24b3a01 	sub	r3, fp, #4096	; 0x1000
    c1d0:	e2433004 	sub	r3, r3, #4
    c1d4:	e1a02003 	mov	r2, r3
    c1d8:	e24b3a01 	sub	r3, fp, #4096	; 0x1000
    c1dc:	e2433004 	sub	r3, r3, #4
    c1e0:	e5121008 	ldr	r1, [r2, #-8]
    c1e4:	e1a00003 	mov	r0, r3
    c1e8:	ebfffd8e 	bl	b828 <send_notification>
    c1ec:	e1a03000 	mov	r3, r0
    c1f0:	e1a00003 	mov	r0, r3
    c1f4:	e24bd004 	sub	sp, fp, #4
    c1f8:	e8bd8800 	pop	{fp, pc}
    c1fc:	0000f280 	andeq	pc, r0, r0, lsl #5
    c200:	0000d424 	andeq	sp, r0, r4, lsr #8

0000c204 <update_ip_msg>:
    c204:	e92d4800 	push	{fp, lr}
    c208:	e28db004 	add	fp, sp, #4
    c20c:	e24dd0d0 	sub	sp, sp, #208	; 0xd0
    c210:	e50b00d0 	str	r0, [fp, #-208]	; 0xffffff30
    c214:	e24b3038 	sub	r3, fp, #56	; 0x38
    c218:	e1a00003 	mov	r0, r3
    c21c:	ebfffbd8 	bl	b184 <get_public_ip>
    c220:	e50b0008 	str	r0, [fp, #-8]
    c224:	e51b3008 	ldr	r3, [fp, #-8]
    c228:	e3530000 	cmp	r3, #0
    c22c:	1a000018 	bne	c294 <update_ip_msg+0x90>
    c230:	e24b3038 	sub	r3, fp, #56	; 0x38
    c234:	e24b00cc 	sub	r0, fp, #204	; 0xcc
    c238:	e51b20d0 	ldr	r2, [fp, #-208]	; 0xffffff30
    c23c:	e3a01092 	mov	r1, #146	; 0x92
    c240:	ebfff35a 	bl	8fb0 <snprintf@plt>
    c244:	e24b30cc 	sub	r3, fp, #204	; 0xcc
    c248:	e59f1054 	ldr	r1, [pc, #84]	; c2a4 <update_ip_msg+0xa0>
    c24c:	e1a00003 	mov	r0, r3
    c250:	ebfff359 	bl	8fbc <strcmp@plt>
    c254:	e1a03000 	mov	r3, r0
    c258:	e3530000 	cmp	r3, #0
    c25c:	0a00000c 	beq	c294 <update_ip_msg+0x90>
    c260:	e24b30cc 	sub	r3, fp, #204	; 0xcc
    c264:	e1a01003 	mov	r1, r3
    c268:	e59f0034 	ldr	r0, [pc, #52]	; c2a4 <update_ip_msg+0xa0>
    c26c:	ebfff355 	bl	8fc8 <strcpy@plt>
    c270:	e59f3030 	ldr	r3, [pc, #48]	; c2a8 <update_ip_msg+0xa4>
    c274:	e5933000 	ldr	r3, [r3]
    c278:	e24b2038 	sub	r2, fp, #56	; 0x38
    c27c:	e59f1028 	ldr	r1, [pc, #40]	; c2ac <update_ip_msg+0xa8>
    c280:	e1a00003 	mov	r0, r3
    c284:	ebfff74d 	bl	9fc0 <msg_printf>
    c288:	e59f1020 	ldr	r1, [pc, #32]	; c2b0 <update_ip_msg+0xac>
    c28c:	e59f0020 	ldr	r0, [pc, #32]	; c2b4 <update_ip_msg+0xb0>
    c290:	ebffffb9 	bl	c17c <send_info_notif>
    c294:	e51b3008 	ldr	r3, [fp, #-8]
    c298:	e1a00003 	mov	r0, r3
    c29c:	e24bd004 	sub	sp, fp, #4
    c2a0:	e8bd8800 	pop	{fp, pc}
    c2a4:	0000f280 	andeq	pc, r0, r0, lsl #5
    c2a8:	0000f140 	andeq	pc, r0, r0, asr #2
    c2ac:	0000d42c 	andeq	sp, r0, ip, lsr #8
    c2b0:	0000d444 	andeq	sp, r0, r4, asr #8
    c2b4:	0000d448 	andeq	sp, r0, r8, asr #8

0000c2b8 <polling_thread>:
    c2b8:	e92d4810 	push	{r4, fp, lr}
    c2bc:	e28db008 	add	fp, sp, #8
    c2c0:	e24dd034 	sub	sp, sp, #52	; 0x34
    c2c4:	e50b0030 	str	r0, [fp, #-48]	; 0xffffffd0
    c2c8:	e59f3168 	ldr	r3, [pc, #360]	; c438 <polling_thread+0x180>
    c2cc:	e5933000 	ldr	r3, [r3]
    c2d0:	e59f1164 	ldr	r1, [pc, #356]	; c43c <polling_thread+0x184>
    c2d4:	e1a00003 	mov	r0, r3
    c2d8:	ebfff738 	bl	9fc0 <msg_printf>
    c2dc:	e3a03000 	mov	r3, #0
    c2e0:	e50b3010 	str	r3, [fp, #-16]
    c2e4:	e3a03000 	mov	r3, #0
    c2e8:	e50b3018 	str	r3, [fp, #-24]	; 0xffffffe8
    c2ec:	e3a03000 	mov	r3, #0
    c2f0:	e50b3014 	str	r3, [fp, #-20]	; 0xffffffec
    c2f4:	ea000041 	b	c400 <polling_thread+0x148>
    c2f8:	eb0000b4 	bl	c5d0 <usecs>
    c2fc:	e50b001c 	str	r0, [fp, #-28]	; 0xffffffe4
    c300:	e24b3028 	sub	r3, fp, #40	; 0x28
    c304:	e1a01003 	mov	r1, r3
    c308:	e3a00f7a 	mov	r0, #488	; 0x1e8
    c30c:	ebfff4fb 	bl	9700 <GPIO_read>
    c310:	e50b0020 	str	r0, [fp, #-32]	; 0xffffffe0
    c314:	e51b3020 	ldr	r3, [fp, #-32]	; 0xffffffe0
    c318:	e3530000 	cmp	r3, #0
    c31c:	1a000017 	bne	c380 <polling_thread+0xc8>
    c320:	e51b3028 	ldr	r3, [fp, #-40]	; 0xffffffd8
    c324:	e51b2014 	ldr	r2, [fp, #-20]	; 0xffffffec
    c328:	e1520003 	cmp	r2, r3
    c32c:	0a00000d 	beq	c368 <polling_thread+0xb0>
    c330:	e51b3028 	ldr	r3, [fp, #-40]	; 0xffffffd8
    c334:	e3530000 	cmp	r3, #0
    c338:	0a000008 	beq	c360 <polling_thread+0xa8>
    c33c:	e59f30f4 	ldr	r3, [pc, #244]	; c438 <polling_thread+0x180>
    c340:	e5930000 	ldr	r0, [r3]
    c344:	e51b3028 	ldr	r3, [fp, #-40]	; 0xffffffd8
    c348:	e3a02f7a 	mov	r2, #488	; 0x1e8
    c34c:	e59f10ec 	ldr	r1, [pc, #236]	; c440 <polling_thread+0x188>
    c350:	ebfff71a 	bl	9fc0 <msg_printf>
    c354:	e59f10e8 	ldr	r1, [pc, #232]	; c444 <polling_thread+0x18c>
    c358:	e59f00e8 	ldr	r0, [pc, #232]	; c448 <polling_thread+0x190>
    c35c:	ebffff86 	bl	c17c <send_info_notif>
    c360:	e51b3028 	ldr	r3, [fp, #-40]	; 0xffffffd8
    c364:	e50b3014 	str	r3, [fp, #-20]	; 0xffffffec
    c368:	e51b3028 	ldr	r3, [fp, #-40]	; 0xffffffd8
    c36c:	e3530000 	cmp	r3, #0
    c370:	0a000012 	beq	c3c0 <polling_thread+0x108>
    c374:	e3a0303c 	mov	r3, #60	; 0x3c
    c378:	e50b3018 	str	r3, [fp, #-24]	; 0xffffffe8
    c37c:	ea00000f 	b	c3c0 <polling_thread+0x108>
    c380:	e51b3010 	ldr	r3, [fp, #-16]
    c384:	e3530000 	cmp	r3, #0
    c388:	1a00000c 	bne	c3c0 <polling_thread+0x108>
    c38c:	e59f30b8 	ldr	r3, [pc, #184]	; c44c <polling_thread+0x194>
    c390:	e5934000 	ldr	r4, [r3]
    c394:	e51b0020 	ldr	r0, [fp, #-32]	; 0xffffffe0
    c398:	ebfff30d 	bl	8fd4 <strerror@plt>
    c39c:	e1a03000 	mov	r3, r0
    c3a0:	e58d3000 	str	r3, [sp]
    c3a4:	e3a03f7a 	mov	r3, #488	; 0x1e8
    c3a8:	e51b2020 	ldr	r2, [fp, #-32]	; 0xffffffe0
    c3ac:	e59f109c 	ldr	r1, [pc, #156]	; c450 <polling_thread+0x198>
    c3b0:	e1a00004 	mov	r0, r4
    c3b4:	ebfff701 	bl	9fc0 <msg_printf>
    c3b8:	e51b3020 	ldr	r3, [fp, #-32]	; 0xffffffe0
    c3bc:	e50b3010 	str	r3, [fp, #-16]
    c3c0:	e3a00001 	mov	r0, #1
    c3c4:	ebfff2f6 	bl	8fa4 <sleep@plt>
    c3c8:	e51b3018 	ldr	r3, [fp, #-24]	; 0xffffffe8
    c3cc:	e3530000 	cmp	r3, #0
    c3d0:	da000002 	ble	c3e0 <polling_thread+0x128>
    c3d4:	e51b3018 	ldr	r3, [fp, #-24]	; 0xffffffe8
    c3d8:	e2433001 	sub	r3, r3, #1
    c3dc:	e50b3018 	str	r3, [fp, #-24]	; 0xffffffe8
    c3e0:	eb00007a 	bl	c5d0 <usecs>
    c3e4:	e50b0024 	str	r0, [fp, #-36]	; 0xffffffdc
    c3e8:	e51b2024 	ldr	r2, [fp, #-36]	; 0xffffffdc
    c3ec:	e51b301c 	ldr	r3, [fp, #-28]	; 0xffffffe4
    c3f0:	e0423003 	sub	r3, r2, r3
    c3f4:	e1a01003 	mov	r1, r3
    c3f8:	e59f0054 	ldr	r0, [pc, #84]	; c454 <polling_thread+0x19c>
    c3fc:	ebfff2f7 	bl	8fe0 <printf@plt>
    c400:	e51b3030 	ldr	r3, [fp, #-48]	; 0xffffffd0
    c404:	e5933000 	ldr	r3, [r3]
    c408:	e3530000 	cmp	r3, #0
    c40c:	0affffb9 	beq	c2f8 <polling_thread+0x40>
    c410:	e59f3020 	ldr	r3, [pc, #32]	; c438 <polling_thread+0x180>
    c414:	e5933000 	ldr	r3, [r3]
    c418:	e51b2010 	ldr	r2, [fp, #-16]
    c41c:	e59f1034 	ldr	r1, [pc, #52]	; c458 <polling_thread+0x1a0>
    c420:	e1a00003 	mov	r0, r3
    c424:	ebfff6e5 	bl	9fc0 <msg_printf>
    c428:	e51b3010 	ldr	r3, [fp, #-16]
    c42c:	e1a00003 	mov	r0, r3
    c430:	e24bd008 	sub	sp, fp, #8
    c434:	e8bd8810 	pop	{r4, fp, pc}
    c438:	0000f144 	andeq	pc, r0, r4, asr #2
    c43c:	0000d470 	andeq	sp, r0, r0, ror r4
    c440:	0000d488 	andeq	sp, r0, r8, lsl #9
    c444:	0000d4a4 	andeq	sp, r0, r4, lsr #9
    c448:	0000d4a8 	andeq	sp, r0, r8, lsr #9
    c44c:	0000f140 	andeq	pc, r0, r0, asr #2
    c450:	0000d4c0 	andeq	sp, r0, r0, asr #9
    c454:	0000d4e4 	andeq	sp, r0, r4, ror #9
    c458:	0000d514 	andeq	sp, r0, r4, lsl r5

0000c45c <init_polling>:
    c45c:	e92d4810 	push	{r4, fp, lr}
    c460:	e28db008 	add	fp, sp, #8
    c464:	e24dd014 	sub	sp, sp, #20
    c468:	e50b0018 	str	r0, [fp, #-24]	; 0xffffffe8
    c46c:	e50b101c 	str	r1, [fp, #-28]	; 0xffffffe4
    c470:	ebfff52e 	bl	9930 <export_gpios>
    c474:	e50b0010 	str	r0, [fp, #-16]
    c478:	e51b3010 	ldr	r3, [fp, #-16]
    c47c:	e3530000 	cmp	r3, #0
    c480:	1a000027 	bne	c524 <init_polling+0xc8>
    c484:	ebfff5f5 	bl	9c60 <configure_gpios>
    c488:	e50b0010 	str	r0, [fp, #-16]
    c48c:	e51b3010 	ldr	r3, [fp, #-16]
    c490:	e3530000 	cmp	r3, #0
    c494:	1a000022 	bne	c524 <init_polling+0xc8>
    c498:	e59f0094 	ldr	r0, [pc, #148]	; c534 <init_polling+0xd8>
    c49c:	ebfffb56 	bl	b1fc <pushover_init>
    c4a0:	e50b0010 	str	r0, [fp, #-16]
    c4a4:	e51b3010 	ldr	r3, [fp, #-16]
    c4a8:	e3530000 	cmp	r3, #0
    c4ac:	1a00001c 	bne	c524 <init_polling+0xc8>
    c4b0:	e59f3080 	ldr	r3, [pc, #128]	; c538 <init_polling+0xdc>
    c4b4:	e3a02000 	mov	r2, #0
    c4b8:	e5c32000 	strb	r2, [r3]
    c4bc:	e51b001c 	ldr	r0, [fp, #-28]	; 0xffffffe4
    c4c0:	ebffff4f 	bl	c204 <update_ip_msg>
    c4c4:	e51b3018 	ldr	r3, [fp, #-24]	; 0xffffffe8
    c4c8:	e59f206c 	ldr	r2, [pc, #108]	; c53c <init_polling+0xe0>
    c4cc:	e3a01000 	mov	r1, #0
    c4d0:	e59f0068 	ldr	r0, [pc, #104]	; c540 <init_polling+0xe4>
    c4d4:	ebfff2c4 	bl	8fec <pthread_create@plt>
    c4d8:	e50b0010 	str	r0, [fp, #-16]
    c4dc:	e51b3010 	ldr	r3, [fp, #-16]
    c4e0:	e3530000 	cmp	r3, #0
    c4e4:	1a000005 	bne	c500 <init_polling+0xa4>
    c4e8:	e59f3054 	ldr	r3, [pc, #84]	; c544 <init_polling+0xe8>
    c4ec:	e5933000 	ldr	r3, [r3]
    c4f0:	e59f1050 	ldr	r1, [pc, #80]	; c548 <init_polling+0xec>
    c4f4:	e1a00003 	mov	r0, r3
    c4f8:	ebfff6b0 	bl	9fc0 <msg_printf>
    c4fc:	ea000008 	b	c524 <init_polling+0xc8>
    c500:	e59f303c 	ldr	r3, [pc, #60]	; c544 <init_polling+0xe8>
    c504:	e5934000 	ldr	r4, [r3]
    c508:	e51b0010 	ldr	r0, [fp, #-16]
    c50c:	ebfff2b0 	bl	8fd4 <strerror@plt>
    c510:	e1a03000 	mov	r3, r0
    c514:	e51b2010 	ldr	r2, [fp, #-16]
    c518:	e59f102c 	ldr	r1, [pc, #44]	; c54c <init_polling+0xf0>
    c51c:	e1a00004 	mov	r0, r4
    c520:	ebfff6a6 	bl	9fc0 <msg_printf>
    c524:	e51b3010 	ldr	r3, [fp, #-16]
    c528:	e1a00003 	mov	r0, r3
    c52c:	e24bd008 	sub	sp, fp, #8
    c530:	e8bd8810 	pop	{r4, fp, pc}
    c534:	0000d540 	andeq	sp, r0, r0, asr #10
    c538:	0000f280 	andeq	pc, r0, r0, lsl #5
    c53c:	0000c2b8 			; <UNDEFINED> instruction: 0x0000c2b8
    c540:	0000f314 	andeq	pc, r0, r4, lsl r3	; <UNPREDICTABLE>
    c544:	0000f140 	andeq	pc, r0, r0, asr #2
    c548:	0000d554 	andeq	sp, r0, r4, asr r5
    c54c:	0000d570 	andeq	sp, r0, r0, ror r5

0000c550 <wait_polling_end>:
    c550:	e92d4800 	push	{fp, lr}
    c554:	e28db004 	add	fp, sp, #4
    c558:	e24dd008 	sub	sp, sp, #8
    c55c:	e59f305c 	ldr	r3, [pc, #92]	; c5c0 <wait_polling_end+0x70>
    c560:	e5933000 	ldr	r3, [r3]
    c564:	e3a01000 	mov	r1, #0
    c568:	e1a00003 	mov	r0, r3
    c56c:	ebfff2a1 	bl	8ff8 <pthread_join@plt>
    c570:	e50b0008 	str	r0, [fp, #-8]
    c574:	e51b3008 	ldr	r3, [fp, #-8]
    c578:	e3530000 	cmp	r3, #0
    c57c:	1a000005 	bne	c598 <wait_polling_end+0x48>
    c580:	e59f303c 	ldr	r3, [pc, #60]	; c5c4 <wait_polling_end+0x74>
    c584:	e5933000 	ldr	r3, [r3]
    c588:	e59f1038 	ldr	r1, [pc, #56]	; c5c8 <wait_polling_end+0x78>
    c58c:	e1a00003 	mov	r0, r3
    c590:	ebfff68a 	bl	9fc0 <msg_printf>
    c594:	ea000004 	b	c5ac <wait_polling_end+0x5c>
    c598:	e59f3024 	ldr	r3, [pc, #36]	; c5c4 <wait_polling_end+0x74>
    c59c:	e5933000 	ldr	r3, [r3]
    c5a0:	e59f1024 	ldr	r1, [pc, #36]	; c5cc <wait_polling_end+0x7c>
    c5a4:	e1a00003 	mov	r0, r3
    c5a8:	ebfff684 	bl	9fc0 <msg_printf>
    c5ac:	ebfff61a 	bl	9e1c <unexport_gpios>
    c5b0:	e51b3008 	ldr	r3, [fp, #-8]
    c5b4:	e1a00003 	mov	r0, r3
    c5b8:	e24bd004 	sub	sp, fp, #4
    c5bc:	e8bd8800 	pop	{fp, pc}
    c5c0:	0000f314 	andeq	pc, r0, r4, lsl r3	; <UNPREDICTABLE>
    c5c4:	0000f140 	andeq	pc, r0, r0, asr #2
    c5c8:	0000d598 	muleq	r0, r8, r5
    c5cc:	0000d5c0 	andeq	sp, r0, r0, asr #11

0000c5d0 <usecs>:
    c5d0:	e92d4800 	push	{fp, lr}
    c5d4:	e28db004 	add	fp, sp, #4
    c5d8:	e24dd008 	sub	sp, sp, #8
    c5dc:	e24b300c 	sub	r3, fp, #12
    c5e0:	e3a01000 	mov	r1, #0
    c5e4:	e1a00003 	mov	r0, r3
    c5e8:	ebfff285 	bl	9004 <gettimeofday@plt>
    c5ec:	e51b100c 	ldr	r1, [fp, #-12]
    c5f0:	e1a02001 	mov	r2, r1
    c5f4:	e1a02282 	lsl	r2, r2, #5
    c5f8:	e0422001 	sub	r2, r2, r1
    c5fc:	e1a03302 	lsl	r3, r2, #6
    c600:	e0433002 	sub	r3, r3, r2
    c604:	e1a03183 	lsl	r3, r3, #3
    c608:	e0833001 	add	r3, r3, r1
    c60c:	e1a03303 	lsl	r3, r3, #6
    c610:	e1a02003 	mov	r2, r3
    c614:	e51b3008 	ldr	r3, [fp, #-8]
    c618:	e0823003 	add	r3, r2, r3
    c61c:	e1a00003 	mov	r0, r3
    c620:	e24bd004 	sub	sp, fp, #4
    c624:	e8bd8800 	pop	{fp, pc}

0000c628 <__libc_csu_init>:
    c628:	e92d47f0 	push	{r4, r5, r6, r7, r8, r9, sl, lr}
    c62c:	e1a07000 	mov	r7, r0
    c630:	e59f6048 	ldr	r6, [pc, #72]	; c680 <__libc_csu_init+0x58>
    c634:	e59f5048 	ldr	r5, [pc, #72]	; c684 <__libc_csu_init+0x5c>
    c638:	e08f6006 	add	r6, pc, r6
    c63c:	e08f5005 	add	r5, pc, r5
    c640:	e0466005 	sub	r6, r6, r5
    c644:	e1a08001 	mov	r8, r1
    c648:	e1a09002 	mov	r9, r2
    c64c:	ebfff234 	bl	8f24 <_init>
    c650:	e1b06146 	asrs	r6, r6, #2
    c654:	08bd87f0 	popeq	{r4, r5, r6, r7, r8, r9, sl, pc}
    c658:	e3a04000 	mov	r4, #0
    c65c:	e2844001 	add	r4, r4, #1
    c660:	e4953004 	ldr	r3, [r5], #4
    c664:	e1a02009 	mov	r2, r9
    c668:	e1a01008 	mov	r1, r8
    c66c:	e1a00007 	mov	r0, r7
    c670:	e12fff33 	blx	r3
    c674:	e1560004 	cmp	r6, r4
    c678:	1afffff7 	bne	c65c <__libc_csu_init+0x34>
    c67c:	e8bd87f0 	pop	{r4, r5, r6, r7, r8, r9, sl, pc}
    c680:	000028c0 	andeq	r2, r0, r0, asr #17
    c684:	000028b8 			; <UNDEFINED> instruction: 0x000028b8

0000c688 <__libc_csu_fini>:
    c688:	e12fff1e 	bx	lr

Disassembly of section .fini:

0000c68c <_fini>:
    c68c:	e92d4008 	push	{r3, lr}
    c690:	e8bd8008 	pop	{r3, pc}

Disassembly of section .rodata:

0000c694 <_IO_stdin_used>:
    c694:	00020001 	andeq	r0, r2, r1
    c698:	7379732f 	cmnvc	r9, #-1140850688	; 0xbc000000
    c69c:	616c632f 	cmnvs	ip, pc, lsr #6
    c6a0:	672f7373 			; <UNDEFINED> instruction: 0x672f7373
    c6a4:	2f6f6970 	svccs	0x006f6970
    c6a8:	6f707865 	svcvs	0x00707865
    c6ac:	25007472 	strcs	r7, [r0, #-1138]	; 0xfffffb8e
    c6b0:	732f0064 			; <UNDEFINED> instruction: 0x732f0064
    c6b4:	632f7379 			; <UNDEFINED> instruction: 0x632f7379
    c6b8:	7373616c 	cmnvc	r3, #108, 2
    c6bc:	6970672f 	ldmdbvs	r0!, {r0, r1, r2, r3, r5, r8, r9, sl, sp, lr}^
    c6c0:	70672f6f 	rsbvc	r2, r7, pc, ror #30
    c6c4:	64256f69 	strtvs	r6, [r5], #-3945	; 0xfffff097
    c6c8:	7269642f 	rsbvc	r6, r9, #788529152	; 0x2f000000
    c6cc:	69746365 	ldmdbvs	r4!, {r0, r2, r5, r6, r8, r9, sp, lr}^
    c6d0:	2f006e6f 	svccs	0x00006e6f
    c6d4:	2f737973 	svccs	0x00737973
    c6d8:	73616c63 	cmnvc	r1, #25344	; 0x6300
    c6dc:	70672f73 	rsbvc	r2, r7, r3, ror pc
    c6e0:	752f6f69 	strvc	r6, [pc, #-3945]!	; b77f <pushover_init+0x583>
    c6e4:	7078656e 	rsbsvc	r6, r8, lr, ror #10
    c6e8:	0074726f 	rsbseq	r7, r4, pc, ror #4
    c6ec:	6f006e69 	svcvs	0x00006e69
    c6f0:	2f007475 	svccs	0x00007475
    c6f4:	2f737973 	svccs	0x00737973
    c6f8:	73616c63 	cmnvc	r1, #25344	; 0x6300
    c6fc:	70672f73 	rsbvc	r2, r7, r3, ror pc
    c700:	672f6f69 	strvs	r6, [pc, -r9, ror #30]!
    c704:	256f6970 	strbcs	r6, [pc, #-2416]!	; bd9c <send_notification+0x574>
    c708:	61762f64 	cmnvs	r6, r4, ror #30
    c70c:	0065756c 	rsbeq	r7, r5, ip, ror #10
    c710:	00310030 	eorseq	r0, r1, r0, lsr r0
    c714:	6c696857 	stclvs	8, cr6, [r9], #-348	; 0xfffffea4
    c718:	78652065 	stmdavc	r5!, {r0, r2, r5, r6, sp}^
    c71c:	74726f70 	ldrbtvc	r6, [r2], #-3952	; 0xfffff090
    c720:	20676e69 	rsbcs	r6, r7, r9, ror #28
    c724:	7074756f 	rsbsvc	r7, r4, pc, ror #10
    c728:	70207475 	eorvc	r7, r0, r5, ror r4
    c72c:	25206e69 	strcs	r6, [r0, #-3689]!	; 0xfffff197
    c730:	72282064 	eorvc	r2, r8, #100	; 0x64
    c734:	79616c65 	stmdbvc	r1!, {r0, r2, r5, r6, sl, fp, sp, lr}^
    c738:	20293420 	eorcs	r3, r9, r0, lsr #8
    c73c:	6f727265 	svcvs	0x00727265
    c740:	64252072 	strtvs	r2, [r5], #-114	; 0xffffff8e
    c744:	7325203a 			; <UNDEFINED> instruction: 0x7325203a
    c748:	6857000a 	ldmdavs	r7, {r1, r3}^
    c74c:	20656c69 	rsbcs	r6, r5, r9, ror #24
    c750:	6f707865 	svcvs	0x00707865
    c754:	6e697472 	mcrvs	4, 3, r7, cr9, cr2, {3}
    c758:	756f2067 	strbvc	r2, [pc, #-103]!	; c6f9 <_IO_stdin_used+0x65>
    c75c:	74757074 	ldrbtvc	r7, [r5], #-116	; 0xffffff8c
    c760:	6e697020 	cdpvs	0, 6, cr7, cr9, cr0, {1}
    c764:	20642520 	rsbcs	r2, r4, r0, lsr #10
    c768:	6c657228 	sfmvs	f7, 2, [r5], #-160	; 0xffffff60
    c76c:	33207961 			; <UNDEFINED> instruction: 0x33207961
    c770:	72652029 	rsbvc	r2, r5, #41	; 0x29
    c774:	20726f72 	rsbscs	r6, r2, r2, ror pc
    c778:	203a6425 	eorscs	r6, sl, r5, lsr #8
    c77c:	000a7325 	andeq	r7, sl, r5, lsr #6
    c780:	6c696857 	stclvs	8, cr6, [r9], #-348	; 0xfffffea4
    c784:	78652065 	stmdavc	r5!, {r0, r2, r5, r6, sp}^
    c788:	74726f70 	ldrbtvc	r6, [r2], #-3952	; 0xfffff090
    c78c:	20676e69 	rsbcs	r6, r7, r9, ror #28
    c790:	7074756f 	rsbsvc	r7, r4, pc, ror #10
    c794:	70207475 	eorvc	r7, r0, r5, ror r4
    c798:	25206e69 	strcs	r6, [r0, #-3689]!	; 0xfffff197
    c79c:	72282064 	eorvc	r2, r8, #100	; 0x64
    c7a0:	79616c65 	stmdbvc	r1!, {r0, r2, r5, r6, sl, fp, sp, lr}^
    c7a4:	20293220 	eorcs	r3, r9, r0, lsr #4
    c7a8:	6f727265 	svcvs	0x00727265
    c7ac:	64252072 	strtvs	r2, [r5], #-114	; 0xffffff8e
    c7b0:	7325203a 			; <UNDEFINED> instruction: 0x7325203a
    c7b4:	6857000a 	ldmdavs	r7, {r1, r3}^
    c7b8:	20656c69 	rsbcs	r6, r5, r9, ror #24
    c7bc:	6f707865 	svcvs	0x00707865
    c7c0:	6e697472 	mcrvs	4, 3, r7, cr9, cr2, {3}
    c7c4:	756f2067 	strbvc	r2, [pc, #-103]!	; c765 <_IO_stdin_used+0xd1>
    c7c8:	74757074 	ldrbtvc	r7, [r5], #-116	; 0xffffff8c
    c7cc:	6e697020 	cdpvs	0, 6, cr7, cr9, cr0, {1}
    c7d0:	20642520 	rsbcs	r2, r4, r0, lsr #10
    c7d4:	6c657228 	sfmvs	f7, 2, [r5], #-160	; 0xffffff60
    c7d8:	31207961 			; <UNDEFINED> instruction: 0x31207961
    c7dc:	72652029 	rsbvc	r2, r5, #41	; 0x29
    c7e0:	20726f72 	rsbscs	r6, r2, r2, ror pc
    c7e4:	203a6425 	eorscs	r6, sl, r5, lsr #8
    c7e8:	000a7325 	andeq	r7, sl, r5, lsr #6
    c7ec:	6c696857 	stclvs	8, cr6, [r9], #-348	; 0xfffffea4
    c7f0:	78652065 	stmdavc	r5!, {r0, r2, r5, r6, sp}^
    c7f4:	74726f70 	ldrbtvc	r6, [r2], #-3952	; 0xfffff090
    c7f8:	20676e69 	rsbcs	r6, r7, r9, ror #28
    c7fc:	75706e69 	ldrbvc	r6, [r0, #-3689]!	; 0xfffff197
    c800:	69702074 	ldmdbvs	r0!, {r2, r4, r5, r6, sp}^
    c804:	6425206e 	strtvs	r2, [r5], #-110	; 0xffffff92
    c808:	49502820 	ldmdbmi	r0, {r5, fp, sp}^
    c80c:	65202952 	strvs	r2, [r0, #-2386]!	; 0xfffff6ae
    c810:	726f7272 	rsbvc	r7, pc, #536870919	; 0x20000007
    c814:	3a642520 	bcc	1915c9c <_end+0x1906984>
    c818:	0a732520 	beq	1cd5ca0 <_end+0x1cc6988>
    c81c:	69685700 	stmdbvs	r8!, {r8, r9, sl, ip, lr}^
    c820:	6320656c 			; <UNDEFINED> instruction: 0x6320656c
    c824:	69666e6f 	stmdbvs	r6!, {r0, r1, r2, r3, r5, r6, r9, sl, fp, sp, lr}^
    c828:	69727567 	ldmdbvs	r2!, {r0, r1, r2, r5, r6, r8, sl, ip, sp, lr}^
    c82c:	6420676e 	strtvs	r6, [r0], #-1902	; 0xfffff892
    c830:	63657269 	cmnvs	r5, #-1879048186	; 0x90000006
    c834:	6f697463 	svcvs	0x00697463
    c838:	666f206e 	strbtvs	r2, [pc], -lr, rrx
    c83c:	6e697020 	cdpvs	0, 6, cr7, cr9, cr0, {1}
    c840:	20642520 	rsbcs	r2, r4, r0, lsr #10
    c844:	6f727265 	svcvs	0x00727265
    c848:	64252072 	strtvs	r2, [r5], #-114	; 0xffffff8e
    c84c:	7325203a 			; <UNDEFINED> instruction: 0x7325203a
    c850:	6857000a 	ldmdavs	r7, {r1, r3}^
    c854:	20656c69 	rsbcs	r6, r5, r9, ror #24
    c858:	78656e75 	stmdavc	r5!, {r0, r2, r4, r5, r6, r9, sl, fp, sp, lr}^
    c85c:	74726f70 	ldrbtvc	r6, [r2], #-3952	; 0xfffff090
    c860:	20676e69 	rsbcs	r6, r7, r9, ror #28
    c864:	4f495047 	svcmi	0x00495047
    c868:	6e697020 	cdpvs	0, 6, cr7, cr9, cr0, {1}
    c86c:	72652073 	rsbvc	r2, r5, #115	; 0x73
    c870:	20726f72 	rsbscs	r6, r2, r2, ror pc
    c874:	203a6425 	eorscs	r6, sl, r5, lsr #8
    c878:	000a7325 	andeq	r7, sl, r5, lsr #6
    c87c:	252d5925 	strcs	r5, [sp, #-2341]!	; 0xfffff6db
    c880:	64252d6d 	strtvs	r2, [r5], #-3437	; 0xfffff293
    c884:	3a482520 	bcc	1215d0c <_end+0x12069f4>
    c888:	253a4d25 	ldrcs	r4, [sl, #-3365]!	; 0xfffff2db
    c88c:	255b0053 	ldrbcs	r0, [fp, #-83]	; 0xffffffad
    c890:	00205d73 	eoreq	r5, r0, r3, ror sp
    c894:	00742b61 	rsbseq	r2, r4, r1, ror #22
    c898:	0a007477 	beq	29a7c <_end+0x1a764>
    c89c:	5d73255b 	cfldr64pl	mvdx2, [r3, #-364]!	; 0xfffffe94
    c8a0:	6c4f3c20 	mcrrvs	12, 2, r3, pc, cr0
    c8a4:	656d2064 	strbvs	r2, [sp, #-100]!	; 0xffffff9c
    c8a8:	67617373 			; <UNDEFINED> instruction: 0x67617373
    c8ac:	64207365 	strtvs	r7, [r0], #-869	; 0xfffffc9b
    c8b0:	74656c65 	strbtvc	r6, [r5], #-3173	; 0xfffff39b
    c8b4:	0a3e6465 	beq	fa5a50 <_end+0xf96738>
    c8b8:	255b000a 	ldrbcs	r0, [fp, #-10]
    c8bc:	2d205d73 	stccs	13, cr5, [r0, #-460]!	; 0xfffffe34
    c8c0:	2d2d2d2d 	stccs	13, cr2, [sp, #-180]!	; 0xffffff4c
    c8c4:	2d2d2d2d 	stccs	13, cr2, [sp, #-180]!	; 0xffffff4c
    c8c8:	2d2d2d2d 	stccs	13, cr2, [sp, #-180]!	; 0xffffff4c
    c8cc:	2d2d2d2d 	stccs	13, cr2, [sp, #-180]!	; 0xffffff4c
    c8d0:	2d2d2d2d 	stccs	13, cr2, [sp, #-180]!	; 0xffffff4c
    c8d4:	676f4c20 	strbvs	r4, [pc, -r0, lsr #24]!
    c8d8:	696e6920 	stmdbvs	lr!, {r5, r8, fp, sp, lr}^
    c8dc:	74616974 	strbtvc	r6, [r1], #-2420	; 0xfffff68c
    c8e0:	2d206465 	cfstrscs	mvf6, [r0, #-404]!	; 0xfffffe6c
    c8e4:	2d2d2d2d 	stccs	13, cr2, [sp, #-180]!	; 0xffffff4c
    c8e8:	2d2d2d2d 	stccs	13, cr2, [sp, #-180]!	; 0xffffff4c
    c8ec:	2d2d2d2d 	stccs	13, cr2, [sp, #-180]!	; 0xffffff4c
    c8f0:	2d2d2d2d 	stccs	13, cr2, [sp, #-180]!	; 0xffffff4c
    c8f4:	2d2d2d2d 	stccs	13, cr2, [sp, #-180]!	; 0xffffff4c
    c8f8:	255b000a 	ldrbcs	r0, [fp, #-10]
    c8fc:	69205d73 	stmdbvs	r0!, {r0, r1, r4, r5, r6, r8, sl, fp, ip, lr}
    c900:	72616c41 	rsbvc	r6, r1, #16640	; 0x4100
    c904:	6164206d 	cmnvs	r4, sp, rrx
    c908:	6e6f6d65 	cdpvs	13, 6, cr6, cr15, cr5, {3}
    c90c:	6e757220 	cdpvs	2, 7, cr7, cr5, cr0, {1}
    c910:	676e696e 	strbvs	r6, [lr, -lr, ror #18]!
    c914:	255b000a 	ldrbcs	r0, [fp, #-10]
    c918:	69205d73 	stmdbvs	r0!, {r0, r1, r4, r5, r6, r8, sl, fp, ip, lr}
    c91c:	72616c41 	rsbvc	r6, r1, #16640	; 0x4100
    c920:	6164206d 	cmnvs	r4, sp, rrx
    c924:	6e6f6d65 	cdpvs	13, 6, cr6, cr15, cr5, {3}
    c928:	72657420 	rsbvc	r7, r5, #32, 8	; 0x20000000
    c92c:	616e696d 	cmnvs	lr, sp, ror #18
    c930:	0a646574 	beq	1925f08 <_end+0x1916bf0>
    c934:	762f000a 	strtvc	r0, [pc], -sl
    c938:	6c2f7261 	sfmvs	f7, 4, [pc], #-388	; c7bc <_IO_stdin_used+0x128>
    c93c:	612f676f 			; <UNDEFINED> instruction: 0x612f676f
    c940:	6d72616c 	ldfvse	f6, [r2, #-432]!	; 0xfffffe50
    c944:	2f697034 	svccs	0x00697034
    c948:	6d656164 	stfvse	f6, [r5, #-400]!	; 0xfffffe70
    c94c:	6c2e6e6f 	stcvs	14, cr6, [lr], #-444	; 0xfffffe44
    c950:	2f00676f 	svccs	0x0000676f
    c954:	2f726176 	svccs	0x00726176
    c958:	2f676f6c 	svccs	0x00676f6c
    c95c:	72616c61 	rsbvc	r6, r1, #24832	; 0x6100
    c960:	6970346d 	ldmdbvs	r0!, {r0, r2, r3, r5, r6, sl, ip, sp}^
    c964:	6576652f 	ldrbvs	r6, [r6, #-1327]!	; 0xfffffad1
    c968:	2e73746e 	cdpcs	4, 7, cr7, cr3, cr14, {3}
    c96c:	00676f6c 	rsbeq	r6, r7, ip, ror #30
    c970:	6f72702f 	svcvs	0x0072702f
    c974:	65732f63 	ldrbvs	r2, [r3, #-3939]!	; 0xfffff09d
    c978:	652f666c 	strvs	r6, [pc, #-1644]!	; c314 <polling_thread+0x5c>
    c97c:	2f006578 	svccs	0x00006578
    c980:	69684300 	stmdbvs	r8!, {r8, r9, lr}^
    c984:	7020646c 	eorvc	r6, r0, ip, ror #8
    c988:	65636f72 	strbvs	r6, [r3, #-3954]!	; 0xfffff08e
    c98c:	77207373 			; <UNDEFINED> instruction: 0x77207373
    c990:	20687469 	rsbcs	r7, r8, r9, ror #8
    c994:	3a444950 	bcc	111eedc <_end+0x110fbc4>
    c998:	20692520 	rsbcs	r2, r9, r0, lsr #10
    c99c:	6d726574 	cfldr64vs	mvdx6, [r2, #-464]!	; 0xfffffe30
    c9a0:	74616e69 	strbtvc	r6, [r1], #-3689	; 0xfffff197
    c9a4:	0a2e6465 	beq	ba5b40 <_end+0xb96828>
    c9a8:	72724500 	rsbsvc	r4, r2, #0, 10
    c9ac:	7720726f 	strvc	r7, [r0, -pc, ror #4]!
    c9b0:	69746961 	ldmdbvs	r4!, {r0, r5, r6, r8, fp, sp, lr}^
    c9b4:	6620676e 	strtvs	r6, [r0], -lr, ror #14
    c9b8:	6320726f 			; <UNDEFINED> instruction: 0x6320726f
    c9bc:	646c6968 	strbtvs	r6, [ip], #-2408	; 0xfffff698
    c9c0:	6f727020 	svcvs	0x00727020
    c9c4:	73736563 	cmnvc	r3, #415236096	; 0x18c00000
    c9c8:	206f7420 	rsbcs	r7, pc, r0, lsr #8
    c9cc:	696e6966 	stmdbvs	lr!, {r1, r2, r5, r6, r8, fp, sp, lr}^
    c9d0:	202e6873 	eorcs	r6, lr, r3, ror r8
    c9d4:	6e727265 	cdpvs	2, 7, cr7, cr2, cr5, {3}
    c9d8:	6925206f 	stmdbvs	r5!, {r0, r1, r2, r3, r5, r6, sp}
    c9dc:	7325203a 			; <UNDEFINED> instruction: 0x7325203a
    c9e0:	6553000a 	ldrbvs	r0, [r3, #-10]
    c9e4:	726f736e 	rsbvc	r7, pc, #-1207959551	; 0xb8000001
    c9e8:	6c6f7020 	stclvs	0, cr7, [pc], #-128	; c970 <_IO_stdin_used+0x2dc>
    c9ec:	676e696c 	strbvs	r6, [lr, -ip, ror #18]!
    c9f0:	69742820 	ldmdbvs	r4!, {r5, fp, sp}^
    c9f4:	2972656d 	ldmdbcs	r2!, {r0, r2, r3, r5, r6, r8, sl, sp, lr}^
    c9f8:	74657320 	strbtvc	r7, [r5], #-800	; 0xfffffce0
    c9fc:	206f7420 	rsbcs	r7, pc, r0, lsr #8
    ca00:	73696c25 	cmnvc	r9, #9472	; 0x2500
    ca04:	646e6120 	strbtvs	r6, [lr], #-288	; 0xfffffee0
    ca08:	696c2520 	stmdbvs	ip!, {r5, r8, sl, sp}^
    ca0c:	000a7375 	andeq	r7, sl, r5, ror r3
    ca10:	6f727245 	svcvs	0x00727245
    ca14:	65732072 	ldrbvs	r2, [r3, #-114]!	; 0xffffff8e
    ca18:	6e697474 	mcrvs	4, 3, r7, cr9, cr4, {3}
    ca1c:	69742067 	ldmdbvs	r4!, {r0, r1, r2, r5, r6, sp}^
    ca20:	3a72656d 	bcc	1ca5fdc <_end+0x1c96cc4>
    ca24:	72726520 	rsbsvc	r6, r2, #32, 10	; 0x8000000
    ca28:	25206f6e 	strcs	r6, [r0, #-3950]!	; 0xfffff092
    ca2c:	25203a69 	strcs	r3, [r0, #-2665]!	; 0xfffff597
    ca30:	55000a73 	strpl	r0, [r0, #-2675]	; 0xfffff58d
    ca34:	6f6e6b6e 	svcvs	0x006e6b6e
    ca38:	73206e77 			; <UNDEFINED> instruction: 0x73206e77
    ca3c:	69636570 	stmdbvs	r3!, {r4, r5, r6, r8, sl, sp, lr}^
    ca40:	64656966 	strbtvs	r6, [r5], #-2406	; 0xfffff69a
    ca44:	736f6820 	cmnvc	pc, #32, 16	; 0x200000
    ca48:	6f4e0074 	svcvs	0x004e0074
    ca4c:	20534e20 	subscs	r4, r3, r0, lsr #28
    ca50:	6f636572 	svcvs	0x00636572
    ca54:	20736472 	rsbscs	r6, r3, r2, ror r4
    ca58:	20726f66 	rsbscs	r6, r2, r6, ror #30
    ca5c:	63657073 	cmnvs	r5, #115	; 0x73
    ca60:	65696669 	strbvs	r6, [r9, #-1641]!	; 0xfffff997
    ca64:	6f642064 	svcvs	0x00642064
    ca68:	6e69616d 	powvsez	f6, f1, #5.0
    ca6c:	206f4e00 	rsbcs	r4, pc, r0, lsl #28
    ca70:	70736572 	rsbsvc	r6, r3, r2, ror r5
    ca74:	65736e6f 	ldrbvs	r6, [r3, #-3695]!	; 0xfffff191
    ca78:	726f6620 	rsbvc	r6, pc, #32, 12	; 0x2000000
    ca7c:	20534e20 	subscs	r4, r3, r0, lsr #28
    ca80:	72657571 	rsbvc	r7, r5, #473956352	; 0x1c400000
    ca84:	6e550079 	mrcvs	0, 2, r0, cr5, cr9, {3}
    ca88:	65707865 	ldrbvs	r7, [r0, #-2149]!	; 0xfffff79b
    ca8c:	64657463 	strbtvs	r7, [r5], #-1123	; 0xfffffb9d
    ca90:	72726520 	rsbsvc	r6, r2, #32, 10	; 0x8000000
    ca94:	4600726f 	strmi	r7, [r0], -pc, ror #4
    ca98:	454d524f 	strbmi	r5, [sp, #-591]	; 0xfffffdb1
    ca9c:	72205252 	eorvc	r5, r0, #536870917	; 0x20000005
    caa0:	6f707365 	svcvs	0x00707365
    caa4:	0065736e 	rsbeq	r7, r5, lr, ror #6
    caa8:	56524553 			; <UNDEFINED> instruction: 0x56524553
    caac:	4c494146 	stfmie	f4, [r9], {70}	; 0x46
    cab0:	73657220 	cmnvc	r5, #32, 4
    cab4:	736e6f70 	cmnvc	lr, #112, 30	; 0x1c0
    cab8:	584e0065 	stmdapl	lr, {r0, r2, r5, r6}^
    cabc:	414d4f44 	cmpmi	sp, r4, asr #30
    cac0:	72204e49 	eorvc	r4, r0, #1168	; 0x490
    cac4:	6f707365 	svcvs	0x00707365
    cac8:	0065736e 	rsbeq	r7, r5, lr, ror #6
    cacc:	49544f4e 	ldmdbmi	r4, {r1, r2, r3, r6, r8, r9, sl, fp, lr}^
    cad0:	7220504d 	eorvc	r5, r0, #77	; 0x4d
    cad4:	6f707365 	svcvs	0x00707365
    cad8:	0065736e 	rsbeq	r7, r5, lr, ror #6
    cadc:	55464552 	strbpl	r4, [r6, #-1362]	; 0xfffffaae
    cae0:	20444553 	subcs	r4, r4, r3, asr r5
    cae4:	70736572 	rsbsvc	r6, r3, r2, ror r5
    cae8:	65736e6f 	ldrbvs	r6, [r3, #-3695]!	; 0xfffff191
    caec:	656e7500 	strbvs	r7, [lr, #-1280]!	; 0xfffffb00
    caf0:	63657078 	cmnvs	r5, #120	; 0x78
    caf4:	20646574 	rsbcs	r6, r4, r4, ror r5
    caf8:	75746572 	ldrbvc	r6, [r4, #-1394]!	; 0xfffffa8e
    cafc:	63206e72 			; <UNDEFINED> instruction: 0x63206e72
    cb00:	0065646f 	rsbeq	r6, r5, pc, ror #8
    cb04:	6f727245 	svcvs	0x00727245
    cb08:	65722072 	ldrbvs	r2, [r2, #-114]!	; 0xffffff8e
    cb0c:	766c6f73 	uqsub16vc	r6, ip, r3
    cb10:	20676e69 	rsbcs	r6, r7, r9, ror #28
    cb14:	6f205049 	svcvs	0x00205049
    cb18:	6f682066 	svcvs	0x00682066
    cb1c:	616e7473 	smcvs	59203	; 0xe743
    cb20:	2520656d 	strcs	r6, [r0, #-1389]!	; 0xfffffa93
    cb24:	65202e73 	strvs	r2, [r0, #-3699]!	; 0xfffff18d
    cb28:	726f7272 	rsbvc	r7, pc, #536870919	; 0x20000007
    cb2c:	7325203a 			; <UNDEFINED> instruction: 0x7325203a
    cb30:	203e000a 	eorscs	r0, lr, sl
    cb34:	000a7325 	andeq	r7, sl, r5, lsr #6
    cb38:	203a7325 	eorscs	r7, sl, r5, lsr #6
    cb3c:	65707865 	ldrbvs	r7, [r0, #-2149]!	; 0xfffff79b
    cb40:	64657463 	strbtvs	r7, [r5], #-1123	; 0xfffffb9d
    cb44:	736e6120 	cmnvc	lr, #32, 2
    cb48:	20726577 	rsbscs	r6, r2, r7, ror r5
    cb4c:	65707974 	ldrbvs	r7, [r0, #-2420]!	; 0xfffff68c
    cb50:	2c642520 	cfstr64cs	mvdx2, [r4], #-128	; 0xffffff80
    cb54:	746f6720 	strbtvc	r6, [pc], #-1824	; cb5c <_IO_stdin_used+0x4c8>
    cb58:	0a642520 	beq	1915fe0 <_end+0x1906cc8>
    cb5c:	5f736e00 	svcpl	0x00736e00
    cb60:	73726170 	cmnvc	r2, #112, 2
    cb64:	3a727265 	bcc	1ca9500 <_end+0x1c9a1e8>
    cb68:	0a732520 	beq	1cd5ff0 <_end+0x1cc6cd8>
    cb6c:	3a732500 	bcc	1cd5f74 <_end+0x1cc6c5c>
    cb70:	70786520 	rsbsvc	r6, r8, r0, lsr #10
    cb74:	65746365 	ldrbvs	r6, [r4, #-869]!	; 0xfffffc9b
    cb78:	20312064 	eorscs	r2, r1, r4, rrx
    cb7c:	77736e61 	ldrbvc	r6, [r3, -r1, ror #28]!
    cb80:	202c7265 	eorcs	r7, ip, r5, ror #4
    cb84:	20746f67 	rsbscs	r6, r4, r7, ror #30
    cb88:	000a6425 	andeq	r6, sl, r5, lsr #8
    cb8c:	20534e44 	subscs	r4, r3, r4, asr #28
    cb90:	70736572 	rsbsvc	r6, r3, r2, ror r5
    cb94:	65736e6f 	ldrbvs	r6, [r3, #-3695]!	; 0xfffff191
    cb98:	70657220 	rsbvc	r7, r5, r0, lsr #4
    cb9c:	6574726f 	ldrbvs	r7, [r4, #-623]!	; 0xfffffd91
    cba0:	6e612064 	cdpvs	0, 6, cr2, cr1, cr4, {3}
    cba4:	72726520 	rsbsvc	r6, r2, #32, 10	; 0x8000000
    cba8:	2820726f 	stmdacs	r0!, {r0, r1, r2, r3, r5, r6, r9, ip, sp, lr}
    cbac:	616d6f64 	cmnvs	sp, r4, ror #30
    cbb0:	203a6e69 	eorscs	r6, sl, r9, ror #28
    cbb4:	3a297325 	bcc	a69850 <_end+0xa5a538>
    cbb8:	0a732520 	beq	1cd6040 <_end+0x1cc6d28>
    cbbc:	5f736e00 	svcpl	0x00736e00
    cbc0:	74696e69 	strbtvc	r6, [r9], #-3689	; 0xfffff197
    cbc4:	73726170 	cmnvc	r2, #112, 2
    cbc8:	25203a65 	strcs	r3, [r0, #-2661]!	; 0xfffff59b
    cbcc:	43000a73 	movwmi	r0, #2675	; 0xa73
    cbd0:	656e6e6f 	strbvs	r6, [lr, #-3695]!	; 0xfffff191
    cbd4:	6f697463 	svcvs	0x00697463
    cbd8:	6572206e 	ldrbvs	r2, [r2, #-110]!	; 0xffffff92
    cbdc:	65737566 	ldrbvs	r7, [r3, #-1382]!	; 0xfffffa9a
    cbe0:	54203a64 	strtpl	r3, [r0], #-2660	; 0xfffff59c
    cbe4:	65726568 	ldrbvs	r6, [r2, #-1384]!	; 0xfffffa98
    cbe8:	20736920 	rsbscs	r6, r3, r0, lsr #18
    cbec:	6e206f6e 	cdpvs	15, 2, cr6, cr0, cr14, {3}
    cbf0:	20656d61 	rsbcs	r6, r5, r1, ror #26
    cbf4:	76726573 			; <UNDEFINED> instruction: 0x76726573
    cbf8:	72207265 	eorvc	r7, r0, #1342177286	; 0x50000006
    cbfc:	696e6e75 	stmdbvs	lr!, {r0, r2, r4, r5, r6, r9, sl, fp, sp, lr}^
    cc00:	6f20676e 	svcvs	0x0020676e
    cc04:	7325206e 			; <UNDEFINED> instruction: 0x7325206e
    cc08:	6854000a 	ldmdavs	r4, {r1, r3}^
    cc0c:	20657265 	rsbcs	r7, r5, r5, ror #4
    cc10:	20736177 	rsbscs	r6, r3, r7, ror r1
    cc14:	72206f6e 	eorvc	r6, r0, #440	; 0x1b8
    cc18:	6f707365 	svcvs	0x00707365
    cc1c:	2065736e 	rsbcs	r7, r5, lr, ror #6
    cc20:	6d6f7266 	sfmvs	f7, 2, [pc, #-408]!	; ca90 <_IO_stdin_used+0x3fc>
    cc24:	20732520 	rsbscs	r2, r3, r0, lsr #10
    cc28:	655f6828 	ldrbvs	r6, [pc, #-2088]	; c408 <polling_thread+0x150>
    cc2c:	6f6e7272 	svcvs	0x006e7272
    cc30:	6925203a 	stmdbvs	r5!, {r1, r3, r4, r5, sp}
    cc34:	7325203a 			; <UNDEFINED> instruction: 0x7325203a
    cc38:	72000a29 	andvc	r0, r0, #167936	; 0x29000
    cc3c:	695f7365 	ldmdbvs	pc, {r0, r2, r5, r6, r8, r9, ip, sp, lr}^	; <UNPREDICTABLE>
    cc40:	2074696e 	rsbscs	r6, r4, lr, ror #18
    cc44:	6f727265 	svcvs	0x00727265
    cc48:	65202e72 	strvs	r2, [r0, #-3698]!	; 0xfffff18e
    cc4c:	6f6e7272 	svcvs	0x006e7272
    cc50:	0a69253a 	beq	1a56140 <_end+0x1a46e28>
    cc54:	73657200 	cmnvc	r5, #0, 4
    cc58:	65766c6f 	ldrbvs	r6, [r6, #-3183]!	; 0xfffff391
    cc5c:	6f2e3172 	svcvs	0x002e3172
    cc60:	646e6570 	strbtvs	r6, [lr], #-1392	; 0xfffffa90
    cc64:	632e736e 			; <UNDEFINED> instruction: 0x632e736e
    cc68:	6d006d6f 	stcvs	13, cr6, [r0, #-444]	; 0xfffffe44
    cc6c:	2e706979 			; <UNDEFINED> instruction: 0x2e706979
    cc70:	6e65706f 	cdpvs	0, 6, cr7, cr5, cr15, {3}
    cc74:	2e736e64 	cdpcs	14, 7, cr6, cr3, cr4, {3}
    cc78:	006d6f63 	rsbeq	r6, sp, r3, ror #30
    cc7c:	6f727245 	svcvs	0x00727245
    cc80:	626f2072 	rsbvs	r2, pc, #114	; 0x72
    cc84:	6e696174 	mcrvs	1, 3, r6, cr9, cr4, {3}
    cc88:	20676e69 	rsbcs	r6, r7, r9, ror #28
    cc8c:	20656874 	rsbcs	r6, r5, r4, ror r8
    cc90:	65726964 	ldrbvs	r6, [r2, #-2404]!	; 0xfffff69c
    cc94:	726f7463 	rsbvc	r7, pc, #1660944384	; 0x63000000
    cc98:	666f2079 			; <UNDEFINED> instruction: 0x666f2079
    cc9c:	65687420 	strbvs	r7, [r8, #-1056]!	; 0xfffffbe0
    cca0:	72756320 	rsbsvc	r6, r5, #32, 6	; 0x80000000
    cca4:	746e6572 	strbtvc	r6, [lr], #-1394	; 0xfffffa8e
    cca8:	6f72702d 	svcvs	0x0072702d
    ccac:	73736563 	cmnvc	r3, #415236096	; 0x18c00000
    ccb0:	65786520 	ldrbvs	r6, [r8, #-1312]!	; 0xfffffae0
    ccb4:	61747563 	cmnvs	r4, r3, ror #10
    ccb8:	20656c62 	rsbcs	r6, r5, r2, ror #24
    ccbc:	656c6966 	strbvs	r6, [ip, #-2406]!	; 0xfffff69a
    ccc0:	7265203a 	rsbvc	r2, r5, #58	; 0x3a
    ccc4:	3d6f6e72 	stclcc	14, cr6, [pc, #-456]!	; cb04 <_IO_stdin_used+0x470>
    ccc8:	000a6425 	andeq	r6, sl, r5, lsr #8
    cccc:	20007472 	andcs	r7, r0, r2, ror r4
    ccd0:	76726573 			; <UNDEFINED> instruction: 0x76726573
    ccd4:	755f7265 	ldrbvc	r7, [pc, #-613]	; ca77 <_IO_stdin_used+0x3e3>
    ccd8:	203d6c72 	eorscs	r6, sp, r2, ror ip
    ccdc:	38303225 	ldmdacc	r0!, {r0, r2, r5, r9, ip, sp}
    cce0:	000a7333 	andeq	r7, sl, r3, lsr r3
    cce4:	6b6f7420 	blvs	1be9d6c <_end+0x1bdaa54>
    cce8:	203d6e65 	eorscs	r6, sp, r5, ror #28
    ccec:	73303825 	teqvc	r0, #2424832	; 0x250000
    ccf0:	7520000a 	strvc	r0, [r0, #-10]!
    ccf4:	3d726573 	cfldr64cc	mvdx6, [r2, #-460]!	; 0xfffffe34
    ccf8:	30382520 	eorscc	r2, r8, r0, lsr #10
    ccfc:	45000a73 	strmi	r0, [r0, #-2675]	; 0xfffff58d
    cd00:	726f7272 	rsbvc	r7, pc, #536870919	; 0x20000007
    cd04:	616f6c20 	cmnvs	pc, r0, lsr #24
    cd08:	676e6964 	strbvs	r6, [lr, -r4, ror #18]!
    cd0c:	73755020 	cmnvc	r5, #32
    cd10:	65766f68 	ldrbvs	r6, [r6, #-3944]!	; 0xfffff098
    cd14:	6f632072 	svcvs	0x00632072
    cd18:	6769666e 	strbvs	r6, [r9, -lr, ror #12]!
    cd1c:	6c696620 	stclvs	6, cr6, [r9], #-128	; 0xffffff80
    cd20:	75203a65 	strvc	r3, [r0, #-2661]!	; 0xfffff59b
    cd24:	6f6e6b6e 	svcvs	0x006e6b6e
    cd28:	76206e77 			; <UNDEFINED> instruction: 0x76206e77
    cd2c:	61697261 	cmnvs	r9, r1, ror #4
    cd30:	20656c62 	rsbcs	r6, r5, r2, ror #24
    cd34:	656d616e 	strbvs	r6, [sp, #-366]!	; 0xfffffe92
    cd38:	756f6620 	strbvc	r6, [pc, #-1568]!	; c720 <_IO_stdin_used+0x8c>
    cd3c:	6920646e 	stmdbvs	r0!, {r1, r2, r3, r5, r6, sl, sp, lr}
    cd40:	6966206e 	stmdbvs	r6!, {r1, r2, r3, r5, r6, sp}^
    cd44:	000a656c 	andeq	r6, sl, ip, ror #10
    cd48:	70747468 	rsbsvc	r7, r4, r8, ror #8
    cd4c:	002f2f3a 	eoreq	r2, pc, sl, lsr pc	; <UNPREDICTABLE>
    cd50:	55006925 	strpl	r6, [r0, #-2341]	; 0xfffff6db
    cd54:	676e6973 			; <UNDEFINED> instruction: 0x676e6973
    cd58:	73755020 	cmnvc	r5, #32
    cd5c:	65766f68 	ldrbvs	r6, [r6, #-3944]!	; 0xfffff098
    cd60:	65732072 	ldrbvs	r2, [r3, #-114]!	; 0xffffff8e
    cd64:	72657672 	rsbvc	r7, r5, #119537664	; 0x7200000
    cd68:	20732520 	rsbscs	r2, r3, r0, lsr #10
    cd6c:	20726f66 	rsbscs	r6, r2, r6, ror #30
    cd70:	69746f6e 	ldmdbvs	r4!, {r1, r2, r3, r5, r6, r8, r9, sl, fp, sp, lr}^
    cd74:	61636966 	cmnvs	r3, r6, ror #18
    cd78:	6e6f6974 			; <UNDEFINED> instruction: 0x6e6f6974
    cd7c:	45000a73 	strmi	r0, [r0, #-2675]	; 0xfffff58d
    cd80:	726f7272 	rsbvc	r7, pc, #536870919	; 0x20000007
    cd84:	616f6c20 	cmnvs	pc, r0, lsr #24
    cd88:	676e6964 	strbvs	r6, [lr, -r4, ror #18]!
    cd8c:	73755020 	cmnvc	r5, #32
    cd90:	65766f68 	ldrbvs	r6, [r6, #-3944]!	; 0xfffff098
    cd94:	6f632072 	svcvs	0x00632072
    cd98:	6769666e 	strbvs	r6, [r9, -lr, ror #12]!
    cd9c:	6c696620 	stclvs	6, cr6, [r9], #-128	; 0xffffff80
    cda0:	73203a65 			; <UNDEFINED> instruction: 0x73203a65
    cda4:	65767265 	ldrbvs	r7, [r6, #-613]!	; 0xfffffd9b
    cda8:	52552072 	subspl	r2, r5, #114	; 0x72
    cdac:	7369204c 	cmnvc	r9, #76	; 0x4c
    cdb0:	6f6f7420 	svcvs	0x006f7420
    cdb4:	6e6f6c20 	cdpvs	12, 6, cr6, cr15, cr0, {1}
    cdb8:	6d282067 	stcvs	0, cr2, [r8, #-412]!	; 0xfffffe64
    cdbc:	2065726f 	rsbcs	r7, r5, pc, ror #4
    cdc0:	6e616874 	mcrvs	8, 3, r6, cr1, cr4, {3}
    cdc4:	20343620 	eorscs	r3, r4, r0, lsr #12
    cdc8:	72616863 	rsbvc	r6, r1, #6488064	; 0x630000
    cdcc:	65746361 	ldrbvs	r6, [r4, #-865]!	; 0xfffffc9f
    cdd0:	0a297372 	beq	a69ba0 <_end+0xa5a888>
    cdd4:	72724500 	rsbsvc	r4, r2, #0, 10
    cdd8:	6c20726f 	sfmvs	f7, 4, [r0], #-444	; 0xfffffe44
    cddc:	6964616f 	stmdbvs	r4!, {r0, r1, r2, r3, r5, r6, r8, sp, lr}^
    cde0:	5020676e 	eorpl	r6, r0, lr, ror #14
    cde4:	6f687375 	svcvs	0x00687375
    cde8:	20726576 	rsbscs	r6, r2, r6, ror r5
    cdec:	666e6f63 	strbtvs	r6, [lr], -r3, ror #30
    cdf0:	66206769 	strtvs	r6, [r0], -r9, ror #14
    cdf4:	3a656c69 	bcc	1967fa0 <_end+0x1958c88>
    cdf8:	72657320 	rsbvc	r7, r5, #32, 6	; 0x80000000
    cdfc:	20726576 	rsbscs	r6, r2, r6, ror r5
    ce00:	204c5255 	subcs	r5, ip, r5, asr r2
    ce04:	72617473 	rsbvc	r7, r1, #1929379840	; 0x73000000
    ce08:	73692074 	cmnvc	r9, #116	; 0x74
    ce0c:	746f6e20 	strbtvc	r6, [pc], #-3616	; ce14 <_IO_stdin_used+0x780>
    ce10:	74746820 	ldrbtvc	r6, [r4], #-2080	; 0xfffff7e0
    ce14:	2f2f3a70 	svccs	0x002f3a70
    ce18:	7245000a 	subvc	r0, r5, #10
    ce1c:	20726f72 	rsbscs	r6, r2, r2, ror pc
    ce20:	64616f6c 	strbtvs	r6, [r1], #-3948	; 0xfffff094
    ce24:	20676e69 	rsbcs	r6, r7, r9, ror #28
    ce28:	68737550 	ldmdavs	r3!, {r4, r6, r8, sl, ip, sp, lr}^
    ce2c:	7265766f 	rsbvc	r7, r5, #116391936	; 0x6f00000
    ce30:	6e6f6320 	cdpvs	3, 6, cr6, cr15, cr0, {1}
    ce34:	20676966 	rsbcs	r6, r7, r6, ror #18
    ce38:	656c6966 	strbvs	r6, [ip, #-2406]!	; 0xfffff69a
    ce3c:	7375203a 	cmnvc	r5, #58	; 0x3a
    ce40:	69207265 	stmdbvs	r0!, {r0, r2, r5, r6, r9, ip, sp, lr}
    ce44:	6f6e2064 	svcvs	0x006e2064
    ce48:	6f662074 	svcvs	0x00662074
    ce4c:	0a646e75 	beq	1928828 <_end+0x1919510>
    ce50:	72724500 	rsbsvc	r4, r2, #0, 10
    ce54:	6c20726f 	sfmvs	f7, 4, [r0], #-444	; 0xfffffe44
    ce58:	6964616f 	stmdbvs	r4!, {r0, r1, r2, r3, r5, r6, r8, sp, lr}^
    ce5c:	5020676e 	eorpl	r6, r0, lr, ror #14
    ce60:	6f687375 	svcvs	0x00687375
    ce64:	20726576 	rsbscs	r6, r2, r6, ror r5
    ce68:	666e6f63 	strbtvs	r6, [lr], -r3, ror #30
    ce6c:	66206769 	strtvs	r6, [r0], -r9, ror #14
    ce70:	3a656c69 	bcc	196801c <_end+0x1958d04>
    ce74:	6b6f7420 	blvs	1be9efc <_end+0x1bdabe4>
    ce78:	69206e65 	stmdbvs	r0!, {r0, r2, r5, r6, r9, sl, fp, sp, lr}
    ce7c:	6f6e2064 	svcvs	0x006e2064
    ce80:	6f662074 	svcvs	0x00662074
    ce84:	0a646e75 	beq	1928860 <_end+0x1919548>
    ce88:	72724500 	rsbsvc	r4, r2, #0, 10
    ce8c:	6c20726f 	sfmvs	f7, 4, [r0], #-444	; 0xfffffe44
    ce90:	6964616f 	stmdbvs	r4!, {r0, r1, r2, r3, r5, r6, r8, sp, lr}^
    ce94:	5020676e 	eorpl	r6, r0, lr, ror #14
    ce98:	6f687375 	svcvs	0x00687375
    ce9c:	20726576 	rsbscs	r6, r2, r6, ror r5
    cea0:	666e6f63 	strbtvs	r6, [lr], -r3, ror #30
    cea4:	66206769 	strtvs	r6, [r0], -r9, ror #14
    cea8:	3a656c69 	bcc	1968054 <_end+0x1958d3c>
    ceac:	72657320 	rsbvc	r7, r5, #32, 6	; 0x80000000
    ceb0:	20726576 	rsbscs	r6, r2, r6, ror r5
    ceb4:	204c5255 	subcs	r5, ip, r5, asr r2
    ceb8:	20746f6e 	rsbscs	r6, r4, lr, ror #30
    cebc:	6e756f66 	cdpvs	15, 7, cr6, cr5, cr6, {3}
    cec0:	45000a64 	strmi	r0, [r0, #-2660]	; 0xfffff59c
    cec4:	726f7272 	rsbvc	r7, pc, #536870919	; 0x20000007
    cec8:	65706f20 	ldrbvs	r6, [r0, #-3872]!	; 0xfffff0e0
    cecc:	676e696e 	strbvs	r6, [lr, -lr, ror #18]!
    ced0:	73755020 	cmnvc	r5, #32
    ced4:	65766f68 	ldrbvs	r6, [r6, #-3944]!	; 0xfffff098
    ced8:	6f632072 	svcvs	0x00632072
    cedc:	6769666e 	strbvs	r6, [r9, -lr, ror #12]!
    cee0:	6c696620 	stclvs	6, cr6, [r9], #-128	; 0xffffff80
    cee4:	73252065 			; <UNDEFINED> instruction: 0x73252065
    cee8:	7265203a 	rsbvc	r2, r5, #58	; 0x3a
    ceec:	3d6f6e72 	stclcc	14, cr6, [pc, #-456]!	; cd2c <_IO_stdin_used+0x698>
    cef0:	000a6425 	andeq	r6, sl, r5, lsr #8
    cef4:	00622b72 	rsbeq	r2, r2, r2, ror fp
    cef8:	4f500032 	svcmi	0x00500032
    cefc:	25205453 	strcs	r5, [r0, #-1107]!	; 0xfffffbad
    cf00:	54482073 	strbpl	r2, [r8], #-115	; 0xffffff8d
    cf04:	312f5054 	qsubcc	r5, r4, pc	; <UNPREDICTABLE>
    cf08:	0a0d302e 	beq	358fc8 <_end+0x349cb0>
    cf0c:	736f4800 	cmnvc	pc, #0, 16
    cf10:	25203a74 	strcs	r3, [r0, #-2676]!	; 0xfffff58c
    cf14:	000a0d73 	andeq	r0, sl, r3, ror sp
    cf18:	746e6f43 	strbtvc	r6, [lr], #-3907	; 0xfffff0bd
    cf1c:	2d746e65 	ldclcs	14, cr6, [r4, #-404]!	; 0xfffffe6c
    cf20:	65707954 	ldrbvs	r7, [r0, #-2388]!	; 0xfffff6ac
    cf24:	7061203a 	rsbvc	r2, r1, sl, lsr r0
    cf28:	63696c70 	cmnvs	r9, #112, 24	; 0x7000
    cf2c:	6f697461 	svcvs	0x00697461
    cf30:	2d782f6e 	ldclcs	15, cr2, [r8, #-440]!	; 0xfffffe48
    cf34:	2d777777 	ldclcs	7, cr7, [r7, #-476]!	; 0xfffffe24
    cf38:	6d726f66 	ldclvs	15, cr6, [r2, #-408]!	; 0xfffffe68
    cf3c:	6c72752d 	cfldr64vs	mvdx7, [r2], #-180	; 0xffffff4c
    cf40:	6f636e65 	svcvs	0x00636e65
    cf44:	0d646564 	cfstr64eq	mvdx6, [r4, #-400]!	; 0xfffffe70
    cf48:	6f43000a 	svcvs	0x0043000a
    cf4c:	6e65746e 	cdpvs	4, 6, cr7, cr5, cr14, {3}
    cf50:	654c2d74 	strbvs	r2, [ip, #-3444]	; 0xfffff28c
    cf54:	6874676e 	ldmdavs	r4!, {r1, r2, r3, r5, r6, r8, r9, sl, sp, lr}^
    cf58:	6c25203a 	stcvs	0, cr2, [r5], #-232	; 0xffffff18
    cf5c:	0d0a0d75 	stceq	13, cr0, [sl, #-468]	; 0xfffffe2c
    cf60:	6f74000a 	svcvs	0x0074000a
    cf64:	3d6e656b 	cfstr64cc	mvdx6, [lr, #-428]!	; 0xfffffe54
    cf68:	75267325 	strvc	r7, [r6, #-805]!	; 0xfffffcdb
    cf6c:	3d726573 	cfldr64cc	mvdx6, [r2, #-460]!	; 0xfffffe34
    cf70:	6d267325 	stcvs	3, cr7, [r6, #-148]!	; 0xffffff6c
    cf74:	61737365 	cmnvs	r3, r5, ror #6
    cf78:	253d6567 	ldrcs	r6, [sp, #-1383]!	; 0xfffffa99
    cf7c:	72702673 	rsbsvc	r2, r0, #120586240	; 0x7300000
    cf80:	69726f69 	ldmdbvs	r2!, {r0, r3, r5, r6, r8, r9, sl, fp, sp, lr}^
    cf84:	253d7974 	ldrcs	r7, [sp, #-2420]!	; 0xfffff68c
    cf88:	72260073 	eorvc	r0, r6, #115	; 0x73
    cf8c:	79727465 	ldmdbvc	r2!, {r0, r2, r5, r6, sl, ip, sp, lr}^
    cf90:	2631333d 			; <UNDEFINED> instruction: 0x2631333d
    cf94:	69707865 	ldmdbvs	r0!, {r0, r2, r5, r6, fp, ip, sp, lr}^
    cf98:	313d6572 	teqcc	sp, r2, ror r5
    cf9c:	48003032 	stmdami	r0, {r1, r4, r5, ip, sp}
    cfa0:	2f505454 	svccs	0x00505454
    cfa4:	5e5b2a25 	vnmlspl.f32	s5, s22, s11
    cfa8:	25205d20 	strcs	r5, [r0, #-3360]!	; 0xfffff2e0
    cfac:	2a252075 	bcs	955188 <_end+0x945e70>
    cfb0:	5d0d5e5b 	stcpl	14, cr5, [sp, #-364]	; 0xfffffe94
    cfb4:	7b20000a 	blvc	80cfe4 <_end+0x7fdccc>
    cfb8:	22200020 	eorcs	r0, r0, #32
    cfbc:	225e5b25 	subscs	r5, lr, #37888	; 0x9400
    cfc0:	3a20225d 	bcc	81593c <_end+0x806624>
    cfc4:	22200020 	eorcs	r0, r0, #32
    cfc8:	5b252000 	blpl	954fd0 <_end+0x945cb8>
    cfcc:	227d2c5e 	rsbscs	r2, sp, #24064	; 0x5e00
    cfd0:	2000225d 	andcs	r2, r0, sp, asr r2
    cfd4:	7473002c 	ldrbtvc	r0, [r3], #-44	; 0xffffffd4
    cfd8:	73757461 	cmnvc	r5, #1627389952	; 0x61000000
    cfdc:	007d2000 	rsbseq	r2, sp, r0
    cfe0:	6f727245 	svcvs	0x00727245
    cfe4:	74732072 	ldrbtvc	r2, [r3], #-114	; 0xffffff8e
    cfe8:	73757461 	cmnvc	r5, #1627389952	; 0x61000000
    cfec:	646f6320 	strbtvs	r6, [pc], #-800	; cff4 <_IO_stdin_used+0x960>
    cff0:	69252065 	stmdbvs	r5!, {r0, r2, r5, r6, sp}
    cff4:	63657220 	cmnvs	r5, #32, 4
    cff8:	65766965 	ldrbvs	r6, [r6, #-2405]!	; 0xfffff69b
    cffc:	72662064 	rsbvc	r2, r6, #100	; 0x64
    d000:	50206d6f 	eorpl	r6, r0, pc, ror #26
    d004:	6f687375 	svcvs	0x00687375
    d008:	20726576 	rsbscs	r6, r2, r6, ror r5
    d00c:	76726573 			; <UNDEFINED> instruction: 0x76726573
    d010:	000a7265 	andeq	r7, sl, r5, ror #4
    d014:	61766e49 	cmnvs	r6, r9, asr #28
    d018:	2064696c 	rsbcs	r6, r4, ip, ror #18
    d01c:	6d726f66 	ldclvs	15, cr6, [r2, #-408]!	; 0xfffffe68
    d020:	6f207461 	svcvs	0x00207461
    d024:	65722066 	ldrbvs	r2, [r2, #-102]!	; 0xffffff9a
    d028:	6e6f7073 	mcrvs	0, 3, r7, cr15, cr3, {3}
    d02c:	62206573 	eorvs	r6, r0, #482344960	; 0x1cc00000
    d030:	2079646f 	rsbscs	r6, r9, pc, ror #8
    d034:	6d6f7266 	sfmvs	f7, 2, [pc, #-408]!	; cea4 <_IO_stdin_used+0x810>
    d038:	73755020 	cmnvc	r5, #32
    d03c:	65766f68 	ldrbvs	r6, [r6, #-3944]!	; 0xfffff098
    d040:	65732072 	ldrbvs	r2, [r3, #-114]!	; 0xffffff8e
    d044:	72657672 	rsbvc	r7, r5, #119537664	; 0x7200000
    d048:	7453202e 	ldrbvc	r2, [r3], #-46	; 0xffffffd2
    d04c:	73757461 	cmnvc	r5, #1627389952	; 0x61000000
    d050:	646f6320 	strbtvs	r6, [pc], #-800	; d058 <_IO_stdin_used+0x9c4>
    d054:	6f632065 	svcvs	0x00632065
    d058:	20646c75 	rsbcs	r6, r4, r5, ror ip
    d05c:	20746f6e 	rsbscs	r6, r4, lr, ror #30
    d060:	6f206562 	svcvs	0x00206562
    d064:	69617462 	stmdbvs	r1!, {r1, r5, r6, sl, ip, sp, lr}^
    d068:	0a64656e 	beq	1926628 <_end+0x1917310>
    d06c:	6f6f5400 	svcvs	0x006f5400
    d070:	6e6f6c20 	cdpvs	12, 6, cr6, cr15, cr0, {1}
    d074:	65722067 	ldrbvs	r2, [r2, #-103]!	; 0xffffff99
    d078:	6e6f7073 	mcrvs	0, 3, r7, cr15, cr3, {3}
    d07c:	66206573 			; <UNDEFINED> instruction: 0x66206573
    d080:	206d6f72 	rsbcs	r6, sp, r2, ror pc
    d084:	68737550 	ldmdavs	r3!, {r4, r6, r8, sl, ip, sp, lr}^
    d088:	7265766f 	rsbvc	r7, r5, #116391936	; 0x6f00000
    d08c:	72657320 	rsbvc	r7, r5, #32, 6	; 0x80000000
    d090:	3a726576 	bcc	1ca6670 <_end+0x1c97358>
    d094:	63657220 	cmnvs	r5, #32, 4
    d098:	69747065 	ldmdbvs	r4!, {r0, r2, r5, r6, ip, sp, lr}^
    d09c:	61206e6f 			; <UNDEFINED> instruction: 0x61206e6f
    d0a0:	74726f62 	ldrbtvc	r6, [r2], #-3938	; 0xfffff09e
    d0a4:	000a6465 	andeq	r6, sl, r5, ror #8
    d0a8:	6f727245 	svcvs	0x00727245
    d0ac:	65722072 	ldrbvs	r2, [r2, #-114]!	; 0xffffff8e
    d0b0:	76696563 	strbtvc	r6, [r9], -r3, ror #10
    d0b4:	20676e69 	rsbcs	r6, r7, r9, ror #28
    d0b8:	70736572 	rsbsvc	r6, r3, r2, ror r5
    d0bc:	65736e6f 	ldrbvs	r6, [r3, #-3695]!	; 0xfffff191
    d0c0:	61656820 	cmnvs	r5, r0, lsr #16
    d0c4:	20726564 	rsbscs	r6, r2, r4, ror #10
    d0c8:	6d6f7266 	sfmvs	f7, 2, [pc, #-408]!	; cf38 <_IO_stdin_used+0x8a4>
    d0cc:	73755020 	cmnvc	r5, #32
    d0d0:	65766f68 	ldrbvs	r6, [r6, #-3944]!	; 0xfffff098
    d0d4:	65732072 	ldrbvs	r2, [r3, #-114]!	; 0xffffff8e
    d0d8:	72657672 	rsbvc	r7, r5, #119537664	; 0x7200000
    d0dc:	7274203a 	rsbsvc	r2, r4, #58	; 0x3a
    d0e0:	61636e75 	smcvs	14053	; 0x36e5
    d0e4:	20646574 	rsbcs	r6, r4, r4, ror r5
    d0e8:	70736572 	rsbsvc	r6, r3, r2, ror r5
    d0ec:	65736e6f 	ldrbvs	r6, [r3, #-3695]!	; 0xfffff191
    d0f0:	7265202e 	rsbvc	r2, r5, #46	; 0x2e
    d0f4:	3d6f6e72 	stclcc	14, cr6, [pc, #-456]!	; cf34 <_IO_stdin_used+0x8a0>
    d0f8:	000a6425 	andeq	r6, sl, r5, lsr #8
    d0fc:	50545448 	subspl	r5, r4, r8, asr #8
    d100:	72726520 	rsbsvc	r6, r2, #32, 10	; 0x8000000
    d104:	6320726f 			; <UNDEFINED> instruction: 0x6320726f
    d108:	2065646f 	rsbcs	r6, r5, pc, ror #8
    d10c:	72207525 	eorvc	r7, r0, #155189248	; 0x9400000
    d110:	69656365 	stmdbvs	r5!, {r0, r2, r5, r6, r8, r9, sp, lr}^
    d114:	20646576 	rsbcs	r6, r4, r6, ror r5
    d118:	6d6f7266 	sfmvs	f7, 2, [pc, #-408]!	; cf88 <_IO_stdin_used+0x8f4>
    d11c:	73755020 	cmnvc	r5, #32
    d120:	65766f68 	ldrbvs	r6, [r6, #-3944]!	; 0xfffff098
    d124:	65732072 	ldrbvs	r2, [r3, #-114]!	; 0xffffff8e
    d128:	72657672 	rsbvc	r7, r5, #119537664	; 0x7200000
    d12c:	7245000a 	subvc	r0, r5, #10
    d130:	20726f72 	rsbscs	r6, r2, r2, ror pc
    d134:	65636572 	strbvs	r6, [r3, #-1394]!	; 0xfffffa8e
    d138:	6e697669 	cdpvs	6, 6, cr7, cr9, cr9, {3}
    d13c:	65722067 	ldrbvs	r2, [r2, #-103]!	; 0xffffff99
    d140:	6e6f7073 	mcrvs	0, 3, r7, cr15, cr3, {3}
    d144:	66206573 			; <UNDEFINED> instruction: 0x66206573
    d148:	206d6f72 	rsbcs	r6, sp, r2, ror pc
    d14c:	68737550 	ldmdavs	r3!, {r4, r6, r8, sl, ip, sp, lr}^
    d150:	7265766f 	rsbvc	r7, r5, #116391936	; 0x6f00000
    d154:	72657320 	rsbvc	r7, r5, #32, 6	; 0x80000000
    d158:	3a726576 	bcc	1ca6738 <_end+0x1c97420>
    d15c:	63736620 	cmnvs	r3, #32, 12	; 0x2000000
    d160:	20666e61 	rsbcs	r6, r6, r1, ror #28
    d164:	75746572 	ldrbvc	r6, [r4, #-1394]!	; 0xfffffa8e
    d168:	64656e72 	strbtvs	r6, [r5], #-3698	; 0xfffff18e
    d16c:	2e692520 	cdpcs	5, 6, cr2, cr9, cr0, {1}
    d170:	72726520 	rsbsvc	r6, r2, #32, 10	; 0x8000000
    d174:	253d6f6e 	ldrcs	r6, [sp, #-3950]!	; 0xfffff092
    d178:	45000a64 	strmi	r0, [r0, #-2660]	; 0xfffff59c
    d17c:	726f7272 	rsbvc	r7, pc, #536870919	; 0x20000007
    d180:	65706f20 	ldrbvs	r6, [r0, #-3872]!	; 0xfffff0e0
    d184:	676e696e 	strbvs	r6, [lr, -lr, ror #18]!
    d188:	636f7320 	cmnvs	pc, #32, 6	; 0x80000000
    d18c:	2074656b 	rsbscs	r6, r4, fp, ror #10
    d190:	6e6e6f63 	cdpvs	15, 6, cr6, cr14, cr3, {3}
    d194:	65746365 	ldrbvs	r6, [r4, #-869]!	; 0xfffffc9b
    d198:	6f742064 	svcvs	0x00742064
    d19c:	73755020 	cmnvc	r5, #32
    d1a0:	65766f68 	ldrbvs	r6, [r6, #-3944]!	; 0xfffff098
    d1a4:	65732072 	ldrbvs	r2, [r3, #-114]!	; 0xffffff8e
    d1a8:	72657672 	rsbvc	r7, r5, #119537664	; 0x7200000
    d1ac:	20736120 	rsbscs	r6, r3, r0, lsr #2
    d1b0:	656c6966 	strbvs	r6, [ip, #-2406]!	; 0xfffff69a
    d1b4:	7265203a 	rsbvc	r2, r5, #58	; 0x3a
    d1b8:	3d6f6e72 	stclcc	14, cr6, [pc, #-456]!	; cff8 <_IO_stdin_used+0x964>
    d1bc:	203a6425 	eorscs	r6, sl, r5, lsr #8
    d1c0:	000a7325 	andeq	r7, sl, r5, lsr #6
    d1c4:	6f727245 	svcvs	0x00727245
    d1c8:	6f632072 	svcvs	0x00632072
    d1cc:	63656e6e 	cmnvs	r5, #1760	; 0x6e0
    d1d0:	676e6974 			; <UNDEFINED> instruction: 0x676e6974
    d1d4:	206f7420 	rsbcs	r7, pc, r0, lsr #8
    d1d8:	68737550 	ldmdavs	r3!, {r4, r6, r8, sl, ip, sp, lr}^
    d1dc:	7265766f 	rsbvc	r7, r5, #116391936	; 0x6f00000
    d1e0:	72657320 	rsbvc	r7, r5, #32, 6	; 0x80000000
    d1e4:	3a726576 	bcc	1ca67c4 <_end+0x1c974ac>
    d1e8:	72726520 	rsbsvc	r6, r2, #32, 10	; 0x8000000
    d1ec:	253d6f6e 	ldrcs	r6, [sp, #-3950]!	; 0xfffff092
    d1f0:	25203a64 	strcs	r3, [r0, #-2660]!	; 0xfffff59c
    d1f4:	45000a73 	strmi	r0, [r0, #-2675]	; 0xfffff58d
    d1f8:	726f7272 	rsbvc	r7, pc, #536870919	; 0x20000007
    d1fc:	65726320 	ldrbvs	r6, [r2, #-800]!	; 0xfffffce0
    d200:	6e697461 	cdpvs	4, 6, cr7, cr9, cr1, {3}
    d204:	6f732067 	svcvs	0x00732067
    d208:	74656b63 	strbtvc	r6, [r5], #-2915	; 0xfffff49d
    d20c:	726f6620 	rsbvc	r6, pc, #32, 12	; 0x2000000
    d210:	6e6f6320 	cdpvs	3, 6, cr6, cr15, cr0, {1}
    d214:	7463656e 	strbtvc	r6, [r3], #-1390	; 0xfffffa92
    d218:	20676e69 	rsbcs	r6, r7, r9, ror #28
    d21c:	50206f74 	eorpl	r6, r0, r4, ror pc
    d220:	6f687375 	svcvs	0x00687375
    d224:	20726576 	rsbscs	r6, r2, r6, ror r5
    d228:	76726573 			; <UNDEFINED> instruction: 0x76726573
    d22c:	203a7265 	eorscs	r7, sl, r5, ror #4
    d230:	6e727265 	cdpvs	2, 7, cr7, cr2, cr5, {3}
    d234:	64253d6f 	strtvs	r3, [r5], #-3439	; 0xfffff291
    d238:	0000000a 	andeq	r0, r0, sl
    d23c:	0000c6ec 	andeq	ip, r0, ip, ror #13
    d240:	0000c6ef 	andeq	ip, r0, pc, ror #13
    d244:	0000c710 	andeq	ip, r0, r0, lsl r7
    d248:	0000c712 	andeq	ip, r0, r2, lsl r7
    d24c:	0000636e 	andeq	r6, r0, lr, ror #6
    d250:	00006c2d 	andeq	r6, r0, sp, lsr #24
    d254:	0000702d 	andeq	r7, r0, sp, lsr #32
    d258:	30383038 	eorscc	r3, r8, r8, lsr r0
    d25c:	00000000 	andeq	r0, r0, r0
    d260:	0000762d 	andeq	r7, r0, sp, lsr #12

0000d264 <Capture_exec_args>:
    d264:	0000d24c 	andeq	sp, r0, ip, asr #4
    d268:	0000d250 	andeq	sp, r0, r0, asr r2
    d26c:	0000d254 	andeq	sp, r0, r4, asr r2
    d270:	0000d258 	andeq	sp, r0, r8, asr r2
    d274:	0000d260 	andeq	sp, r0, r0, ror #4
    d278:	0000d260 	andeq	sp, r0, r0, ror #4
    d27c:	00000000 	andeq	r0, r0, r0
    d280:	38303038 	ldmdacc	r0!, {r3, r4, r5, ip, sp}
    d284:	00000000 	andeq	r0, r0, r0

0000d288 <Web_server_exec_args>:
    d288:	0000d24c 	andeq	sp, r0, ip, asr #4
    d28c:	0000d250 	andeq	sp, r0, r0, asr r2
    d290:	0000d254 	andeq	sp, r0, r4, asr r2
    d294:	0000d280 	andeq	sp, r0, r0, lsl #5
    d298:	0000d260 	andeq	sp, r0, r0, ror #4
    d29c:	0000d260 	andeq	sp, r0, r0, ror #4
    d2a0:	00000000 	andeq	r0, r0, r0
    d2a4:	6e676953 			; <UNDEFINED> instruction: 0x6e676953
    d2a8:	25206c61 	strcs	r6, [r0, #-3169]!	; 0xfffff39f
    d2ac:	65722069 	ldrbvs	r2, [r2, #-105]!	; 0xffffff97
    d2b0:	76696563 	strbtvc	r6, [r9], -r3, ror #10
    d2b4:	203a6465 	eorscs	r6, sl, r5, ror #8
    d2b8:	646e6553 	strbtvs	r6, [lr], #-1363	; 0xfffffaad
    d2bc:	20676e69 	rsbcs	r6, r7, r9, ror #28
    d2c0:	4d524554 	cfldr64mi	mvdx4, [r2, #-336]	; 0xfffffeb0
    d2c4:	67697320 	strbvs	r7, [r9, -r0, lsr #6]!
    d2c8:	206c616e 	rsbcs	r6, ip, lr, ror #2
    d2cc:	63206f74 			; <UNDEFINED> instruction: 0x63206f74
    d2d0:	646c6968 	strbtvs	r6, [ip], #-2408	; 0xfffff698
    d2d4:	2e6e6572 	mcrcs	5, 3, r6, cr14, cr2, {3}
    d2d8:	0000000a 	andeq	r0, r0, sl
    d2dc:	656d6974 	strbvs	r6, [sp, #-2420]!	; 0xfffff68c
    d2e0:	78652072 	stmdavc	r5!, {r1, r4, r5, r6, sp}^
    d2e4:	65726970 	ldrbvs	r6, [r2, #-2416]!	; 0xfffff690
    d2e8:	64252064 	strtvs	r2, [r5], #-100	; 0xffffff9c
    d2ec:	6d697420 	cfstrdvs	mvd7, [r9, #-128]!	; 0xffffff80
    d2f0:	000a7365 	andeq	r7, sl, r5, ror #6
    d2f4:	6f727245 	svcvs	0x00727245
    d2f8:	65732072 	ldrbvs	r2, [r3, #-114]!	; 0xffffff8e
    d2fc:	6e697474 	mcrvs	4, 3, r7, cr9, cr4, {3}
    d300:	65742067 	ldrbvs	r2, [r4, #-103]!	; 0xffffff99
    d304:	6e696d72 	mcrvs	13, 3, r6, cr9, cr2, {3}
    d308:	6f697461 	svcvs	0x00697461
    d30c:	6973206e 	ldmdbvs	r3!, {r1, r2, r3, r5, r6, sp}^
    d310:	6c616e67 	stclvs	14, cr6, [r1], #-412	; 0xfffffe64
    d314:	6e616820 	cdpvs	8, 6, cr6, cr1, cr0, {1}
    d318:	72656c64 	rsbvc	r6, r5, #100, 24	; 0x6400
    d31c:	7265202e 	rsbvc	r2, r5, #46	; 0x2e
    d320:	3d6f6e72 	stclcc	14, cr6, [pc, #-456]!	; d160 <_IO_stdin_used+0xacc>
    d324:	000a6425 	andeq	r6, sl, r5, lsr #8
    d328:	616c4169 	cmnvs	ip, r9, ror #2
    d32c:	64206d72 	strtvs	r6, [r0], #-3442	; 0xfffff28e
    d330:	6f6d6561 	svcvs	0x006d6561
    d334:	7473206e 	ldrbtvc	r2, [r3], #-110	; 0xffffff92
    d338:	65747261 	ldrbvs	r7, [r4, #-609]!	; 0xfffffd9f
    d33c:	00002e64 	andeq	r2, r0, r4, ror #28
    d340:	6f727245 	svcvs	0x00727245
    d344:	72632072 	rsbvc	r2, r3, #114	; 0x72
    d348:	69746165 	ldmdbvs	r4!, {r0, r2, r5, r6, r8, sp, lr}^
    d34c:	6c20676e 	stcvs	7, cr6, [r0], #-440	; 0xfffffe48
    d350:	6620676f 	strtvs	r6, [r0], -pc, ror #14
    d354:	73656c69 	cmnvc	r5, #26880	; 0x6900
    d358:	0000002e 	andeq	r0, r0, lr, lsr #32
    d35c:	7273752f 	rsbsvc	r7, r3, #197132288	; 0xbc00000
    d360:	636f6c2f 	cmnvs	pc, #12032	; 0x2f00
    d364:	6c2f6c61 	stcvs	12, cr6, [pc], #-388	; d1e8 <_IO_stdin_used+0xb54>
    d368:	00006269 	andeq	r6, r0, r9, ror #4
    d36c:	4c5f444c 	cfldrdmi	mvd4, [pc], {76}	; 0x4c
    d370:	41524249 	cmpmi	r2, r9, asr #4
    d374:	505f5952 	subspl	r5, pc, r2, asr r9	; <UNPREDICTABLE>
    d378:	00485441 	subeq	r5, r8, r1, asr #8
    d37c:	6f727245 	svcvs	0x00727245
    d380:	65732072 	ldrbvs	r2, [r3, #-114]!	; 0xffffff8e
    d384:	6e697474 	mcrvs	4, 3, r7, cr9, cr4, {3}
    d388:	6e652067 	cdpvs	0, 6, cr2, cr5, cr7, {3}
    d38c:	6f726f76 	svcvs	0x00726f76
    d390:	6e656d6e 	cdpvs	13, 6, cr6, cr5, cr14, {3}
    d394:	61762074 	cmnvs	r6, r4, ror r0
    d398:	62616972 	rsbvs	r6, r1, #1867776	; 0x1c8000
    d39c:	6620656c 	strtvs	r6, [r0], -ip, ror #10
    d3a0:	6320726f 			; <UNDEFINED> instruction: 0x6320726f
    d3a4:	646c6968 	strbtvs	r6, [ip], #-2408	; 0xfffff698
    d3a8:	6f727020 	svcvs	0x00727020
    d3ac:	73736563 	cmnvc	r3, #415236096	; 0x18c00000
    d3b0:	7245202e 	subvc	r2, r5, #46	; 0x2e
    d3b4:	3d6f6e72 	stclcc	14, cr6, [pc, #-456]!	; d1f4 <_IO_stdin_used+0xb60>
    d3b8:	000a6925 	andeq	r6, sl, r5, lsr #18
    d3bc:	76726553 			; <UNDEFINED> instruction: 0x76726553
    d3c0:	203a7265 	eorscs	r7, sl, r5, ror #4
    d3c4:	70747468 	rsbsvc	r7, r4, r8, ror #8
    d3c8:	252f2f3a 	strcs	r2, [pc, #-3898]!	; c496 <init_polling+0x3a>
    d3cc:	30383a73 	eorscc	r3, r8, r3, ror sl
    d3d0:	00003830 	andeq	r3, r0, r0, lsr r8
    d3d4:	6c6c6f50 	stclvs	15, cr6, [ip], #-320	; 0xfffffec0
    d3d8:	20676e69 	rsbcs	r6, r7, r9, ror #28
    d3dc:	65726874 	ldrbvs	r6, [r2, #-2164]!	; 0xfffff78c
    d3e0:	68206461 	stmdavs	r0!, {r0, r5, r6, sl, sp, lr}
    d3e4:	6e207361 	cdpvs	3, 2, cr7, cr0, cr1, {3}
    d3e8:	6220746f 	eorvs	r7, r0, #1862270976	; 0x6f000000
    d3ec:	206e6565 	rsbcs	r6, lr, r5, ror #10
    d3f0:	61657263 	cmnvs	r5, r3, ror #4
    d3f4:	2e646574 	mcrcs	5, 3, r6, cr4, cr4, {3}
    d3f8:	0000000a 	andeq	r0, r0, sl
    d3fc:	74696157 	strbtvc	r6, [r9], #-343	; 0xfffffea9
    d400:	20676e69 	rsbcs	r6, r7, r9, ror #28
    d404:	20726f66 	rsbscs	r6, r2, r6, ror #30
    d408:	6c696863 	stclvs	8, cr6, [r9], #-396	; 0xfffffe74
    d40c:	72702064 	rsbsvc	r2, r0, #100	; 0x64
    d410:	7365636f 	cmnvc	r5, #-1140850687	; 0xbc000001
    d414:	20736573 	rsbscs	r6, r3, r3, ror r5
    d418:	66206f74 	qsub16vs	r6, r0, r4
    d41c:	73696e69 	cmnvc	r9, #1680	; 0x690
    d420:	00000a68 	andeq	r0, r0, r8, ror #20
    d424:	202e7325 	eorcs	r7, lr, r5, lsr #6
    d428:	00007325 	andeq	r7, r0, r5, lsr #6
    d42c:	6c627550 	cfstr64vs	mvdx7, [r2], #-320	; 0xfffffec0
    d430:	49206369 	stmdbmi	r0!, {r0, r3, r5, r6, r8, r9, sp, lr}
    d434:	64612050 	strbtvs	r2, [r1], #-80	; 0xffffffb0
    d438:	73657264 	cmnvc	r5, #100, 4	; 0x40000006
    d43c:	25203a73 	strcs	r3, [r0, #-2675]!	; 0xfffff58d
    d440:	00000a73 	andeq	r0, r0, r3, ror sl
    d444:	0000322d 	andeq	r3, r0, sp, lsr #4
    d448:	72616c41 	rsbvc	r6, r1, #16640	; 0x4100
    d44c:	6970346d 	ldmdbvs	r0!, {r0, r2, r3, r5, r6, sl, ip, sp}^
    d450:	6e757220 	cdpvs	2, 7, cr7, cr5, cr0, {1}
    d454:	676e696e 	strbvs	r6, [lr, -lr, ror #18]!
    d458:	7550202e 	ldrbvc	r2, [r0, #-46]	; 0xffffffd2
    d45c:	63696c62 	cmnvs	r9, #25088	; 0x6200
    d460:	20504920 	subscs	r4, r0, r0, lsr #18
    d464:	6174626f 	cmnvs	r4, pc, ror #4
    d468:	64656e69 	strbtvs	r6, [r5], #-3689	; 0xfffff197
    d46c:	00000000 	andeq	r0, r0, r0
    d470:	4f495047 	svcmi	0x00495047
    d474:	72657320 	rsbvc	r7, r5, #32, 6	; 0x80000000
    d478:	20726576 	rsbscs	r6, r2, r6, ror r5
    d47c:	74696e69 	strbtvc	r6, [r9], #-3689	; 0xfffff197
    d480:	65746169 	ldrbvs	r6, [r4, #-361]!	; 0xfffffe97
    d484:	00000a64 	andeq	r0, r0, r4, ror #20
    d488:	4f495047 	svcmi	0x00495047
    d48c:	52495020 	subpl	r5, r9, #32
    d490:	69252820 	stmdbvs	r5!, {r5, fp, sp}
    d494:	61762029 	cmnvs	r6, r9, lsr #32
    d498:	3a65756c 	bcc	196aa50 <_end+0x195b738>
    d49c:	0a692520 	beq	1a56924 <_end+0x1a4760c>
    d4a0:	00000000 	andeq	r0, r0, r0
    d4a4:	00000032 	andeq	r0, r0, r2, lsr r0
    d4a8:	20524950 	subscs	r4, r2, r0, asr r9
    d4ac:	736e6573 	cmnvc	lr, #482344960	; 0x1cc00000
    d4b0:	6120726f 			; <UNDEFINED> instruction: 0x6120726f
    d4b4:	76697463 	strbtvc	r7, [r9], -r3, ror #8
    d4b8:	64657461 	strbtvs	r7, [r5], #-1121	; 0xfffffb9f
    d4bc:	00000000 	andeq	r0, r0, r0
    d4c0:	6f727245 	svcvs	0x00727245
    d4c4:	69252072 	stmdbvs	r5!, {r1, r4, r5, r6, sp}
    d4c8:	69687720 	stmdbvs	r8!, {r5, r8, r9, sl, ip, sp, lr}^
    d4cc:	7220656c 	eorvc	r6, r0, #108, 10	; 0x1b000000
    d4d0:	69646165 	stmdbvs	r4!, {r0, r2, r5, r6, r8, sp, lr}^
    d4d4:	4720676e 	strmi	r6, [r0, -lr, ror #14]!
    d4d8:	204f4950 	subcs	r4, pc, r0, asr r9	; <UNPREDICTABLE>
    d4dc:	203a6925 	eorscs	r6, sl, r5, lsr #18
    d4e0:	000a7325 	andeq	r7, sl, r5, lsr #6
    d4e4:	20656e6f 	rsbcs	r6, r5, pc, ror #28
    d4e8:	6e756f72 	mrcvs	15, 3, r6, cr5, cr2, {3}
    d4ec:	666f2064 	strbtvs	r2, [pc], -r4, rrx
    d4f0:	69706720 	ldmdbvs	r0!, {r5, r8, r9, sl, sp, lr}^
    d4f4:	6f70206f 	svcvs	0x0070206f
    d4f8:	6e696c6c 	cdpvs	12, 6, cr6, cr9, cr12, {3}
    d4fc:	202c2067 	eorcs	r2, ip, r7, rrx
    d500:	656d6974 	strbvs	r6, [sp, #-2420]!	; 0xfffff68c
    d504:	65737520 	ldrbvs	r7, [r3, #-1312]!	; 0xfffffae0
    d508:	203a7363 	eorscs	r7, sl, r3, ror #6
    d50c:	0a756c25 	beq	1d685a8 <_end+0x1d59290>
    d510:	00000000 	andeq	r0, r0, r0
    d514:	4f495047 	svcmi	0x00495047
    d518:	72657320 	rsbvc	r7, r5, #32, 6	; 0x80000000
    d51c:	20726576 	rsbscs	r6, r2, r6, ror r5
    d520:	6d726574 	cfldr64vs	mvdx6, [r2, #-464]!	; 0xfffffe30
    d524:	74616e69 	strbtvc	r6, [r1], #-3689	; 0xfffff197
    d528:	77206465 	strvc	r6, [r0, -r5, ror #8]!
    d52c:	20687469 	rsbcs	r7, r8, r9, ror #8
    d530:	6f727265 	svcvs	0x00727265
    d534:	6f632072 	svcvs	0x00632072
    d538:	203a6564 	eorscs	r6, sl, r4, ror #10
    d53c:	000a6925 	andeq	r6, sl, r5, lsr #18
    d540:	68737570 	ldmdavs	r3!, {r4, r5, r6, r8, sl, ip, sp, lr}^
    d544:	7265766f 	rsbvc	r7, r5, #116391936	; 0x6f00000
    d548:	6e6f635f 	mcrvs	3, 3, r6, cr15, cr15, {2}
    d54c:	78742e66 	ldmdavc	r4!, {r1, r2, r5, r6, r9, sl, fp, sp}^
    d550:	00000074 	andeq	r0, r0, r4, ror r0
    d554:	6c6c6f50 	stclvs	15, cr6, [ip], #-320	; 0xfffffec0
    d558:	20676e69 	rsbcs	r6, r7, r9, ror #28
    d55c:	65726874 	ldrbvs	r6, [r2, #-2164]!	; 0xfffff78c
    d560:	69206461 	stmdbvs	r0!, {r0, r5, r6, sl, sp, lr}
    d564:	6974696e 	ldmdbvs	r4!, {r1, r2, r3, r5, r6, r8, fp, sp, lr}^
    d568:	64657461 	strbtvs	r7, [r5], #-1121	; 0xfffffb9f
    d56c:	0000000a 	andeq	r0, r0, sl
    d570:	6f727245 	svcvs	0x00727245
    d574:	69252072 	stmdbvs	r5!, {r1, r4, r5, r6, sp}
    d578:	65726320 	ldrbvs	r6, [r2, #-800]!	; 0xfffffce0
    d57c:	6e697461 	cdpvs	4, 6, cr7, cr9, cr1, {3}
    d580:	6f702067 	svcvs	0x00702067
    d584:	6e696c6c 	cdpvs	12, 6, cr6, cr9, cr12, {3}
    d588:	68742067 	ldmdavs	r4!, {r0, r1, r2, r5, r6, sp}^
    d58c:	64616572 	strbtvs	r6, [r1], #-1394	; 0xfffffa8e
    d590:	7325203a 			; <UNDEFINED> instruction: 0x7325203a
    d594:	0000000a 	andeq	r0, r0, sl
    d598:	6c6c6f50 	stclvs	15, cr6, [ip], #-320	; 0xfffffec0
    d59c:	20676e69 	rsbcs	r6, r7, r9, ror #28
    d5a0:	65726874 	ldrbvs	r6, [r2, #-2164]!	; 0xfffff78c
    d5a4:	74206461 	strtvc	r6, [r0], #-1121	; 0xfffffb9f
    d5a8:	696d7265 	stmdbvs	sp!, {r0, r2, r5, r6, r9, ip, sp, lr}^
    d5ac:	6574616e 	ldrbvs	r6, [r4, #-366]!	; 0xfffffe92
    d5b0:	6f632064 	svcvs	0x00632064
    d5b4:	63657272 	cmnvs	r5, #536870919	; 0x20000007
    d5b8:	0a796c74 	beq	1e68790 <_end+0x1e59478>
    d5bc:	00000000 	andeq	r0, r0, r0
    d5c0:	6f727245 	svcvs	0x00727245
    d5c4:	61772072 	cmnvs	r7, r2, ror r0
    d5c8:	6e697469 	cdpvs	4, 6, cr7, cr9, cr9, {3}
    d5cc:	6f662067 	svcvs	0x00662067
    d5d0:	68742072 	ldmdavs	r4!, {r1, r4, r5, r6, sp}^
    d5d4:	6f702065 	svcvs	0x00702065
    d5d8:	6e696c6c 	cdpvs	12, 6, cr6, cr9, cr12, {3}
    d5dc:	68742067 	ldmdavs	r4!, {r0, r1, r2, r5, r6, sp}^
    d5e0:	64616572 	strbtvs	r6, [r1], #-1394	; 0xfffffa8e
    d5e4:	206f7420 	rsbcs	r7, pc, r0, lsr #8
    d5e8:	696e6966 	stmdbvs	lr!, {r1, r2, r5, r6, r8, fp, sp, lr}^
    d5ec:	000a6873 	andeq	r6, sl, r3, ror r8

Disassembly of section .ARM.exidx:

0000d5f0 <.ARM.exidx>:
    d5f0:	7fffbca0 	svcvc	0x00ffbca0
    d5f4:	00000001 	andeq	r0, r0, r1

Disassembly of section .eh_frame:

0000d5f8 <__FRAME_END__>:
    d5f8:	00000000 	andeq	r0, r0, r0

Disassembly of section .eh_frame_hdr:

0000d5fc <.eh_frame_hdr>:
    d5fc:	ffff1b01 			; <UNDEFINED> instruction: 0xffff1b01
    d600:	fffffff8 			; <UNDEFINED> instruction: 0xfffffff8

Disassembly of section .fini_array:

0000eef8 <__do_global_dtors_aux_fini_array_entry>:
    eef8:	00009354 	andeq	r9, r0, r4, asr r3

Disassembly of section .init_array:

0000eefc <__frame_dummy_init_array_entry>:
    eefc:	0000937c 	andeq	r9, r0, ip, ror r3

Disassembly of section .dynamic:

0000ef00 <_DYNAMIC>:
    ef00:	00000003 	andeq	r0, r0, r3
    ef04:	0000f018 	andeq	pc, r0, r8, lsl r0	; <UNPREDICTABLE>
    ef08:	00000002 	andeq	r0, r0, r2
    ef0c:	00000230 	andeq	r0, r0, r0, lsr r2
    ef10:	00000017 	andeq	r0, r0, r7, lsl r0
    ef14:	00008cf4 	strdeq	r8, [r0], -r4
    ef18:	00000014 	andeq	r0, r0, r4, lsl r0
    ef1c:	00000011 	andeq	r0, r0, r1, lsl r0
    ef20:	00000011 	andeq	r0, r0, r1, lsl r0
    ef24:	00008cec 	andeq	r8, r0, ip, ror #25
    ef28:	00000012 	andeq	r0, r0, r2, lsl r0
    ef2c:	00000008 	andeq	r0, r0, r8
    ef30:	00000013 	andeq	r0, r0, r3, lsl r0
    ef34:	00000008 	andeq	r0, r0, r8
    ef38:	00000015 	andeq	r0, r0, r5, lsl r0
    ef3c:	00000000 	andeq	r0, r0, r0
    ef40:	00000006 	andeq	r0, r0, r6
    ef44:	000081d4 	ldrdeq	r8, [r0], -r4
    ef48:	0000000b 	andeq	r0, r0, fp
    ef4c:	00000010 	andeq	r0, r0, r0, lsl r0
    ef50:	00000005 	andeq	r0, r0, r5
    ef54:	00008684 	andeq	r8, r0, r4, lsl #13
    ef58:	0000000a 	andeq	r0, r0, sl
    ef5c:	000002f6 	strdeq	r0, [r0], -r6
    ef60:	6ffffef5 	svcvs	0x00fffef5
    ef64:	0000897c 	andeq	r8, r0, ip, ror r9
    ef68:	00000004 	andeq	r0, r0, r4
    ef6c:	00008994 	muleq	r0, r4, r9
    ef70:	00000001 	andeq	r0, r0, r1
    ef74:	0000020b 	andeq	r0, r0, fp, lsl #4
    ef78:	00000001 	andeq	r0, r0, r1
    ef7c:	0000006e 	andeq	r0, r0, lr, rrx
    ef80:	00000001 	andeq	r0, r0, r1
    ef84:	0000001b 	andeq	r0, r0, fp, lsl r0
    ef88:	0000000c 	andeq	r0, r0, ip
    ef8c:	00008f24 	andeq	r8, r0, r4, lsr #30
    ef90:	0000000d 	andeq	r0, r0, sp
    ef94:	0000c68c 	andeq	ip, r0, ip, lsl #13
    ef98:	0000001a 	andeq	r0, r0, sl, lsl r0
    ef9c:	0000eef8 	strdeq	lr, [r0], -r8
    efa0:	0000001c 	andeq	r0, r0, ip, lsl r0
    efa4:	00000004 	andeq	r0, r0, r4
    efa8:	00000019 	andeq	r0, r0, r9, lsl r0
    efac:	0000eefc 	strdeq	lr, [r0], -ip
    efb0:	0000001b 	andeq	r0, r0, fp, lsl r0
    efb4:	00000004 	andeq	r0, r0, r4
    efb8:	6ffffff0 	svcvs	0x00fffff0
    efbc:	00008bd4 	ldrdeq	r8, [r0], -r4
    efc0:	6ffffffe 	svcvs	0x00fffffe
    efc4:	00008c6c 	andeq	r8, r0, ip, ror #24
    efc8:	6fffffff 	svcvs	0x00ffffff
    efcc:	00000003 	andeq	r0, r0, r3
	...

Disassembly of section .data:

0000f000 <__data_start>:
    f000:	00000000 	andeq	r0, r0, r0

0000f004 <__dso_handle>:
    f004:	00000000 	andeq	r0, r0, r0

0000f008 <Console_messages>:
    f008:	00000001 	andeq	r0, r0, r1

0000f00c <Child_process_id>:
    f00c:	ffffffff 			; <UNDEFINED> instruction: 0xffffffff
    f010:	ffffffff 			; <UNDEFINED> instruction: 0xffffffff

Disassembly of section .got:

0000f014 <_GLOBAL_OFFSET_TABLE_-0x4>:
    f014:	00000000 	andeq	r0, r0, r0

0000f018 <_GLOBAL_OFFSET_TABLE_>:
	...
    f024:	00008f30 	andeq	r8, r0, r0, lsr pc
    f028:	00008f30 	andeq	r8, r0, r0, lsr pc
    f02c:	00008f30 	andeq	r8, r0, r0, lsr pc
    f030:	00008f30 	andeq	r8, r0, r0, lsr pc
    f034:	00008f30 	andeq	r8, r0, r0, lsr pc
    f038:	00008f30 	andeq	r8, r0, r0, lsr pc
    f03c:	00008f30 	andeq	r8, r0, r0, lsr pc
    f040:	00008f30 	andeq	r8, r0, r0, lsr pc
    f044:	00008f30 	andeq	r8, r0, r0, lsr pc
    f048:	00008f30 	andeq	r8, r0, r0, lsr pc
    f04c:	00008f30 	andeq	r8, r0, r0, lsr pc
    f050:	00008f30 	andeq	r8, r0, r0, lsr pc
    f054:	00008f30 	andeq	r8, r0, r0, lsr pc
    f058:	00008f30 	andeq	r8, r0, r0, lsr pc
    f05c:	00008f30 	andeq	r8, r0, r0, lsr pc
    f060:	00008f30 	andeq	r8, r0, r0, lsr pc
    f064:	00008f30 	andeq	r8, r0, r0, lsr pc
    f068:	00008f30 	andeq	r8, r0, r0, lsr pc
    f06c:	00008f30 	andeq	r8, r0, r0, lsr pc
    f070:	00008f30 	andeq	r8, r0, r0, lsr pc
    f074:	00008f30 	andeq	r8, r0, r0, lsr pc
    f078:	00008f30 	andeq	r8, r0, r0, lsr pc
    f07c:	00008f30 	andeq	r8, r0, r0, lsr pc
    f080:	00008f30 	andeq	r8, r0, r0, lsr pc
    f084:	00008f30 	andeq	r8, r0, r0, lsr pc
    f088:	00008f30 	andeq	r8, r0, r0, lsr pc
    f08c:	00008f30 	andeq	r8, r0, r0, lsr pc
    f090:	00008f30 	andeq	r8, r0, r0, lsr pc
    f094:	00008f30 	andeq	r8, r0, r0, lsr pc
    f098:	00008f30 	andeq	r8, r0, r0, lsr pc
    f09c:	00008f30 	andeq	r8, r0, r0, lsr pc
    f0a0:	00008f30 	andeq	r8, r0, r0, lsr pc
    f0a4:	00008f30 	andeq	r8, r0, r0, lsr pc
    f0a8:	00008f30 	andeq	r8, r0, r0, lsr pc
    f0ac:	00008f30 	andeq	r8, r0, r0, lsr pc
    f0b0:	00008f30 	andeq	r8, r0, r0, lsr pc
    f0b4:	00008f30 	andeq	r8, r0, r0, lsr pc
    f0b8:	00008f30 	andeq	r8, r0, r0, lsr pc
    f0bc:	00008f30 	andeq	r8, r0, r0, lsr pc
    f0c0:	00008f30 	andeq	r8, r0, r0, lsr pc
    f0c4:	00008f30 	andeq	r8, r0, r0, lsr pc
    f0c8:	00008f30 	andeq	r8, r0, r0, lsr pc
    f0cc:	00008f30 	andeq	r8, r0, r0, lsr pc
    f0d0:	00008f30 	andeq	r8, r0, r0, lsr pc
    f0d4:	00008f30 	andeq	r8, r0, r0, lsr pc
    f0d8:	00008f30 	andeq	r8, r0, r0, lsr pc
    f0dc:	00008f30 	andeq	r8, r0, r0, lsr pc
    f0e0:	00008f30 	andeq	r8, r0, r0, lsr pc
    f0e4:	00008f30 	andeq	r8, r0, r0, lsr pc
    f0e8:	00008f30 	andeq	r8, r0, r0, lsr pc
    f0ec:	00008f30 	andeq	r8, r0, r0, lsr pc
    f0f0:	00008f30 	andeq	r8, r0, r0, lsr pc
    f0f4:	00008f30 	andeq	r8, r0, r0, lsr pc
    f0f8:	00008f30 	andeq	r8, r0, r0, lsr pc
    f0fc:	00008f30 	andeq	r8, r0, r0, lsr pc
    f100:	00008f30 	andeq	r8, r0, r0, lsr pc
    f104:	00008f30 	andeq	r8, r0, r0, lsr pc
    f108:	00008f30 	andeq	r8, r0, r0, lsr pc
    f10c:	00008f30 	andeq	r8, r0, r0, lsr pc
    f110:	00008f30 	andeq	r8, r0, r0, lsr pc
    f114:	00008f30 	andeq	r8, r0, r0, lsr pc
    f118:	00008f30 	andeq	r8, r0, r0, lsr pc
    f11c:	00008f30 	andeq	r8, r0, r0, lsr pc
    f120:	00008f30 	andeq	r8, r0, r0, lsr pc
    f124:	00008f30 	andeq	r8, r0, r0, lsr pc
    f128:	00008f30 	andeq	r8, r0, r0, lsr pc
    f12c:	00008f30 	andeq	r8, r0, r0, lsr pc
    f130:	00008f30 	andeq	r8, r0, r0, lsr pc
    f134:	00008f30 	andeq	r8, r0, r0, lsr pc
    f138:	00008f30 	andeq	r8, r0, r0, lsr pc

Disassembly of section .bss:

0000f13c <completed.10783>:
    f13c:	00000000 	andeq	r0, r0, r0

0000f140 <Log_file_handle>:
    f140:	00000000 	andeq	r0, r0, r0

0000f144 <Event_file_handle>:
    f144:	00000000 	andeq	r0, r0, r0

0000f148 <Token_id>:
	...

0000f199 <User_id>:
	...

0000f1ea <Server_path>:
	...

0000f22c <Server_port>:
    f22c:	00000000 	andeq	r0, r0, r0

0000f230 <Server_name>:
	...

0000f274 <Server_ip>:
    f274:	00000000 	andeq	r0, r0, r0

0000f278 <Exit_daemon_loop>:
    f278:	00000000 	andeq	r0, r0, r0

0000f27c <count.7752>:
    f27c:	00000000 	andeq	r0, r0, r0

0000f280 <Msg_info_str>:
	...

0000f314 <Polling_thread_id>:
    f314:	00000000 	andeq	r0, r0, r0

Disassembly of section .comment:

00000000 <.comment>:
   0:	43434700 	movtmi	r4, #14080	; 0x3700
   4:	5228203a 	eorpl	r2, r8, #58	; 0x3a
   8:	62707361 	rsbsvs	r7, r0, #-2080374783	; 0x84000001
   c:	206e6169 	rsbcs	r6, lr, r9, ror #2
  10:	2e332e38 	mrccs	14, 1, r2, cr3, cr8, {1}
  14:	2b362d30 	blcs	d8b4dc <_end+0xd7c1c4>
  18:	31697072 	smccc	38658	; 0x9702
  1c:	2e382029 	cdpcs	0, 3, cr2, cr8, cr9, {1}
  20:	00302e33 	eorseq	r2, r0, r3, lsr lr
  24:	6e616c63 	cdpvs	12, 6, cr6, cr1, cr3, {3}
  28:	65762067 	ldrbvs	r2, [r6, #-103]!	; 0xffffff99
  2c:	6f697372 	svcvs	0x00697372
  30:	2e37206e 	cdpcs	0, 3, cr2, cr7, cr14, {3}
  34:	2d312e30 	ldccs	14, cr2, [r1, #-192]!	; 0xffffff40
  38:	70722b38 	rsbsvc	r2, r2, r8, lsr fp
  3c:	642b3369 	strtvs	r3, [fp], #-873	; 0xfffffc97
  40:	30316265 	eorscc	r6, r1, r5, ror #4
  44:	28203275 	stmdacs	r0!, {r0, r2, r4, r5, r6, r9, ip, sp}
  48:	73676174 	cmnvc	r7, #116, 2
  4c:	4c45522f 	sfmmi	f5, 2, [r5], {47}	; 0x2f
  50:	45534145 	ldrbmi	r4, [r3, #-325]	; 0xfffffebb
  54:	3130375f 	teqcc	r0, pc, asr r7
  58:	6e69662f 	cdpvs	6, 6, cr6, cr9, cr15, {1}
  5c:	00296c61 	eoreq	r6, r9, r1, ror #24

Disassembly of section .note.gnu.gold-version:

00000000 <.note.gnu.gold-version>:
   0:	00000004 	andeq	r0, r0, r4
   4:	00000009 	andeq	r0, r0, r9
   8:	00000004 	andeq	r0, r0, r4
   c:	00554e47 	subseq	r4, r5, r7, asr #28
  10:	646c6f67 	strbtvs	r6, [ip], #-3943	; 0xfffff099
  14:	312e3120 			; <UNDEFINED> instruction: 0x312e3120
  18:	00000036 	andeq	r0, r0, r6, lsr r0

Disassembly of section .ARM.attributes:

00000000 <.ARM.attributes>:
   0:	00003441 	andeq	r3, r0, r1, asr #8
   4:	61656100 	cmnvs	r5, r0, lsl #2
   8:	01006962 	tsteq	r0, r2, ror #18
   c:	0000002a 	andeq	r0, r0, sl, lsr #32
  10:	06003605 	streq	r3, [r0], -r5, lsl #12
  14:	09010806 	stmdbeq	r1, {r1, r2, fp}
  18:	11020a01 	tstne	r2, r1, lsl #20
  1c:	13041201 	movwne	r1, #16897	; 0x4201
  20:	15011401 	strne	r1, [r1, #-1025]	; 0xfffffbff
  24:	17011601 	strne	r1, [r1, -r1, lsl #12]
  28:	1a011803 	bne	4603c <_end+0x36d24>
  2c:	1c031b02 			; <UNDEFINED> instruction: 0x1c031b02
  30:	26012201 	strcs	r2, [r1], -r1, lsl #4
  34:	Address 0x00000034 is out of bounds.

