
ff:     file format elf32-littlearm


Disassembly of section .interp:

00010154 <.interp>:
   10154:	62696c2f 	rsbvs	r6, r9, #12032	; 0x2f00
   10158:	2d646c2f 	stclcs	12, cr6, [r4, #-188]!	; 0xffffff44
   1015c:	756e696c 	strbvc	r6, [lr, #-2412]!	; 0xfffff694
   10160:	72612d78 	rsbvc	r2, r1, #120, 26	; 0x1e00
   10164:	2e66686d 	cdpcs	8, 6, cr6, cr6, cr13, {3}
   10168:	332e6f73 			; <UNDEFINED> instruction: 0x332e6f73
	...

Disassembly of section .note.ABI-tag:

00010170 <.note.ABI-tag>:
   10170:	00000004 	andeq	r0, r0, r4
   10174:	00000010 	andeq	r0, r0, r0, lsl r0
   10178:	00000001 	andeq	r0, r0, r1
   1017c:	00554e47 	subseq	r4, r5, r7, asr #28
   10180:	00000000 	andeq	r0, r0, r0
   10184:	00000003 	andeq	r0, r0, r3
   10188:	00000002 	andeq	r0, r0, r2
   1018c:	00000000 	andeq	r0, r0, r0

Disassembly of section .note.gnu.build-id:

00010190 <.note.gnu.build-id>:
   10190:	00000004 	andeq	r0, r0, r4
   10194:	00000014 	andeq	r0, r0, r4, lsl r0
   10198:	00000003 	andeq	r0, r0, r3
   1019c:	00554e47 	subseq	r4, r5, r7, asr #28
   101a0:	92023100 	andls	r3, r2, #0, 2
   101a4:	a72bb983 	strge	fp, [fp, -r3, lsl #19]!
   101a8:	f10da2c1 			; <UNDEFINED> instruction: 0xf10da2c1
   101ac:	ce4312a5 	cdpgt	2, 4, cr1, cr3, cr5, {5}
   101b0:	21b42056 			; <UNDEFINED> instruction: 0x21b42056

Disassembly of section .hash:

000101b4 <.hash>:
   101b4:	00000025 	andeq	r0, r0, r5, lsr #32
   101b8:	00000030 	andeq	r0, r0, r0, lsr r0
   101bc:	00000025 	andeq	r0, r0, r5, lsr #32
   101c0:	00000008 	andeq	r0, r0, r8
   101c4:	0000001f 	andeq	r0, r0, pc, lsl r0
	...
   101dc:	00000002 	andeq	r0, r0, r2
   101e0:	00000012 	andeq	r0, r0, r2, lsl r0
   101e4:	0000001c 	andeq	r0, r0, ip, lsl r0
   101e8:	0000002c 	andeq	r0, r0, ip, lsr #32
   101ec:	00000000 	andeq	r0, r0, r0
   101f0:	0000000a 	andeq	r0, r0, sl
   101f4:	00000011 	andeq	r0, r0, r1, lsl r0
   101f8:	0000000b 	andeq	r0, r0, fp
   101fc:	00000017 	andeq	r0, r0, r7, lsl r0
   10200:	0000000d 	andeq	r0, r0, sp
   10204:	0000001b 	andeq	r0, r0, fp, lsl r0
   10208:	00000027 	andeq	r0, r0, r7, lsr #32
   1020c:	00000022 	andeq	r0, r0, r2, lsr #32
   10210:	0000002a 	andeq	r0, r0, sl, lsr #32
   10214:	00000028 	andeq	r0, r0, r8, lsr #32
   10218:	0000000f 	andeq	r0, r0, pc
	...
   10228:	00000013 	andeq	r0, r0, r3, lsl r0
   1022c:	00000000 	andeq	r0, r0, r0
   10230:	0000002e 	andeq	r0, r0, lr, lsr #32
   10234:	0000002d 	andeq	r0, r0, sp, lsr #32
   10238:	0000000c 	andeq	r0, r0, ip
   1023c:	0000001e 	andeq	r0, r0, lr, lsl r0
   10240:	00000009 	andeq	r0, r0, r9
   10244:	0000001d 	andeq	r0, r0, sp, lsl r0
   10248:	00000026 	andeq	r0, r0, r6, lsr #32
   1024c:	00000024 	andeq	r0, r0, r4, lsr #32
	...
   1025c:	00000019 	andeq	r0, r0, r9, lsl r0
   10260:	0000002f 	andeq	r0, r0, pc, lsr #32
	...
   10274:	00000016 	andeq	r0, r0, r6, lsl r0
   10278:	00000010 	andeq	r0, r0, r0, lsl r0
	...
   10284:	00000001 	andeq	r0, r0, r1
   10288:	00000000 	andeq	r0, r0, r0
   1028c:	00000004 	andeq	r0, r0, r4
   10290:	00000000 	andeq	r0, r0, r0
   10294:	0000002b 	andeq	r0, r0, fp, lsr #32
   10298:	00000000 	andeq	r0, r0, r0
   1029c:	00000003 	andeq	r0, r0, r3
   102a0:	00000000 	andeq	r0, r0, r0
   102a4:	00000006 	andeq	r0, r0, r6
   102a8:	00000014 	andeq	r0, r0, r4, lsl r0
   102ac:	00000000 	andeq	r0, r0, r0
   102b0:	0000001a 	andeq	r0, r0, sl, lsl r0
   102b4:	00000020 	andeq	r0, r0, r0, lsr #32
   102b8:	00000000 	andeq	r0, r0, r0
   102bc:	00000007 	andeq	r0, r0, r7
   102c0:	00000000 	andeq	r0, r0, r0
   102c4:	00000029 	andeq	r0, r0, r9, lsr #32
   102c8:	0000000e 	andeq	r0, r0, lr
	...
   102d8:	00000015 	andeq	r0, r0, r5, lsl r0
	...
   102e8:	00000021 	andeq	r0, r0, r1, lsr #32
	...
   102f8:	00000023 	andeq	r0, r0, r3, lsr #32
	...
   10308:	00000018 	andeq	r0, r0, r8, lsl r0
   1030c:	00000005 	andeq	r0, r0, r5

Disassembly of section .gnu.hash:

00010310 <.gnu.hash>:
   10310:	00000025 	andeq	r0, r0, r5, lsr #32
   10314:	00000004 	andeq	r0, r0, r4
   10318:	00000008 	andeq	r0, r0, r8
   1031c:	00000008 	andeq	r0, r0, r8
   10320:	0032448b 	eorseq	r4, r2, fp, lsl #9
   10324:	e3056009 	movw	r6, #20489	; 0x5009
   10328:	1d8f9448 	cfstrsne	mvf9, [pc, #288]	; 10450 <_init-0x720>
   1032c:	34042200 	strcc	r2, [r4], #-512	; 0xfffffe00
   10330:	293322a0 	ldmdbcs	r3!, {r5, r7, r9, sp}
   10334:	11750e04 	cmnne	r5, r4, lsl #28
   10338:	80401400 	subhi	r1, r0, r0, lsl #8
   1033c:	02901004 	addseq	r1, r0, #4
   10340:	00000004 	andeq	r0, r0, r4
   10344:	00000005 	andeq	r0, r0, r5
   10348:	00000007 	andeq	r0, r0, r7
   1034c:	00000008 	andeq	r0, r0, r8
   10350:	0000000a 	andeq	r0, r0, sl
	...
   1035c:	0000000b 	andeq	r0, r0, fp
   10360:	0000000e 	andeq	r0, r0, lr
   10364:	00000011 	andeq	r0, r0, r1, lsl r0
   10368:	00000000 	andeq	r0, r0, r0
   1036c:	00000012 	andeq	r0, r0, r2, lsl r0
   10370:	00000014 	andeq	r0, r0, r4, lsl r0
   10374:	00000015 	andeq	r0, r0, r5, lsl r0
   10378:	00000017 	andeq	r0, r0, r7, lsl r0
   1037c:	00000018 	andeq	r0, r0, r8, lsl r0
   10380:	00000019 	andeq	r0, r0, r9, lsl r0
   10384:	00000000 	andeq	r0, r0, r0
   10388:	0000001a 	andeq	r0, r0, sl, lsl r0
   1038c:	0000001e 	andeq	r0, r0, lr, lsl r0
   10390:	0000001f 	andeq	r0, r0, pc, lsl r0
   10394:	00000022 	andeq	r0, r0, r2, lsr #32
   10398:	00000000 	andeq	r0, r0, r0
   1039c:	00000023 	andeq	r0, r0, r3, lsr #32
   103a0:	00000026 	andeq	r0, r0, r6, lsr #32
   103a4:	00000027 	andeq	r0, r0, r7, lsr #32
   103a8:	00000000 	andeq	r0, r0, r0
   103ac:	00000028 	andeq	r0, r0, r8, lsr #32
   103b0:	00000029 	andeq	r0, r0, r9, lsr #32
   103b4:	00000000 	andeq	r0, r0, r0
   103b8:	0000002a 	andeq	r0, r0, sl, lsr #32
   103bc:	00000000 	andeq	r0, r0, r0
   103c0:	0000002b 	andeq	r0, r0, fp, lsr #32
   103c4:	00000000 	andeq	r0, r0, r0
   103c8:	0000002d 	andeq	r0, r0, sp, lsr #32
   103cc:	00000000 	andeq	r0, r0, r0
   103d0:	0000002f 	andeq	r0, r0, pc, lsr #32
   103d4:	0d39ad3d 	ldceq	13, cr10, [r9, #-244]!	; 0xffffff0c
   103d8:	7c4b8a10 	vmovvc	s0, s1, r8, fp
   103dc:	f15ae9b5 			; <UNDEFINED> instruction: 0xf15ae9b5
   103e0:	0f9a7751 	svceq	0x009a7751
   103e4:	a4f92300 	ldrbtge	r2, [r9], #768	; 0x300
   103e8:	7c9ddb4f 	fldmiaxvc	sp, {d13-d51}	;@ Deprecated
   103ec:	9f811511 	svcls	0x00811511
   103f0:	156b2bb8 	strbne	r2, [fp, #-3000]!	; 0xfffff448
   103f4:	7c96f086 	ldcvc	0, cr15, [r6], {134}	; 0x86
   103f8:	0f375847 	svceq	0x00375847
   103fc:	7c9e7894 	ldcvc	8, cr7, [lr], {148}	; 0x94
   10400:	7c9499e2 			; <UNDEFINED> instruction: 0x7c9499e2
   10404:	10070991 	mulne	r7, r1, r9
   10408:	f63d4e2f 			; <UNDEFINED> instruction: 0xf63d4e2f
   1040c:	1c8bf238 	sfmne	f7, 1, [fp], {56}	; 0x38
   10410:	26cd5243 	strbcs	r5, [sp], r3, asr #4
   10414:	bcfff93f 			; <UNDEFINED> instruction: 0xbcfff93f
   10418:	0f6cf05c 	svceq	0x006cf05c
   1041c:	0f11ed7d 	svceq	0x0011ed7d
   10420:	0f3b9a5b 	svceq	0x003b9a5b
   10424:	1c93bb9d 	fldmiaxne	r3, {d11-d88}	;@ Deprecated
   10428:	27d5ae07 	ldrbcs	sl, [r5, r7, lsl #28]
   1042c:	7c967e3e 	ldcvc	14, cr7, [r6], {62}	; 0x3e
   10430:	1b81fa72 	blne	fe08ee00 <__bss_end__+0xfe06aadc>
   10434:	1c31032e 	ldcne	3, cr0, [r1], #-184	; 0xffffff48
   10438:	7c9d4d95 	ldcvc	13, cr4, [sp], {149}	; 0x95
   1043c:	0d82b831 	stceq	8, cr11, [r2, #196]	; 0xc4
   10440:	0d827590 	cfstr32eq	mvfx7, [r2, #576]	; 0x240
   10444:	21288c52 			; <UNDEFINED> instruction: 0x21288c52
   10448:	af0c4039 	svcge	0x000c4039
   1044c:	1b4bc595 	blne	1301aa8 <__bss_end__+0x12dd784>
   10450:	1c9396ca 	ldcne	6, cr9, [r3], {202}	; 0xca
   10454:	12f7a2b2 	rscsne	sl, r7, #536870923	; 0x2000000b
   10458:	af0c3fcd 	svcge	0x000c3fcd
   1045c:	3c4d02b5 	sfmcc	f0, 2, [sp], {181}	; 0xb5
   10460:	ab8654f7 	blge	fe1a5844 <__bss_end__+0xfe181520>
   10464:	7c943c73 	ldcvc	12, cr3, [r4], {115}	; 0x73
   10468:	0b794015 	bleq	1e604c4 <__bss_end__+0x1e3c1a0>
   1046c:	4b454ab1 	blmi	1162f38 <__bss_end__+0x113ec14>
   10470:	cee4d6bc 	mcrgt	6, 7, sp, cr4, cr12, {5}
   10474:	0f9a774b 	svceq	0x009a774b
   10478:	1c93db56 	vldmiane	r3, {d13-<overflow reg d55>}
   1047c:	be582cf9 	mrclt	12, 2, r2, cr8, cr9, {7}
   10480:	ff3df269 			; <UNDEFINED> instruction: 0xff3df269

Disassembly of section .dynsym:

00010484 <.dynsym>:
	...
   10494:	0000000b 	andeq	r0, r0, fp
	...
   104a0:	00000020 	andeq	r0, r0, r0, lsr #32
   104a4:	00000027 	andeq	r0, r0, r7, lsr #32
	...
   104b0:	00000020 	andeq	r0, r0, r0, lsr #32
   104b4:	00000036 	andeq	r0, r0, r6, lsr r0
	...
   104c0:	00000020 	andeq	r0, r0, r0, lsr #32
   104c4:	0000014d 	andeq	r0, r0, sp, asr #2
	...
   104d0:	00000012 	andeq	r0, r0, r2, lsl r0
   104d4:	0000008f 	andeq	r0, r0, pc, lsl #1
	...
   104e0:	00000012 	andeq	r0, r0, r2, lsl r0
   104e4:	0000019a 	muleq	r0, sl, r1
	...
   104f0:	00000012 	andeq	r0, r0, r2, lsl r0
   104f4:	000000db 	ldrdeq	r0, [r0], -fp
	...
   10500:	00000012 	andeq	r0, r0, r2, lsl r0
   10504:	0000012b 	andeq	r0, r0, fp, lsr #2
	...
   10510:	00000012 	andeq	r0, r0, r2, lsl r0
   10514:	00000118 	andeq	r0, r0, r8, lsl r1
	...
   10520:	00000012 	andeq	r0, r0, r2, lsl r0
   10524:	000000ad 	andeq	r0, r0, sp, lsr #1
	...
   10530:	00000012 	andeq	r0, r0, r2, lsl r0
   10534:	000001bb 			; <UNDEFINED> instruction: 0x000001bb
	...
   10540:	00000012 	andeq	r0, r0, r2, lsl r0
   10544:	000001d1 	ldrdeq	r0, [r0], -r1
	...
   10550:	00000012 	andeq	r0, r0, r2, lsl r0
   10554:	0000017e 	andeq	r0, r0, lr, ror r1
	...
   10560:	00000012 	andeq	r0, r0, r2, lsl r0
   10564:	000000f1 	strdeq	r0, [r0], -r1
	...
   10570:	00000012 	andeq	r0, r0, r2, lsl r0
   10574:	0000013c 	andeq	r0, r0, ip, lsr r1
	...
   10580:	00000012 	andeq	r0, r0, r2, lsl r0
   10584:	000001c2 	andeq	r0, r0, r2, asr #3
	...
   10590:	00000012 	andeq	r0, r0, r2, lsl r0
   10594:	000001a7 	andeq	r0, r0, r7, lsr #3
	...
   105a0:	00000012 	andeq	r0, r0, r2, lsl r0
   105a4:	00000164 	andeq	r0, r0, r4, ror #2
   105a8:	00024108 	andeq	r4, r2, r8, lsl #2
   105ac:	00000004 	andeq	r0, r0, r4
   105b0:	00180011 	andseq	r0, r8, r1, lsl r0
   105b4:	0000009b 	muleq	r0, fp, r0
	...
   105c0:	00000012 	andeq	r0, r0, r2, lsl r0
   105c4:	000001ba 			; <UNDEFINED> instruction: 0x000001ba
	...
   105d0:	00000012 	andeq	r0, r0, r2, lsl r0
   105d4:	000001a1 	andeq	r0, r0, r1, lsr #3
	...
   105e0:	00000012 	andeq	r0, r0, r2, lsl r0
   105e4:	000000fd 	strdeq	r0, [r0], -sp
	...
   105f0:	00000012 	andeq	r0, r0, r2, lsl r0
   105f4:	0000018d 	andeq	r0, r0, sp, lsl #3
	...
   10600:	00000012 	andeq	r0, r0, r2, lsl r0
   10604:	00000111 	andeq	r0, r0, r1, lsl r1
	...
   10610:	00000012 	andeq	r0, r0, r2, lsl r0
   10614:	0000016b 	andeq	r0, r0, fp, ror #2
	...
   10620:	00000012 	andeq	r0, r0, r2, lsl r0
   10624:	000000d0 	ldrdeq	r0, [r0], -r0	; <UNPREDICTABLE>
	...
   10630:	00000012 	andeq	r0, r0, r2, lsl r0
   10634:	00000193 	muleq	r0, r3, r1
	...
   10640:	00000012 	andeq	r0, r0, r2, lsl r0
   10644:	000000c2 	andeq	r0, r0, r2, asr #1
	...
   10650:	00000012 	andeq	r0, r0, r2, lsl r0
   10654:	00000141 	andeq	r0, r0, r1, asr #2
	...
   10660:	00000012 	andeq	r0, r0, r2, lsl r0
   10664:	0000011d 	andeq	r0, r0, sp, lsl r1
	...
   10670:	00000012 	andeq	r0, r0, r2, lsl r0
   10674:	00000146 	andeq	r0, r0, r6, asr #2
	...
   10680:	00000012 	andeq	r0, r0, r2, lsl r0
   10684:	00000177 	andeq	r0, r0, r7, ror r1
	...
   10690:	00000012 	andeq	r0, r0, r2, lsl r0
   10694:	000000e9 	andeq	r0, r0, r9, ror #1
	...
   106a0:	00000012 	andeq	r0, r0, r2, lsl r0
   106a4:	000001b9 			; <UNDEFINED> instruction: 0x000001b9
	...
   106b0:	00000012 	andeq	r0, r0, r2, lsl r0
   106b4:	000000c9 	andeq	r0, r0, r9, asr #1
	...
   106c0:	00000012 	andeq	r0, r0, r2, lsl r0
   106c4:	0000015d 	andeq	r0, r0, sp, asr r1
   106c8:	00024110 	andeq	r4, r2, r0, lsl r1
   106cc:	00000004 	andeq	r0, r0, r4
   106d0:	00180011 	andseq	r0, r8, r1, lsl r0
   106d4:	000000e1 	andeq	r0, r0, r1, ror #1
	...
   106e0:	00000012 	andeq	r0, r0, r2, lsl r0
   106e4:	00000060 	andeq	r0, r0, r0, rrx
	...
   106f0:	00000012 	andeq	r0, r0, r2, lsl r0
   106f4:	00000070 	andeq	r0, r0, r0, ror r0
	...
   10700:	00000012 	andeq	r0, r0, r2, lsl r0
   10704:	00000188 	andeq	r0, r0, r8, lsl #3
	...
   10710:	00000012 	andeq	r0, r0, r2, lsl r0
   10714:	000000f6 	strdeq	r0, [r0], -r6
	...
   10720:	00000012 	andeq	r0, r0, r2, lsl r0
   10724:	00000103 	andeq	r0, r0, r3, lsl #2
	...
   10730:	00000012 	andeq	r0, r0, r2, lsl r0
   10734:	00000080 	andeq	r0, r0, r0, lsl #1
	...
   10740:	00000012 	andeq	r0, r0, r2, lsl r0
   10744:	000000d5 	ldrdeq	r0, [r0], -r5
	...
   10750:	00000012 	andeq	r0, r0, r2, lsl r0
   10754:	00000124 	andeq	r0, r0, r4, lsr #2
	...
   10760:	00000012 	andeq	r0, r0, r2, lsl r0
   10764:	000001c8 	andeq	r0, r0, r8, asr #3
	...
   10770:	00000012 	andeq	r0, r0, r2, lsl r0
   10774:	00000154 	andeq	r0, r0, r4, asr r1
	...
   10780:	00000012 	andeq	r0, r0, r2, lsl r0

Disassembly of section .dynstr:

00010784 <.dynstr>:
   10784:	62696c00 	rsbvs	r6, r9, #0, 24
   10788:	6f732e6d 	svcvs	0x00732e6d
   1078c:	5f00362e 	svcpl	0x0000362e
   10790:	5f4d5449 	svcpl	0x004d5449
   10794:	65726564 	ldrbvs	r6, [r2, #-1380]!	; 0xfffffa9c
   10798:	74736967 	ldrbtvc	r6, [r3], #-2407	; 0xfffff699
   1079c:	4d547265 	lfmmi	f7, 2, [r4, #-404]	; 0xfffffe6c
   107a0:	6e6f6c43 	cdpvs	12, 6, cr6, cr15, cr3, {2}
   107a4:	62615465 	rsbvs	r5, r1, #1694498816	; 0x65000000
   107a8:	5f00656c 	svcpl	0x0000656c
   107ac:	6f6d675f 	svcvs	0x006d675f
   107b0:	74735f6e 	ldrbtvc	r5, [r3], #-3950	; 0xfffff092
   107b4:	5f747261 	svcpl	0x00747261
   107b8:	495f005f 	ldmdbmi	pc, {r0, r1, r2, r3, r4, r6}^	; <UNPREDICTABLE>
   107bc:	725f4d54 	subsvc	r4, pc, #84, 26	; 0x1500
   107c0:	73696765 	cmnvc	r9, #26476544	; 0x1940000
   107c4:	54726574 	ldrbtpl	r6, [r2], #-1396	; 0xfffffa8c
   107c8:	6f6c434d 	svcvs	0x006c434d
   107cc:	6154656e 	cmpvs	r4, lr, ror #10
   107d0:	00656c62 	rsbeq	r6, r5, r2, ror #24
   107d4:	6a62696c 	bvs	18aad8c <__bss_end__+0x1886a68>
   107d8:	73736e61 	cmnvc	r3, #1552	; 0x610
   107dc:	732e6e6f 			; <UNDEFINED> instruction: 0x732e6e6f
   107e0:	00342e6f 	eorseq	r2, r4, pc, ror #28
   107e4:	6e6f736a 	cdpvs	3, 6, cr7, cr15, cr10, {3}
   107e8:	6a626f5f 	bvs	18ac56c <__bss_end__+0x1888248>
   107ec:	5f746365 	svcpl	0x00746365
   107f0:	00746567 	rsbseq	r6, r4, r7, ror #10
   107f4:	6e6f736a 	cdpvs	3, 6, cr7, cr15, cr10, {3}
   107f8:	7272615f 	rsbsvc	r6, r2, #-1073741801	; 0xc0000017
   107fc:	735f7961 	cmpvc	pc, #1589248	; 0x184000
   10800:	00657a69 	rsbeq	r7, r5, r9, ror #20
   10804:	6e6f736a 	cdpvs	3, 6, cr7, cr15, cr10, {3}
   10808:	7272615f 	rsbsvc	r6, r2, #-1073741801	; 0xc0000017
   1080c:	675f7961 	ldrbvs	r7, [pc, -r1, ror #18]
   10810:	6a007465 	bvs	2d9ac <__bss_end__+0x9688>
   10814:	5f6e6f73 	svcpl	0x006e6f73
   10818:	656c6564 	strbvs	r6, [ip, #-1380]!	; 0xfffffa9c
   1081c:	6a006574 	bvs	29df4 <__bss_end__+0x5ad0>
   10820:	5f6e6f73 	svcpl	0x006e6f73
   10824:	626d756e 	rsbvs	r7, sp, #461373440	; 0x1b800000
   10828:	765f7265 	ldrbvc	r7, [pc], -r5, ror #4
   1082c:	65756c61 	ldrbvs	r6, [r5, #-3169]!	; 0xfffff39f
   10830:	6f736a00 	svcvs	0x00736a00
   10834:	6f6c5f6e 	svcvs	0x006c5f6e
   10838:	00736461 	rsbseq	r6, r3, r1, ror #8
   1083c:	6362696c 	cmnvs	r2, #108, 18	; 0x1b0000
   10840:	2e6f732e 	cdpcs	3, 6, cr7, cr15, cr14, {1}
   10844:	6f730036 	svcvs	0x00730036
   10848:	74656b63 	strbtvc	r6, [r5], #-2915	; 0xfffff49d
   1084c:	72747300 	rsbsvc	r7, r4, #0, 6
   10850:	00797063 	rsbseq	r7, r9, r3, rrx
   10854:	74697865 	strbtvc	r7, [r9], #-2149	; 0xfffff79b
   10858:	6f746800 	svcvs	0x00746800
   1085c:	68006c6e 	stmdavs	r0, {r1, r2, r3, r5, r6, sl, fp, sp, lr}
   10860:	736e6f74 	cmnvc	lr, #116, 30	; 0x1d0
   10864:	72747300 	rsbsvc	r7, r4, #0, 6
   10868:	706d636e 	rsbvc	r6, sp, lr, ror #6
   1086c:	72747300 	rsbsvc	r7, r4, #0, 6
   10870:	7970636e 	ldmdbvc	r0!, {r1, r2, r3, r5, r6, r8, r9, sp, lr}^
   10874:	6d697400 	cfstrdvs	mvd7, [r9, #-0]
   10878:	696c0065 	stmdbvs	ip!, {r0, r2, r5, r6}^
   1087c:	6e657473 	mcrvs	4, 3, r7, cr5, cr3, {3}
   10880:	6f626100 	svcvs	0x00626100
   10884:	5f007472 	svcpl	0x00007472
   10888:	7373615f 	cmnvc	r3, #-1073741801	; 0xc0000017
   1088c:	5f747265 	svcpl	0x00747265
   10890:	6c696166 	stfvse	f6, [r9], #-408	; 0xfffffe68
   10894:	72747300 	rsbsvc	r7, r4, #0, 6
   10898:	006e656c 	rsbeq	r6, lr, ip, ror #10
   1089c:	646e6573 	strbtvs	r6, [lr], #-1395	; 0xfffffa8d
   108a0:	6d656d00 	stclvs	13, cr6, [r5, #-0]
   108a4:	00746573 	rsbseq	r6, r4, r3, ror r5
   108a8:	73727473 	cmnvc	r2, #1929379840	; 0x73000000
   108ac:	5f007274 	svcpl	0x00007274
   108b0:	7272655f 	rsbsvc	r6, r2, #398458880	; 0x17c00000
   108b4:	6c5f6f6e 	mrrcvs	15, 6, r6, pc, cr14	; <UNPREDICTABLE>
   108b8:	7461636f 	strbtvc	r6, [r1], #-879	; 0xfffffc91
   108bc:	006e6f69 	rsbeq	r6, lr, r9, ror #30
   108c0:	646e6962 	strbtvs	r6, [lr], #-2402	; 0xfffff69e
   108c4:	63657200 	cmnvs	r5, #0, 4
   108c8:	656d0076 	strbvs	r0, [sp, #-118]!	; 0xffffff8a
   108cc:	7970636d 	ldmdbvc	r0!, {r0, r2, r3, r5, r6, r8, r9, sp, lr}^
   108d0:	6c616d00 	stclvs	13, cr6, [r1], #-0
   108d4:	00636f6c 	rsbeq	r6, r3, ip, ror #30
   108d8:	76636572 			; <UNDEFINED> instruction: 0x76636572
   108dc:	6d6f7266 	sfmvs	f7, 2, [pc, #-408]!	; 1074c <_init-0x424>
   108e0:	74706f00 	ldrbtvc	r6, [r0], #-3840	; 0xfffff100
   108e4:	00677261 	rsbeq	r7, r7, r1, ror #4
   108e8:	65647473 	strbvs	r7, [r4, #-1139]!	; 0xfffffb8d
   108ec:	67007272 	smlsdxvs	r0, r2, r2, r7
   108f0:	706f7465 	rsbvc	r7, pc, r5, ror #8
   108f4:	6f6c5f74 	svcvs	0x006c5f74
   108f8:	7500676e 	strvc	r6, [r0, #-1902]	; 0xfffff892
   108fc:	65656c73 	strbvs	r6, [r5, #-3187]!	; 0xfffff38d
   10900:	69730070 	ldmdbvs	r3!, {r4, r5, r6}^
   10904:	74636167 	strbtvc	r6, [r3], #-359	; 0xfffffe99
   10908:	006e6f69 	rsbeq	r6, lr, r9, ror #30
   1090c:	696f7461 	stmdbvs	pc!, {r0, r5, r6, sl, ip, sp, lr}^	; <UNPREDICTABLE>
   10910:	6f6c6300 	svcvs	0x006c6300
   10914:	73006573 	movwvc	r6, #1395	; 0x573
   10918:	74646e65 	strbtvc	r6, [r4], #-3685	; 0xfffff19b
   1091c:	6361006f 	cmnvs	r1, #111	; 0x6f
   10920:	74706563 	ldrbtvc	r6, [r0], #-1379	; 0xfffffa9d
   10924:	6e636600 	cdpvs	6, 6, cr6, cr3, cr0, {0}
   10928:	5f006c74 	svcpl	0x00006c74
   1092c:	62696c5f 	rsbvs	r6, r9, #24320	; 0x5f00
   10930:	74735f63 	ldrbtvc	r5, [r3], #-3939	; 0xfffff09d
   10934:	5f747261 	svcpl	0x00747261
   10938:	6e69616d 	powvsez	f6, f1, #5.0
   1093c:	70667600 	rsbvc	r7, r6, r0, lsl #12
   10940:	746e6972 	strbtvc	r6, [lr], #-2418	; 0xfffff68e
   10944:	746e0066 	strbtvc	r0, [lr], #-102	; 0xffffff9a
   10948:	0073686f 	rsbseq	r6, r3, pc, ror #16
   1094c:	72706e73 	rsbsvc	r6, r0, #1840	; 0x730
   10950:	66746e69 	ldrbtvs	r6, [r4], -r9, ror #28
   10954:	65726600 	ldrbvs	r6, [r2, #-1536]!	; 0xfffffa00
   10958:	4c470065 	mcrrmi	0, 6, r0, r7, cr5
   1095c:	5f434249 	svcpl	0x00434249
   10960:	38322e32 	ldmdacc	r2!, {r1, r4, r5, r9, sl, fp, sp}
   10964:	494c4700 	stmdbmi	ip, {r8, r9, sl, lr}^
   10968:	325f4342 	subscc	r4, pc, #134217729	; 0x8000001
   1096c:	Address 0x0001096c is out of bounds.


Disassembly of section .gnu.version:

00010970 <.gnu.version>:
	...
   10978:	00000002 	andeq	r0, r0, r2
   1097c:	00020002 	andeq	r0, r2, r2
   10980:	00020002 	andeq	r0, r2, r2
   10984:	00020000 	andeq	r0, r2, r0
   10988:	00020002 	andeq	r0, r2, r2
   1098c:	00020002 	andeq	r0, r2, r2
   10990:	00020002 	andeq	r0, r2, r2
   10994:	00000002 	andeq	r0, r0, r2
   10998:	00030002 	andeq	r0, r3, r2
   1099c:	00020002 	andeq	r0, r2, r2
   109a0:	00020002 	andeq	r0, r2, r2
   109a4:	00020002 	andeq	r0, r2, r2
   109a8:	00020002 	andeq	r0, r2, r2
   109ac:	00020002 	andeq	r0, r2, r2
   109b0:	00020002 	andeq	r0, r2, r2
   109b4:	00020002 	andeq	r0, r2, r2
   109b8:	00020002 	andeq	r0, r2, r2
   109bc:	00000000 	andeq	r0, r0, r0
   109c0:	00020002 	andeq	r0, r2, r2
   109c4:	00000002 	andeq	r0, r0, r2
   109c8:	00020002 	andeq	r0, r2, r2
   109cc:	00020002 	andeq	r0, r2, r2

Disassembly of section .gnu.version_r:

000109d0 <.gnu.version_r>:
   109d0:	00020001 	andeq	r0, r2, r1
   109d4:	000000b8 	strheq	r0, [r0], -r8
   109d8:	00000010 	andeq	r0, r0, r0, lsl r0
   109dc:	00000000 	andeq	r0, r0, r0
   109e0:	06969188 	ldreq	r9, [r6], r8, lsl #3
   109e4:	00030000 	andeq	r0, r3, r0
   109e8:	000001d6 	ldrdeq	r0, [r0], -r6
   109ec:	00000010 	andeq	r0, r0, r0, lsl r0
   109f0:	0d696914 			; <UNDEFINED> instruction: 0x0d696914
   109f4:	00020000 	andeq	r0, r2, r0
   109f8:	000001e1 	andeq	r0, r0, r1, ror #3
   109fc:	00000000 	andeq	r0, r0, r0

Disassembly of section .rel.dyn:

00010a00 <.rel.dyn>:
   10a00:	000240b8 	strheq	r4, [r2], -r8
   10a04:	00000215 	andeq	r0, r0, r5, lsl r2
   10a08:	00024108 	andeq	r4, r2, r8, lsl #2
   10a0c:	00001214 	andeq	r1, r0, r4, lsl r2
   10a10:	00024110 	andeq	r4, r2, r0, lsl r1
   10a14:	00002414 	andeq	r2, r0, r4, lsl r4

Disassembly of section .rel.plt:

00010a18 <.rel.plt>:
   10a18:	0002400c 	andeq	r4, r2, ip
   10a1c:	00002d16 	andeq	r2, r0, r6, lsl sp
   10a20:	00024010 	andeq	r4, r2, r0, lsl r0
   10a24:	00000b16 	andeq	r0, r0, r6, lsl fp
   10a28:	00024014 	andeq	r4, r2, r4, lsl r0
   10a2c:	00000c16 	andeq	r0, r0, r6, lsl ip
   10a30:	00024018 	andeq	r4, r2, r8, lsl r0
   10a34:	00001f16 	andeq	r1, r0, r6, lsl pc
   10a38:	0002401c 	andeq	r4, r2, ip, lsl r0
   10a3c:	00000e16 	andeq	r0, r0, r6, lsl lr
   10a40:	00024020 	andeq	r4, r2, r0, lsr #32
   10a44:	00000516 	andeq	r0, r0, r6, lsl r5
   10a48:	00024024 	andeq	r4, r2, r4, lsr #32
   10a4c:	00002f16 	andeq	r2, r0, r6, lsl pc
   10a50:	00024028 	andeq	r4, r2, r8, lsr #32
   10a54:	00000716 	andeq	r0, r0, r6, lsl r7
   10a58:	0002402c 	andeq	r4, r2, ip, lsr #32
   10a5c:	00000616 	andeq	r0, r0, r6, lsl r6
   10a60:	00024030 	andeq	r4, r2, r0, lsr r0
   10a64:	00000d16 	andeq	r0, r0, r6, lsl sp
   10a68:	00024034 	andeq	r4, r2, r4, lsr r0
   10a6c:	00002b16 	andeq	r2, r0, r6, lsl fp
   10a70:	00024038 	andeq	r4, r2, r8, lsr r0
   10a74:	00002016 	andeq	r2, r0, r6, lsl r0
   10a78:	0002403c 	andeq	r4, r2, ip, lsr r0
   10a7c:	00002316 	andeq	r2, r0, r6, lsl r3
   10a80:	00024040 	andeq	r4, r2, r0, asr #32
   10a84:	00000416 	andeq	r0, r0, r6, lsl r4
   10a88:	00024044 	andeq	r4, r2, r4, asr #32
   10a8c:	00001116 	andeq	r1, r0, r6, lsl r1
   10a90:	00024048 	andeq	r4, r2, r8, asr #32
   10a94:	00000216 	andeq	r0, r0, r6, lsl r2
   10a98:	0002404c 	andeq	r4, r2, ip, asr #32
   10a9c:	00001916 	andeq	r1, r0, r6, lsl r9
   10aa0:	00024050 	andeq	r4, r2, r0, asr r0
   10aa4:	00001a16 	andeq	r1, r0, r6, lsl sl
   10aa8:	00024054 	andeq	r4, r2, r4, asr r0
   10aac:	00001816 	andeq	r1, r0, r6, lsl r8
   10ab0:	00024058 	andeq	r4, r2, r8, asr r0
   10ab4:	00001416 	andeq	r1, r0, r6, lsl r4
   10ab8:	0002405c 	andeq	r4, r2, ip, asr r0
   10abc:	00000816 	andeq	r0, r0, r6, lsl r8
   10ac0:	00024060 	andeq	r4, r2, r0, rrx
   10ac4:	00002e16 	andeq	r2, r0, r6, lsl lr
   10ac8:	00024064 	andeq	r4, r2, r4, rrx
   10acc:	00000f16 	andeq	r0, r0, r6, lsl pc
   10ad0:	00024068 	andeq	r4, r2, r8, rrx
   10ad4:	00001516 	andeq	r1, r0, r6, lsl r5
   10ad8:	0002406c 	andeq	r4, r2, ip, rrx
   10adc:	00001e16 	andeq	r1, r0, r6, lsl lr
   10ae0:	00024070 	andeq	r4, r2, r0, ror r0
   10ae4:	00002116 	andeq	r2, r0, r6, lsl r1
   10ae8:	00024074 	andeq	r4, r2, r4, ror r0
   10aec:	00002716 	andeq	r2, r0, r6, lsl r7
   10af0:	00024078 	andeq	r4, r2, r8, ror r0
   10af4:	00001b16 	andeq	r1, r0, r6, lsl fp
   10af8:	0002407c 	andeq	r4, r2, ip, ror r0
   10afc:	00002c16 	andeq	r2, r0, r6, lsl ip
   10b00:	00024080 	andeq	r4, r2, r0, lsl #1
   10b04:	00002916 	andeq	r2, r0, r6, lsl r9
   10b08:	00024084 	andeq	r4, r2, r4, lsl #1
   10b0c:	00002216 	andeq	r2, r0, r6, lsl r2
   10b10:	00024088 	andeq	r4, r2, r8, lsl #1
   10b14:	00001016 	andeq	r1, r0, r6, lsl r0
   10b18:	0002408c 	andeq	r4, r2, ip, lsl #1
   10b1c:	00002816 	andeq	r2, r0, r6, lsl r8
   10b20:	00024090 	muleq	r2, r0, r0
   10b24:	00000a16 	andeq	r0, r0, r6, lsl sl
   10b28:	00024094 	muleq	r2, r4, r0
   10b2c:	00001c16 	andeq	r1, r0, r6, lsl ip
   10b30:	00024098 	muleq	r2, r8, r0
   10b34:	00002516 	andeq	r2, r0, r6, lsl r5
   10b38:	0002409c 	muleq	r2, ip, r0
   10b3c:	00001616 	andeq	r1, r0, r6, lsl r6
   10b40:	000240a0 	andeq	r4, r2, r0, lsr #1
   10b44:	00001d16 	andeq	r1, r0, r6, lsl sp
   10b48:	000240a4 	andeq	r4, r2, r4, lsr #1
   10b4c:	00001716 	andeq	r1, r0, r6, lsl r7
   10b50:	000240a8 	andeq	r4, r2, r8, lsr #1
   10b54:	00000916 	andeq	r0, r0, r6, lsl r9
   10b58:	000240ac 	andeq	r4, r2, ip, lsr #1
   10b5c:	00001316 	andeq	r1, r0, r6, lsl r3
   10b60:	000240b0 	strheq	r4, [r2], -r0
   10b64:	00002a16 	andeq	r2, r0, r6, lsl sl
   10b68:	000240b4 	strheq	r4, [r2], -r4	; <UNPREDICTABLE>
   10b6c:	00002616 	andeq	r2, r0, r6, lsl r6

Disassembly of section .init:

00010b70 <_init>:
   10b70:	e92d4008 	push	{r3, lr}
   10b74:	eb000095 	bl	10dd0 <call_weak_fn>
   10b78:	e8bd8008 	pop	{r3, pc}

Disassembly of section .plt:

00010b7c <.plt>:
   10b7c:	e52de004 	push	{lr}		; (str lr, [sp, #-4]!)
   10b80:	e59fe004 	ldr	lr, [pc, #4]	; 10b8c <.plt+0x10>
   10b84:	e08fe00e 	add	lr, pc, lr
   10b88:	e5bef008 	ldr	pc, [lr, #8]!
   10b8c:	00013474 	andeq	r3, r1, r4, ror r4

00010b90 <strstr@plt>:
   10b90:	e28fc600 	add	ip, pc, #0, 12
   10b94:	e28cca13 	add	ip, ip, #77824	; 0x13000
   10b98:	e5bcf474 	ldr	pc, [ip, #1140]!	; 0x474

00010b9c <printf@plt>:
   10b9c:	e28fc600 	add	ip, pc, #0, 12
   10ba0:	e28cca13 	add	ip, ip, #77824	; 0x13000
   10ba4:	e5bcf46c 	ldr	pc, [ip, #1132]!	; 0x46c

00010ba8 <free@plt>:
   10ba8:	e28fc600 	add	ip, pc, #0, 12
   10bac:	e28cca13 	add	ip, ip, #77824	; 0x13000
   10bb0:	e5bcf464 	ldr	pc, [ip, #1124]!	; 0x464

00010bb4 <memcpy@plt>:
   10bb4:	e28fc600 	add	ip, pc, #0, 12
   10bb8:	e28cca13 	add	ip, ip, #77824	; 0x13000
   10bbc:	e5bcf45c 	ldr	pc, [ip, #1116]!	; 0x45c

00010bc0 <time@plt>:
   10bc0:	e28fc600 	add	ip, pc, #0, 12
   10bc4:	e28cca13 	add	ip, ip, #77824	; 0x13000
   10bc8:	e5bcf454 	ldr	pc, [ip, #1108]!	; 0x454

00010bcc <json_delete@plt>:
   10bcc:	e28fc600 	add	ip, pc, #0, 12
   10bd0:	e28cca13 	add	ip, ip, #77824	; 0x13000
   10bd4:	e5bcf44c 	ldr	pc, [ip, #1100]!	; 0x44c

00010bd8 <recvfrom@plt>:
   10bd8:	e28fc600 	add	ip, pc, #0, 12
   10bdc:	e28cca13 	add	ip, ip, #77824	; 0x13000
   10be0:	e5bcf444 	ldr	pc, [ip, #1092]!	; 0x444

00010be4 <htons@plt>:
   10be4:	e28fc600 	add	ip, pc, #0, 12
   10be8:	e28cca13 	add	ip, ip, #77824	; 0x13000
   10bec:	e5bcf43c 	ldr	pc, [ip, #1084]!	; 0x43c

00010bf0 <accept@plt>:
   10bf0:	e28fc600 	add	ip, pc, #0, 12
   10bf4:	e28cca13 	add	ip, ip, #77824	; 0x13000
   10bf8:	e5bcf434 	ldr	pc, [ip, #1076]!	; 0x434

00010bfc <sigaction@plt>:
   10bfc:	e28fc600 	add	ip, pc, #0, 12
   10c00:	e28cca13 	add	ip, ip, #77824	; 0x13000
   10c04:	e5bcf42c 	ldr	pc, [ip, #1068]!	; 0x42c

00010c08 <json_array_get@plt>:
   10c08:	e28fc600 	add	ip, pc, #0, 12
   10c0c:	e28cca13 	add	ip, ip, #77824	; 0x13000
   10c10:	e5bcf424 	ldr	pc, [ip, #1060]!	; 0x424

00010c14 <usleep@plt>:
   10c14:	e28fc600 	add	ip, pc, #0, 12
   10c18:	e28cca13 	add	ip, ip, #77824	; 0x13000
   10c1c:	e5bcf41c 	ldr	pc, [ip, #1052]!	; 0x41c

00010c20 <strcpy@plt>:
   10c20:	e28fc600 	add	ip, pc, #0, 12
   10c24:	e28cca13 	add	ip, ip, #77824	; 0x13000
   10c28:	e5bcf414 	ldr	pc, [ip, #1044]!	; 0x414

00010c2c <malloc@plt>:
   10c2c:	e28fc600 	add	ip, pc, #0, 12
   10c30:	e28cca13 	add	ip, ip, #77824	; 0x13000
   10c34:	e5bcf40c 	ldr	pc, [ip, #1036]!	; 0x40c

00010c38 <__libc_start_main@plt>:
   10c38:	e28fc600 	add	ip, pc, #0, 12
   10c3c:	e28cca13 	add	ip, ip, #77824	; 0x13000
   10c40:	e5bcf404 	ldr	pc, [ip, #1028]!	; 0x404

00010c44 <__gmon_start__@plt>:
   10c44:	e28fc600 	add	ip, pc, #0, 12
   10c48:	e28cca13 	add	ip, ip, #77824	; 0x13000
   10c4c:	e5bcf3fc 	ldr	pc, [ip, #1020]!	; 0x3fc

00010c50 <getopt_long@plt>:
   10c50:	e28fc600 	add	ip, pc, #0, 12
   10c54:	e28cca13 	add	ip, ip, #77824	; 0x13000
   10c58:	e5bcf3f4 	ldr	pc, [ip, #1012]!	; 0x3f4

00010c5c <exit@plt>:
   10c5c:	e28fc600 	add	ip, pc, #0, 12
   10c60:	e28cca13 	add	ip, ip, #77824	; 0x13000
   10c64:	e5bcf3ec 	ldr	pc, [ip, #1004]!	; 0x3ec

00010c68 <strlen@plt>:
   10c68:	e28fc600 	add	ip, pc, #0, 12
   10c6c:	e28cca13 	add	ip, ip, #77824	; 0x13000
   10c70:	e5bcf3e4 	ldr	pc, [ip, #996]!	; 0x3e4

00010c74 <fprintf@plt>:
   10c74:	e28fc600 	add	ip, pc, #0, 12
   10c78:	e28cca13 	add	ip, ip, #77824	; 0x13000
   10c7c:	e5bcf3dc 	ldr	pc, [ip, #988]!	; 0x3dc

00010c80 <__errno_location@plt>:
   10c80:	e28fc600 	add	ip, pc, #0, 12
   10c84:	e28cca13 	add	ip, ip, #77824	; 0x13000
   10c88:	e5bcf3d4 	ldr	pc, [ip, #980]!	; 0x3d4

00010c8c <snprintf@plt>:
   10c8c:	e28fc600 	add	ip, pc, #0, 12
   10c90:	e28cca13 	add	ip, ip, #77824	; 0x13000
   10c94:	e5bcf3cc 	ldr	pc, [ip, #972]!	; 0x3cc

00010c98 <bind@plt>:
   10c98:	e28fc600 	add	ip, pc, #0, 12
   10c9c:	e28cca13 	add	ip, ip, #77824	; 0x13000
   10ca0:	e5bcf3c4 	ldr	pc, [ip, #964]!	; 0x3c4

00010ca4 <fcntl@plt>:
   10ca4:	e28fc600 	add	ip, pc, #0, 12
   10ca8:	e28cca13 	add	ip, ip, #77824	; 0x13000
   10cac:	e5bcf3bc 	ldr	pc, [ip, #956]!	; 0x3bc

00010cb0 <memset@plt>:
   10cb0:	e28fc600 	add	ip, pc, #0, 12
   10cb4:	e28cca13 	add	ip, ip, #77824	; 0x13000
   10cb8:	e5bcf3b4 	ldr	pc, [ip, #948]!	; 0x3b4

00010cbc <strncpy@plt>:
   10cbc:	e28fc600 	add	ip, pc, #0, 12
   10cc0:	e28cca13 	add	ip, ip, #77824	; 0x13000
   10cc4:	e5bcf3ac 	ldr	pc, [ip, #940]!	; 0x3ac

00010cc8 <json_array_size@plt>:
   10cc8:	e28fc600 	add	ip, pc, #0, 12
   10ccc:	e28cca13 	add	ip, ip, #77824	; 0x13000
   10cd0:	e5bcf3a4 	ldr	pc, [ip, #932]!	; 0x3a4

00010cd4 <sendto@plt>:
   10cd4:	e28fc600 	add	ip, pc, #0, 12
   10cd8:	e28cca13 	add	ip, ip, #77824	; 0x13000
   10cdc:	e5bcf39c 	ldr	pc, [ip, #924]!	; 0x39c

00010ce0 <htonl@plt>:
   10ce0:	e28fc600 	add	ip, pc, #0, 12
   10ce4:	e28cca13 	add	ip, ip, #77824	; 0x13000
   10ce8:	e5bcf394 	ldr	pc, [ip, #916]!	; 0x394

00010cec <listen@plt>:
   10cec:	e28fc600 	add	ip, pc, #0, 12
   10cf0:	e28cca13 	add	ip, ip, #77824	; 0x13000
   10cf4:	e5bcf38c 	ldr	pc, [ip, #908]!	; 0x38c

00010cf8 <vfprintf@plt>:
   10cf8:	e28fc600 	add	ip, pc, #0, 12
   10cfc:	e28cca13 	add	ip, ip, #77824	; 0x13000
   10d00:	e5bcf384 	ldr	pc, [ip, #900]!	; 0x384

00010d04 <ntohs@plt>:
   10d04:	e28fc600 	add	ip, pc, #0, 12
   10d08:	e28cca13 	add	ip, ip, #77824	; 0x13000
   10d0c:	e5bcf37c 	ldr	pc, [ip, #892]!	; 0x37c

00010d10 <atoi@plt>:
   10d10:	e28fc600 	add	ip, pc, #0, 12
   10d14:	e28cca13 	add	ip, ip, #77824	; 0x13000
   10d18:	e5bcf374 	ldr	pc, [ip, #884]!	; 0x374

00010d1c <json_loads@plt>:
   10d1c:	e28fc600 	add	ip, pc, #0, 12
   10d20:	e28cca13 	add	ip, ip, #77824	; 0x13000
   10d24:	e5bcf36c 	ldr	pc, [ip, #876]!	; 0x36c

00010d28 <socket@plt>:
   10d28:	e28fc600 	add	ip, pc, #0, 12
   10d2c:	e28cca13 	add	ip, ip, #77824	; 0x13000
   10d30:	e5bcf364 	ldr	pc, [ip, #868]!	; 0x364

00010d34 <strncmp@plt>:
   10d34:	e28fc600 	add	ip, pc, #0, 12
   10d38:	e28cca13 	add	ip, ip, #77824	; 0x13000
   10d3c:	e5bcf35c 	ldr	pc, [ip, #860]!	; 0x35c

00010d40 <abort@plt>:
   10d40:	e28fc600 	add	ip, pc, #0, 12
   10d44:	e28cca13 	add	ip, ip, #77824	; 0x13000
   10d48:	e5bcf354 	ldr	pc, [ip, #852]!	; 0x354

00010d4c <recv@plt>:
   10d4c:	e28fc600 	add	ip, pc, #0, 12
   10d50:	e28cca13 	add	ip, ip, #77824	; 0x13000
   10d54:	e5bcf34c 	ldr	pc, [ip, #844]!	; 0x34c

00010d58 <close@plt>:
   10d58:	e28fc600 	add	ip, pc, #0, 12
   10d5c:	e28cca13 	add	ip, ip, #77824	; 0x13000
   10d60:	e5bcf344 	ldr	pc, [ip, #836]!	; 0x344

00010d64 <send@plt>:
   10d64:	e28fc600 	add	ip, pc, #0, 12
   10d68:	e28cca13 	add	ip, ip, #77824	; 0x13000
   10d6c:	e5bcf33c 	ldr	pc, [ip, #828]!	; 0x33c

00010d70 <json_number_value@plt>:
   10d70:	e28fc600 	add	ip, pc, #0, 12
   10d74:	e28cca13 	add	ip, ip, #77824	; 0x13000
   10d78:	e5bcf334 	ldr	pc, [ip, #820]!	; 0x334

00010d7c <__assert_fail@plt>:
   10d7c:	e28fc600 	add	ip, pc, #0, 12
   10d80:	e28cca13 	add	ip, ip, #77824	; 0x13000
   10d84:	e5bcf32c 	ldr	pc, [ip, #812]!	; 0x32c

00010d88 <json_object_get@plt>:
   10d88:	e28fc600 	add	ip, pc, #0, 12
   10d8c:	e28cca13 	add	ip, ip, #77824	; 0x13000
   10d90:	e5bcf324 	ldr	pc, [ip, #804]!	; 0x324

Disassembly of section .text:

00010d94 <_start>:
   10d94:	e3a0b000 	mov	fp, #0
   10d98:	e3a0e000 	mov	lr, #0
   10d9c:	e49d1004 	pop	{r1}		; (ldr r1, [sp], #4)
   10da0:	e1a0200d 	mov	r2, sp
   10da4:	e52d2004 	push	{r2}		; (str r2, [sp, #-4]!)
   10da8:	e52d0004 	push	{r0}		; (str r0, [sp, #-4]!)
   10dac:	e59fc010 	ldr	ip, [pc, #16]	; 10dc4 <_start+0x30>
   10db0:	e52dc004 	push	{ip}		; (str ip, [sp, #-4]!)
   10db4:	e59f000c 	ldr	r0, [pc, #12]	; 10dc8 <_start+0x34>
   10db8:	e59f300c 	ldr	r3, [pc, #12]	; 10dcc <_start+0x38>
   10dbc:	ebffff9d 	bl	10c38 <__libc_start_main@plt>
   10dc0:	ebffffde 	bl	10d40 <abort@plt>
   10dc4:	00013128 	andeq	r3, r1, r8, lsr #2
   10dc8:	00010e84 	andeq	r0, r1, r4, lsl #29
   10dcc:	000130c8 	andeq	r3, r1, r8, asr #1

00010dd0 <call_weak_fn>:
   10dd0:	e59f3014 	ldr	r3, [pc, #20]	; 10dec <call_weak_fn+0x1c>
   10dd4:	e59f2014 	ldr	r2, [pc, #20]	; 10df0 <call_weak_fn+0x20>
   10dd8:	e08f3003 	add	r3, pc, r3
   10ddc:	e7932002 	ldr	r2, [r3, r2]
   10de0:	e3520000 	cmp	r2, #0
   10de4:	012fff1e 	bxeq	lr
   10de8:	eaffff95 	b	10c44 <__gmon_start__@plt>
   10dec:	00013220 	andeq	r3, r1, r0, lsr #4
   10df0:	000000b8 	strheq	r0, [r0], -r8

00010df4 <deregister_tm_clones>:
   10df4:	e59f0018 	ldr	r0, [pc, #24]	; 10e14 <deregister_tm_clones+0x20>
   10df8:	e59f3018 	ldr	r3, [pc, #24]	; 10e18 <deregister_tm_clones+0x24>
   10dfc:	e1530000 	cmp	r3, r0
   10e00:	012fff1e 	bxeq	lr
   10e04:	e59f3010 	ldr	r3, [pc, #16]	; 10e1c <deregister_tm_clones+0x28>
   10e08:	e3530000 	cmp	r3, #0
   10e0c:	012fff1e 	bxeq	lr
   10e10:	e12fff13 	bx	r3
   10e14:	00024104 	andeq	r4, r2, r4, lsl #2
   10e18:	00024104 	andeq	r4, r2, r4, lsl #2
   10e1c:	00000000 	andeq	r0, r0, r0

00010e20 <register_tm_clones>:
   10e20:	e59f0024 	ldr	r0, [pc, #36]	; 10e4c <register_tm_clones+0x2c>
   10e24:	e59f1024 	ldr	r1, [pc, #36]	; 10e50 <register_tm_clones+0x30>
   10e28:	e0411000 	sub	r1, r1, r0
   10e2c:	e1a01141 	asr	r1, r1, #2
   10e30:	e0811fa1 	add	r1, r1, r1, lsr #31
   10e34:	e1b010c1 	asrs	r1, r1, #1
   10e38:	012fff1e 	bxeq	lr
   10e3c:	e59f3010 	ldr	r3, [pc, #16]	; 10e54 <register_tm_clones+0x34>
   10e40:	e3530000 	cmp	r3, #0
   10e44:	012fff1e 	bxeq	lr
   10e48:	e12fff13 	bx	r3
   10e4c:	00024104 	andeq	r4, r2, r4, lsl #2
   10e50:	00024104 	andeq	r4, r2, r4, lsl #2
   10e54:	00000000 	andeq	r0, r0, r0

00010e58 <__do_global_dtors_aux>:
   10e58:	e92d4010 	push	{r4, lr}
   10e5c:	e59f4018 	ldr	r4, [pc, #24]	; 10e7c <__do_global_dtors_aux+0x24>
   10e60:	e5d43000 	ldrb	r3, [r4]
   10e64:	e3530000 	cmp	r3, #0
   10e68:	18bd8010 	popne	{r4, pc}
   10e6c:	ebffffe0 	bl	10df4 <deregister_tm_clones>
   10e70:	e3a03001 	mov	r3, #1
   10e74:	e5c43000 	strb	r3, [r4]
   10e78:	e8bd8010 	pop	{r4, pc}
   10e7c:	00024114 	andeq	r4, r2, r4, lsl r1

00010e80 <frame_dummy>:
   10e80:	eaffffe6 	b	10e20 <register_tm_clones>

00010e84 <main>:
   10e84:	e92d4c10 	push	{r4, sl, fp, lr}
   10e88:	e28db008 	add	fp, sp, #8
   10e8c:	e24ddd3f 	sub	sp, sp, #4032	; 0xfc0
   10e90:	e24dd901 	sub	sp, sp, #16384	; 0x4000
   10e94:	e24b20de 	sub	r2, fp, #222	; 0xde
   10e98:	e59f37d8 	ldr	r3, [pc, #2008]	; 11678 <main+0x7f4>
   10e9c:	e50b300c 	str	r3, [fp, #-12]
   10ea0:	e50b0010 	str	r0, [fp, #-16]
   10ea4:	e50b1014 	str	r1, [fp, #-20]	; 0xffffffec
   10ea8:	e51b1010 	ldr	r1, [fp, #-16]
   10eac:	e51b0014 	ldr	r0, [fp, #-20]	; 0xffffffec
   10eb0:	e24b3024 	sub	r3, fp, #36	; 0x24
   10eb4:	e58d0084 	str	r0, [sp, #132]	; 0x84
   10eb8:	e1a00003 	mov	r0, r3
   10ebc:	e59d3084 	ldr	r3, [sp, #132]	; 0x84
   10ec0:	e58d2080 	str	r2, [sp, #128]	; 0x80
   10ec4:	e1a02003 	mov	r2, r3
   10ec8:	eb00021f 	bl	1174c <get_args>
   10ecc:	e59f07a0 	ldr	r0, [pc, #1952]	; 11674 <main+0x7f0>
   10ed0:	e50b0028 	str	r0, [fp, #-40]	; 0xffffffd8
   10ed4:	e51b0028 	ldr	r0, [fp, #-40]	; 0xffffffd8
   10ed8:	e3500040 	cmp	r0, #64	; 0x40
   10edc:	aa000029 	bge	10f88 <main+0x104>
   10ee0:	e51b0028 	ldr	r0, [fp, #-40]	; 0xffffffd8
   10ee4:	e3500009 	cmp	r0, #9
   10ee8:	0a000021 	beq	10f74 <main+0xf0>
   10eec:	e51b0028 	ldr	r0, [fp, #-40]	; 0xffffffd8
   10ef0:	e3500013 	cmp	r0, #19
   10ef4:	0a00001e 	beq	10f74 <main+0xf0>
   10ef8:	e51b0028 	ldr	r0, [fp, #-40]	; 0xffffffd8
   10efc:	e350001a 	cmp	r0, #26
   10f00:	0a00001b 	beq	10f74 <main+0xf0>
   10f04:	e51b0028 	ldr	r0, [fp, #-40]	; 0xffffffd8
   10f08:	e350001c 	cmp	r0, #28
   10f0c:	0a000018 	beq	10f74 <main+0xf0>
   10f10:	e51b0028 	ldr	r0, [fp, #-40]	; 0xffffffd8
   10f14:	e350001b 	cmp	r0, #27
   10f18:	0a000015 	beq	10f74 <main+0xf0>
   10f1c:	e59f2754 	ldr	r2, [pc, #1876]	; 11678 <main+0x7f4>
   10f20:	e59f0820 	ldr	r0, [pc, #2080]	; 11748 <main+0x8c4>
   10f24:	e24b10b4 	sub	r1, fp, #180	; 0xb4
   10f28:	e1a03001 	mov	r3, r1
   10f2c:	e3a0c000 	mov	ip, #0
   10f30:	e3a0e08c 	mov	lr, #140	; 0x8c
   10f34:	e58d007c 	str	r0, [sp, #124]	; 0x7c
   10f38:	e1a00003 	mov	r0, r3
   10f3c:	e58d1078 	str	r1, [sp, #120]	; 0x78
   10f40:	e1a0100c 	mov	r1, ip
   10f44:	e58d2074 	str	r2, [sp, #116]	; 0x74
   10f48:	e1a0200e 	mov	r2, lr
   10f4c:	ebffff57 	bl	10cb0 <memset@plt>
   10f50:	e59d107c 	ldr	r1, [sp, #124]	; 0x7c
   10f54:	e50b10b4 	str	r1, [fp, #-180]	; 0xffffff4c
   10f58:	e51b2028 	ldr	r2, [fp, #-40]	; 0xffffffd8
   10f5c:	e58d0070 	str	r0, [sp, #112]	; 0x70
   10f60:	e1a00002 	mov	r0, r2
   10f64:	e59d1078 	ldr	r1, [sp, #120]	; 0x78
   10f68:	e59d2074 	ldr	r2, [sp, #116]	; 0x74
   10f6c:	ebffff22 	bl	10bfc <sigaction@plt>
   10f70:	e58d006c 	str	r0, [sp, #108]	; 0x6c
   10f74:	eaffffff 	b	10f78 <main+0xf4>
   10f78:	e51b0028 	ldr	r0, [fp, #-40]	; 0xffffffd8
   10f7c:	e2800001 	add	r0, r0, #1
   10f80:	e50b0028 	str	r0, [fp, #-40]	; 0xffffffd8
   10f84:	eaffffd2 	b	10ed4 <main+0x50>
   10f88:	e59f06f4 	ldr	r0, [pc, #1780]	; 11684 <main+0x800>
   10f8c:	e59f16f4 	ldr	r1, [pc, #1780]	; 11688 <main+0x804>
   10f90:	ed9f0af1 	vldr	s0, [pc, #964]	; 1135c <main+0x4d8>
   10f94:	ed0b0a2e 	vstr	s0, [fp, #-184]	; 0xffffff48
   10f98:	ebfffeff 	bl	10b9c <printf@plt>
   10f9c:	e59f16dc 	ldr	r1, [pc, #1756]	; 11680 <main+0x7fc>
   10fa0:	e58d0068 	str	r0, [sp, #104]	; 0x68
   10fa4:	e1a00001 	mov	r0, r1
   10fa8:	ebffff1f 	bl	10c2c <malloc@plt>
   10fac:	e59f16c8 	ldr	r1, [pc, #1736]	; 1167c <main+0x7f8>
   10fb0:	e50b00bc 	str	r0, [fp, #-188]	; 0xffffff44
   10fb4:	e51b00bc 	ldr	r0, [fp, #-188]	; 0xffffff44
   10fb8:	e58d0064 	str	r0, [sp, #100]	; 0x64
   10fbc:	e1a00001 	mov	r0, r1
   10fc0:	e59d1064 	ldr	r1, [sp, #100]	; 0x64
   10fc4:	ebfffef4 	bl	10b9c <printf@plt>
   10fc8:	e59f16a8 	ldr	r1, [pc, #1704]	; 11678 <main+0x7f4>
   10fcc:	e59fe6a0 	ldr	lr, [pc, #1696]	; 11674 <main+0x7f0>
   10fd0:	ed9f0ae2 	vldr	s0, [pc, #904]	; 11360 <main+0x4dc>
   10fd4:	e51b20bc 	ldr	r2, [fp, #-188]	; 0xffffff44
   10fd8:	ed820a00 	vstr	s0, [r2]
   10fdc:	e51b20bc 	ldr	r2, [fp, #-188]	; 0xffffff44
   10fe0:	ed820a01 	vstr	s0, [r2, #4]
   10fe4:	e51b20bc 	ldr	r2, [fp, #-188]	; 0xffffff44
   10fe8:	e582e008 	str	lr, [r2, #8]
   10fec:	ed1b0a2e 	vldr	s0, [fp, #-184]	; 0xffffff48
   10ff0:	e51b20bc 	ldr	r2, [fp, #-188]	; 0xffffff44
   10ff4:	ed820a03 	vstr	s0, [r2, #12]
   10ff8:	ed1b0a2e 	vldr	s0, [fp, #-184]	; 0xffffff48
   10ffc:	e51b20bc 	ldr	r2, [fp, #-188]	; 0xffffff44
   11000:	ed820a04 	vstr	s0, [r2, #16]
   11004:	e51b20bc 	ldr	r2, [fp, #-188]	; 0xffffff44
   11008:	e5821014 	str	r1, [r2, #20]
   1100c:	e50b10c0 	str	r1, [fp, #-192]	; 0xffffff40
   11010:	e51b1020 	ldr	r1, [fp, #-32]	; 0xffffffe0
   11014:	e3510000 	cmp	r1, #0
   11018:	e58d0060 	str	r0, [sp, #96]	; 0x60
   1101c:	0a000007 	beq	11040 <main+0x1bc>
   11020:	e59f0668 	ldr	r0, [pc, #1640]	; 11690 <main+0x80c>
   11024:	e59f266c 	ldr	r2, [pc, #1644]	; 11698 <main+0x814>
   11028:	e58d005c 	str	r0, [sp, #92]	; 0x5c
   1102c:	e59d105c 	ldr	r1, [sp, #92]	; 0x5c
   11030:	ebffff3c 	bl	10d28 <socket@plt>
   11034:	e59f1658 	ldr	r1, [pc, #1624]	; 11694 <main+0x810>
   11038:	e5810000 	str	r0, [r1]
   1103c:	ea000005 	b	11058 <main+0x1d4>
   11040:	e59f0648 	ldr	r0, [pc, #1608]	; 11690 <main+0x80c>
   11044:	e59f1628 	ldr	r1, [pc, #1576]	; 11674 <main+0x7f0>
   11048:	e59f2628 	ldr	r2, [pc, #1576]	; 11678 <main+0x7f4>
   1104c:	ebffff35 	bl	10d28 <socket@plt>
   11050:	e59f1634 	ldr	r1, [pc, #1588]	; 1168c <main+0x808>
   11054:	e5810000 	str	r0, [r1]
   11058:	e59f063c 	ldr	r0, [pc, #1596]	; 1169c <main+0x818>
   1105c:	e5900000 	ldr	r0, [r0]
   11060:	e3500000 	cmp	r0, #0
   11064:	aa000001 	bge	11070 <main+0x1ec>
   11068:	e59f0630 	ldr	r0, [pc, #1584]	; 116a0 <main+0x81c>
   1106c:	eb000261 	bl	119f8 <fatal>
   11070:	e59f0600 	ldr	r0, [pc, #1536]	; 11678 <main+0x7f4>
   11074:	e3a01010 	mov	r1, #16
   11078:	e50b10e4 	str	r1, [fp, #-228]	; 0xffffff1c
   1107c:	e59f1628 	ldr	r1, [pc, #1576]	; 116ac <main+0x828>
   11080:	e3a020ad 	mov	r2, #173	; 0xad
   11084:	e3822c01 	orr	r2, r2, #256	; 0x100
   11088:	e58d0058 	str	r0, [sp, #88]	; 0x58
   1108c:	e1a00001 	mov	r0, r1
   11090:	e1a01002 	mov	r1, r2
   11094:	ebfffec0 	bl	10b9c <printf@plt>
   11098:	e3a01000 	mov	r1, #0
   1109c:	e50b10d4 	str	r1, [fp, #-212]	; 0xffffff2c
   110a0:	e50b10d8 	str	r1, [fp, #-216]	; 0xffffff28
   110a4:	e50b10dc 	str	r1, [fp, #-220]	; 0xffffff24
   110a8:	e50b10e0 	str	r1, [fp, #-224]	; 0xffffff20
   110ac:	e3a01002 	mov	r1, #2
   110b0:	e59d2080 	ldr	r2, [sp, #128]	; 0x80
   110b4:	e1c210be 	strh	r1, [r2, #14]
   110b8:	e59d1058 	ldr	r1, [sp, #88]	; 0x58
   110bc:	e58d0054 	str	r0, [sp, #84]	; 0x54
   110c0:	e1a00001 	mov	r0, r1
   110c4:	ebffff05 	bl	10ce0 <htonl@plt>
   110c8:	e50b00cc 	str	r0, [fp, #-204]	; 0xffffff34
   110cc:	e51b0018 	ldr	r0, [fp, #-24]	; 0xffffffe8
   110d0:	e6ff0070 	uxth	r0, r0
   110d4:	ebfffec2 	bl	10be4 <htons@plt>
   110d8:	e59f25c4 	ldr	r2, [pc, #1476]	; 116a4 <main+0x820>
   110dc:	e59f15c4 	ldr	r1, [pc, #1476]	; 116a8 <main+0x824>
   110e0:	e59de080 	ldr	lr, [sp, #128]	; 0x80
   110e4:	e1ce01b0 	strh	r0, [lr, #16]
   110e8:	e5910000 	ldr	r0, [r1]
   110ec:	e24b10d0 	sub	r1, fp, #208	; 0xd0
   110f0:	ebfffee8 	bl	10c98 <bind@plt>
   110f4:	e50b00e8 	str	r0, [fp, #-232]	; 0xffffff18
   110f8:	e51b00e8 	ldr	r0, [fp, #-232]	; 0xffffff18
   110fc:	e3500000 	cmp	r0, #0
   11100:	aa000001 	bge	1110c <main+0x288>
   11104:	e59f05a4 	ldr	r0, [pc, #1444]	; 116b0 <main+0x82c>
   11108:	eb00023a 	bl	119f8 <fatal>
   1110c:	e51b001c 	ldr	r0, [fp, #-28]	; 0xffffffe4
   11110:	e3500000 	cmp	r0, #0
   11114:	0a000019 	beq	11180 <main+0x2fc>
   11118:	e59f1554 	ldr	r1, [pc, #1364]	; 11674 <main+0x7f0>
   1111c:	e59f0590 	ldr	r0, [pc, #1424]	; 116b4 <main+0x830>
   11120:	e5900000 	ldr	r0, [r0]
   11124:	ebfffef0 	bl	10cec <listen@plt>
   11128:	e50b00ec 	str	r0, [fp, #-236]	; 0xffffff14
   1112c:	e51b00ec 	ldr	r0, [fp, #-236]	; 0xffffff14
   11130:	e3500000 	cmp	r0, #0
   11134:	aa000001 	bge	11140 <main+0x2bc>
   11138:	e59f0578 	ldr	r0, [pc, #1400]	; 116b8 <main+0x834>
   1113c:	eb00022d 	bl	119f8 <fatal>
   11140:	e59f0530 	ldr	r0, [pc, #1328]	; 11678 <main+0x7f4>
   11144:	e59f1574 	ldr	r1, [pc, #1396]	; 116c0 <main+0x83c>
   11148:	e5911000 	ldr	r1, [r1]
   1114c:	e58d0050 	str	r0, [sp, #80]	; 0x50
   11150:	e1a00001 	mov	r0, r1
   11154:	e59d1050 	ldr	r1, [sp, #80]	; 0x50
   11158:	e59d2050 	ldr	r2, [sp, #80]	; 0x50
   1115c:	ebfffea3 	bl	10bf0 <accept@plt>
   11160:	e59f1554 	ldr	r1, [pc, #1364]	; 116bc <main+0x838>
   11164:	e5810000 	str	r0, [r1]
   11168:	e5910000 	ldr	r0, [r1]
   1116c:	e3500000 	cmp	r0, #0
   11170:	aa000001 	bge	1117c <main+0x2f8>
   11174:	e59f0548 	ldr	r0, [pc, #1352]	; 116c4 <main+0x840>
   11178:	eb00021e 	bl	119f8 <fatal>
   1117c:	eaffffff 	b	11180 <main+0x2fc>
   11180:	e59f054c 	ldr	r0, [pc, #1356]	; 116d4 <main+0x850>
   11184:	e59f154c 	ldr	r1, [pc, #1356]	; 116d8 <main+0x854>
   11188:	ebfffe83 	bl	10b9c <printf@plt>
   1118c:	e59f1534 	ldr	r1, [pc, #1332]	; 116c8 <main+0x844>
   11190:	e59f2534 	ldr	r2, [pc, #1332]	; 116cc <main+0x848>
   11194:	e59fe534 	ldr	lr, [pc, #1332]	; 116d0 <main+0x84c>
   11198:	e59ee000 	ldr	lr, [lr]
   1119c:	e58d004c 	str	r0, [sp, #76]	; 0x4c
   111a0:	e1a0000e 	mov	r0, lr
   111a4:	ebfffebe 	bl	10ca4 <fcntl@plt>
   111a8:	e50b00f0 	str	r0, [fp, #-240]	; 0xffffff10
   111ac:	e51b00f0 	ldr	r0, [fp, #-240]	; 0xffffff10
   111b0:	e3500000 	cmp	r0, #0
   111b4:	aa000001 	bge	111c0 <main+0x33c>
   111b8:	e59f051c 	ldr	r0, [pc, #1308]	; 116dc <main+0x858>
   111bc:	eb00020d 	bl	119f8 <fatal>
   111c0:	e51b001c 	ldr	r0, [fp, #-28]	; 0xffffffe4
   111c4:	e3500000 	cmp	r0, #0
   111c8:	0a00000b 	beq	111fc <main+0x378>
   111cc:	e59f14f4 	ldr	r1, [pc, #1268]	; 116c8 <main+0x844>
   111d0:	e59f24f4 	ldr	r2, [pc, #1268]	; 116cc <main+0x848>
   111d4:	e59f0504 	ldr	r0, [pc, #1284]	; 116e0 <main+0x85c>
   111d8:	e5900000 	ldr	r0, [r0]
   111dc:	ebfffeb0 	bl	10ca4 <fcntl@plt>
   111e0:	e50b00f0 	str	r0, [fp, #-240]	; 0xffffff10
   111e4:	e51b00f0 	ldr	r0, [fp, #-240]	; 0xffffff10
   111e8:	e3500000 	cmp	r0, #0
   111ec:	aa000001 	bge	111f8 <main+0x374>
   111f0:	e59f04ec 	ldr	r0, [pc, #1260]	; 116e4 <main+0x860>
   111f4:	eb0001ff 	bl	119f8 <fatal>
   111f8:	eaffffff 	b	111fc <main+0x378>
   111fc:	e59f04e4 	ldr	r0, [pc, #1252]	; 116e8 <main+0x864>
   11200:	e59f14e4 	ldr	r1, [pc, #1252]	; 116ec <main+0x868>
   11204:	e59f246c 	ldr	r2, [pc, #1132]	; 11678 <main+0x7f4>
   11208:	e58d20b4 	str	r2, [sp, #180]	; 0xb4
   1120c:	ebfffe62 	bl	10b9c <printf@plt>
   11210:	e58d0048 	str	r0, [sp, #72]	; 0x48
   11214:	e59d00b4 	ldr	r0, [sp, #180]	; 0xb4
   11218:	e2801001 	add	r1, r0, #1
   1121c:	e58d10b4 	str	r1, [sp, #180]	; 0xb4
   11220:	e3500064 	cmp	r0, #100	; 0x64
   11224:	aa00010d 	bge	11660 <main+0x7dc>
   11228:	e59f0448 	ldr	r0, [pc, #1096]	; 11678 <main+0x7f4>
   1122c:	e58d00a8 	str	r0, [sp, #168]	; 0xa8
   11230:	e51b0020 	ldr	r0, [fp, #-32]	; 0xffffffe0
   11234:	e3500000 	cmp	r0, #0
   11238:	0a00000b 	beq	1126c <main+0x3e8>
   1123c:	e59f24cc 	ldr	r2, [pc, #1228]	; 11710 <main+0x88c>
   11240:	e59f3430 	ldr	r3, [pc, #1072]	; 11678 <main+0x7f4>
   11244:	e28d10b8 	add	r1, sp, #184	; 0xb8
   11248:	e59f04cc 	ldr	r0, [pc, #1228]	; 1171c <main+0x898>
   1124c:	e5900000 	ldr	r0, [r0]
   11250:	e24bc0e0 	sub	ip, fp, #224	; 0xe0
   11254:	e58dc000 	str	ip, [sp]
   11258:	e24bc0e4 	sub	ip, fp, #228	; 0xe4
   1125c:	e58dc004 	str	ip, [sp, #4]
   11260:	ebfffe5c 	bl	10bd8 <recvfrom@plt>
   11264:	e58d00a8 	str	r0, [sp, #168]	; 0xa8
   11268:	ea00003f 	b	1136c <main+0x4e8>
   1126c:	e59f047c 	ldr	r0, [pc, #1148]	; 116f0 <main+0x86c>
   11270:	e5900000 	ldr	r0, [r0]
   11274:	e3500000 	cmp	r0, #0
   11278:	0a00000d 	beq	112b4 <main+0x430>
   1127c:	e59f248c 	ldr	r2, [pc, #1164]	; 11710 <main+0x88c>
   11280:	e59f33f0 	ldr	r3, [pc, #1008]	; 11678 <main+0x7f4>
   11284:	e28d10b8 	add	r1, sp, #184	; 0xb8
   11288:	e59f0484 	ldr	r0, [pc, #1156]	; 11714 <main+0x890>
   1128c:	e5900000 	ldr	r0, [r0]
   11290:	ebfffead 	bl	10d4c <recv@plt>
   11294:	e58d00a8 	str	r0, [sp, #168]	; 0xa8
   11298:	e59d00a8 	ldr	r0, [sp, #168]	; 0xa8
   1129c:	e3500000 	cmp	r0, #0
   112a0:	1a000002 	bne	112b0 <main+0x42c>
   112a4:	e59f03cc 	ldr	r0, [pc, #972]	; 11678 <main+0x7f4>
   112a8:	e59f1468 	ldr	r1, [pc, #1128]	; 11718 <main+0x894>
   112ac:	e5810000 	str	r0, [r1]
   112b0:	ea00002c 	b	11368 <main+0x4e4>
   112b4:	e59f03bc 	ldr	r0, [pc, #956]	; 11678 <main+0x7f4>
   112b8:	e59f1438 	ldr	r1, [pc, #1080]	; 116f8 <main+0x874>
   112bc:	e59f2438 	ldr	r2, [pc, #1080]	; 116fc <main+0x878>
   112c0:	e5820000 	str	r0, [r2]
   112c4:	e5911000 	ldr	r1, [r1]
   112c8:	e58d0044 	str	r0, [sp, #68]	; 0x44
   112cc:	e1a00001 	mov	r0, r1
   112d0:	e59d1044 	ldr	r1, [sp, #68]	; 0x44
   112d4:	e59d2044 	ldr	r2, [sp, #68]	; 0x44
   112d8:	ebfffe44 	bl	10bf0 <accept@plt>
   112dc:	e59f1410 	ldr	r1, [pc, #1040]	; 116f4 <main+0x870>
   112e0:	e5810000 	str	r0, [r1]
   112e4:	e5910000 	ldr	r0, [r1]
   112e8:	e3500000 	cmp	r0, #0
   112ec:	aa00000e 	bge	1132c <main+0x4a8>
   112f0:	ebfffe62 	bl	10c80 <__errno_location@plt>
   112f4:	e5900000 	ldr	r0, [r0]
   112f8:	e350000b 	cmp	r0, #11
   112fc:	0a000003 	beq	11310 <main+0x48c>
   11300:	ebfffe5e 	bl	10c80 <__errno_location@plt>
   11304:	e5900000 	ldr	r0, [r0]
   11308:	e350000b 	cmp	r0, #11
   1130c:	1a000003 	bne	11320 <main+0x49c>
   11310:	e59f0360 	ldr	r0, [pc, #864]	; 11678 <main+0x7f4>
   11314:	e59f13f0 	ldr	r1, [pc, #1008]	; 1170c <main+0x888>
   11318:	e5810000 	str	r0, [r1]
   1131c:	eaffffbc 	b	11214 <main+0x390>
   11320:	e59f03e0 	ldr	r0, [pc, #992]	; 11708 <main+0x884>
   11324:	eb0001b3 	bl	119f8 <fatal>
   11328:	ea00000d 	b	11364 <main+0x4e0>
   1132c:	e59f1394 	ldr	r1, [pc, #916]	; 116c8 <main+0x844>
   11330:	e59f2394 	ldr	r2, [pc, #916]	; 116cc <main+0x848>
   11334:	e59f03c4 	ldr	r0, [pc, #964]	; 11700 <main+0x87c>
   11338:	e5900000 	ldr	r0, [r0]
   1133c:	ebfffe58 	bl	10ca4 <fcntl@plt>
   11340:	e50b00f0 	str	r0, [fp, #-240]	; 0xffffff10
   11344:	e51b00f0 	ldr	r0, [fp, #-240]	; 0xffffff10
   11348:	e3500000 	cmp	r0, #0
   1134c:	aa000001 	bge	11358 <main+0x4d4>
   11350:	e59f03ac 	ldr	r0, [pc, #940]	; 11704 <main+0x880>
   11354:	eb0001a7 	bl	119f8 <fatal>
   11358:	eaffffad 	b	11214 <main+0x390>
   1135c:	424751ec 	submi	r5, r7, #236, 2	; 0x3b
   11360:	42c80000 	sbcmi	r0, r8, #0
   11364:	eaffffff 	b	11368 <main+0x4e4>
   11368:	eaffffff 	b	1136c <main+0x4e8>
   1136c:	e59d00a8 	ldr	r0, [sp, #168]	; 0xa8
   11370:	e3500000 	cmp	r0, #0
   11374:	da0000a2 	ble	11604 <main+0x780>
   11378:	e59f0390 	ldr	r0, [pc, #912]	; 11710 <main+0x88c>
   1137c:	e59d10a8 	ldr	r1, [sp, #168]	; 0xa8
   11380:	e1510000 	cmp	r1, r0
   11384:	2a00009e 	bcs	11604 <main+0x780>
   11388:	e59f0390 	ldr	r0, [pc, #912]	; 11720 <main+0x89c>
   1138c:	e59f2334 	ldr	r2, [pc, #820]	; 116c8 <main+0x844>
   11390:	e28d10b8 	add	r1, sp, #184	; 0xb8
   11394:	e59f32dc 	ldr	r3, [pc, #732]	; 11678 <main+0x7f4>
   11398:	e59dc0a8 	ldr	ip, [sp, #168]	; 0xa8
   1139c:	e28de0b8 	add	lr, sp, #184	; 0xb8
   113a0:	e3a04000 	mov	r4, #0
   113a4:	e7ce400c 	strb	r4, [lr, ip]
   113a8:	e58d30a4 	str	r3, [sp, #164]	; 0xa4
   113ac:	e58d30a0 	str	r3, [sp, #160]	; 0xa0
   113b0:	ebfffe5f 	bl	10d34 <strncmp@plt>
   113b4:	e3500000 	cmp	r0, #0
   113b8:	1a000018 	bne	11420 <main+0x59c>
   113bc:	e28d00b8 	add	r0, sp, #184	; 0xb8
   113c0:	eb0001a7 	bl	11a64 <websocket_handshake_response>
   113c4:	e59f32ac 	ldr	r3, [pc, #684]	; 11678 <main+0x7f4>
   113c8:	e59fe374 	ldr	lr, [pc, #884]	; 11744 <main+0x8c0>
   113cc:	e58d009c 	str	r0, [sp, #156]	; 0x9c
   113d0:	e59e0000 	ldr	r0, [lr]
   113d4:	e59d109c 	ldr	r1, [sp, #156]	; 0x9c
   113d8:	e59de09c 	ldr	lr, [sp, #156]	; 0x9c
   113dc:	e58d0040 	str	r0, [sp, #64]	; 0x40
   113e0:	e1a0000e 	mov	r0, lr
   113e4:	e58d303c 	str	r3, [sp, #60]	; 0x3c
   113e8:	e58d1038 	str	r1, [sp, #56]	; 0x38
   113ec:	ebfffe1d 	bl	10c68 <strlen@plt>
   113f0:	e59d1040 	ldr	r1, [sp, #64]	; 0x40
   113f4:	e58d0034 	str	r0, [sp, #52]	; 0x34
   113f8:	e1a00001 	mov	r0, r1
   113fc:	e59d1038 	ldr	r1, [sp, #56]	; 0x38
   11400:	e59d2034 	ldr	r2, [sp, #52]	; 0x34
   11404:	e59d303c 	ldr	r3, [sp, #60]	; 0x3c
   11408:	ebfffe55 	bl	10d64 <send@plt>
   1140c:	e59f1260 	ldr	r1, [pc, #608]	; 11674 <main+0x7f0>
   11410:	e59f2328 	ldr	r2, [pc, #808]	; 11740 <main+0x8bc>
   11414:	e5821000 	str	r1, [r2]
   11418:	e58d0030 	str	r0, [sp, #48]	; 0x30
   1141c:	eaffff7c 	b	11214 <main+0x390>
   11420:	e59f02fc 	ldr	r0, [pc, #764]	; 11724 <main+0x8a0>
   11424:	e5900000 	ldr	r0, [r0]
   11428:	e3500000 	cmp	r0, #0
   1142c:	0a000001 	beq	11438 <main+0x5b4>
   11430:	e28d00b8 	add	r0, sp, #184	; 0xb8
   11434:	eb0001f3 	bl	11c08 <decode_websocket_message>
   11438:	e59f12e8 	ldr	r1, [pc, #744]	; 11728 <main+0x8a4>
   1143c:	e28d00b8 	add	r0, sp, #184	; 0xb8
   11440:	ebfffdd2 	bl	10b90 <strstr@plt>
   11444:	e59f122c 	ldr	r1, [pc, #556]	; 11678 <main+0x7f4>
   11448:	e58d0098 	str	r0, [sp, #152]	; 0x98
   1144c:	e59d0098 	ldr	r0, [sp, #152]	; 0x98
   11450:	e1500001 	cmp	r0, r1
   11454:	0a000002 	beq	11464 <main+0x5e0>
   11458:	e59d0098 	ldr	r0, [sp, #152]	; 0x98
   1145c:	e3a01000 	mov	r1, #0
   11460:	e5c01001 	strb	r1, [r0, #1]
   11464:	e51b0024 	ldr	r0, [fp, #-36]	; 0xffffffdc
   11468:	e3500000 	cmp	r0, #0
   1146c:	0a000003 	beq	11480 <main+0x5fc>
   11470:	e59f02b4 	ldr	r0, [pc, #692]	; 1172c <main+0x8a8>
   11474:	e28d10b8 	add	r1, sp, #184	; 0xb8
   11478:	ebfffdc7 	bl	10b9c <printf@plt>
   1147c:	e58d002c 	str	r0, [sp, #44]	; 0x2c
   11480:	e28d00b8 	add	r0, sp, #184	; 0xb8
   11484:	e28d10a4 	add	r1, sp, #164	; 0xa4
   11488:	e28d20a0 	add	r2, sp, #160	; 0xa0
   1148c:	eb000229 	bl	11d38 <parse_json>
   11490:	e58d0094 	str	r0, [sp, #148]	; 0x94
   11494:	e59d00a0 	ldr	r0, [sp, #160]	; 0xa0
   11498:	e3500000 	cmp	r0, #0
   1149c:	0a00001f 	beq	11520 <main+0x69c>
   114a0:	e59f01d0 	ldr	r0, [pc, #464]	; 11678 <main+0x7f4>
   114a4:	e28d10b8 	add	r1, sp, #184	; 0xb8
   114a8:	e58d1028 	str	r1, [sp, #40]	; 0x28
   114ac:	ebfffdc3 	bl	10bc0 <time@plt>
   114b0:	e59f1258 	ldr	r1, [pc, #600]	; 11710 <main+0x88c>
   114b4:	e59f2278 	ldr	r2, [pc, #632]	; 11734 <main+0x8b0>
   114b8:	e59de028 	ldr	lr, [sp, #40]	; 0x28
   114bc:	e58d0024 	str	r0, [sp, #36]	; 0x24
   114c0:	e1a0000e 	mov	r0, lr
   114c4:	e59d3024 	ldr	r3, [sp, #36]	; 0x24
   114c8:	ebfffdef 	bl	10c8c <snprintf@plt>
   114cc:	e58d0090 	str	r0, [sp, #144]	; 0x90
   114d0:	e59d0080 	ldr	r0, [sp, #128]	; 0x80
   114d4:	e1d001b0 	ldrh	r0, [r0, #16]
   114d8:	ebfffe09 	bl	10d04 <ntohs@plt>
   114dc:	e6ff0070 	uxth	r0, r0
   114e0:	e2800001 	add	r0, r0, #1
   114e4:	e6ff0070 	uxth	r0, r0
   114e8:	ebfffdbd 	bl	10be4 <htons@plt>
   114ec:	e59f3184 	ldr	r3, [pc, #388]	; 11678 <main+0x7f4>
   114f0:	e28d10b8 	add	r1, sp, #184	; 0xb8
   114f4:	e59f2234 	ldr	r2, [pc, #564]	; 11730 <main+0x8ac>
   114f8:	e59de080 	ldr	lr, [sp, #128]	; 0x80
   114fc:	e1ce00b0 	strh	r0, [lr]
   11500:	e5920000 	ldr	r0, [r2]
   11504:	e59d2090 	ldr	r2, [sp, #144]	; 0x90
   11508:	e24bc0e0 	sub	ip, fp, #224	; 0xe0
   1150c:	e51b40e4 	ldr	r4, [fp, #-228]	; 0xffffff1c
   11510:	e58dc000 	str	ip, [sp]
   11514:	e58d4004 	str	r4, [sp, #4]
   11518:	ebfffded 	bl	10cd4 <sendto@plt>
   1151c:	e58d0020 	str	r0, [sp, #32]
   11520:	e59d0094 	ldr	r0, [sp, #148]	; 0x94
   11524:	e3500000 	cmp	r0, #0
   11528:	1a000032 	bne	115f8 <main+0x774>
   1152c:	e59f0144 	ldr	r0, [pc, #324]	; 11678 <main+0x7f4>
   11530:	e59d10a4 	ldr	r1, [sp, #164]	; 0xa4
   11534:	e5911014 	ldr	r1, [r1, #20]
   11538:	e1510000 	cmp	r1, r0
   1153c:	1a000002 	bne	1154c <main+0x6c8>
   11540:	e59d00a4 	ldr	r0, [sp, #164]	; 0xa4
   11544:	e58d001c 	str	r0, [sp, #28]
   11548:	ea000002 	b	11558 <main+0x6d4>
   1154c:	e59d00a4 	ldr	r0, [sp, #164]	; 0xa4
   11550:	e5900014 	ldr	r0, [r0, #20]
   11554:	e58d001c 	str	r0, [sp, #28]
   11558:	e59d001c 	ldr	r0, [sp, #28]
   1155c:	e58d008c 	str	r0, [sp, #140]	; 0x8c
   11560:	e51b0024 	ldr	r0, [fp, #-36]	; 0xffffffdc
   11564:	e3500000 	cmp	r0, #0
   11568:	0a000014 	beq	115c0 <main+0x73c>
   1156c:	e59f01c4 	ldr	r0, [pc, #452]	; 11738 <main+0x8b4>
   11570:	e59d108c 	ldr	r1, [sp, #140]	; 0x8c
   11574:	e5911008 	ldr	r1, [r1, #8]
   11578:	e59d208c 	ldr	r2, [sp, #140]	; 0x8c
   1157c:	ed920a00 	vldr	s0, [r2]
   11580:	eebd0ac0 	vcvt.s32.f32	s0, s0
   11584:	ee102a10 	vmov	r2, s0
   11588:	e59d308c 	ldr	r3, [sp, #140]	; 0x8c
   1158c:	ed930a01 	vldr	s0, [r3, #4]
   11590:	eebd0ac0 	vcvt.s32.f32	s0, s0
   11594:	ee103a10 	vmov	r3, s0
   11598:	e59dc08c 	ldr	ip, [sp, #140]	; 0x8c
   1159c:	ed9c0a03 	vldr	s0, [ip, #12]
   115a0:	eeb71ac0 	vcvt.f64.f32	d1, s0
   115a4:	e59dc08c 	ldr	ip, [sp, #140]	; 0x8c
   115a8:	ed9c0a04 	vldr	s0, [ip, #16]
   115ac:	eeb72ac0 	vcvt.f64.f32	d2, s0
   115b0:	ed8d1b00 	vstr	d1, [sp]
   115b4:	ed8d2b02 	vstr	d2, [sp, #8]
   115b8:	ebfffd77 	bl	10b9c <printf@plt>
   115bc:	e58d0018 	str	r0, [sp, #24]
   115c0:	e59f00b0 	ldr	r0, [pc, #176]	; 11678 <main+0x7f4>
   115c4:	e51b10c0 	ldr	r1, [fp, #-192]	; 0xffffff40
   115c8:	e1510000 	cmp	r1, r0
   115cc:	1a000002 	bne	115dc <main+0x758>
   115d0:	e59d00a4 	ldr	r0, [sp, #164]	; 0xa4
   115d4:	e50b00c0 	str	r0, [fp, #-192]	; 0xffffff40
   115d8:	ea000005 	b	115f4 <main+0x770>
   115dc:	e51b00bc 	ldr	r0, [fp, #-188]	; 0xffffff44
   115e0:	eb000327 	bl	12284 <free_command>
   115e4:	e51b00c0 	ldr	r0, [fp, #-192]	; 0xffffff40
   115e8:	e50b00bc 	str	r0, [fp, #-188]	; 0xffffff44
   115ec:	e59d00a4 	ldr	r0, [sp, #164]	; 0xa4
   115f0:	e50b00c0 	str	r0, [fp, #-192]	; 0xffffff40
   115f4:	ea000001 	b	11600 <main+0x77c>
   115f8:	e59d00a4 	ldr	r0, [sp, #164]	; 0xa4
   115fc:	eb000320 	bl	12284 <free_command>
   11600:	eaffffff 	b	11604 <main+0x780>
   11604:	e51b00bc 	ldr	r0, [fp, #-188]	; 0xffffff44
   11608:	e51b10c0 	ldr	r1, [fp, #-192]	; 0xffffff40
   1160c:	e59d20a8 	ldr	r2, [sp, #168]	; 0xa8
   11610:	eb00032e 	bl	122d0 <fill_buffer>
   11614:	e58d0088 	str	r0, [sp, #136]	; 0x88
   11618:	e59d0088 	ldr	r0, [sp, #136]	; 0x88
   1161c:	e3500000 	cmp	r0, #0
   11620:	da00000a 	ble	11650 <main+0x7cc>
   11624:	e59f004c 	ldr	r0, [pc, #76]	; 11678 <main+0x7f4>
   11628:	e51b10c0 	ldr	r1, [fp, #-192]	; 0xffffff40
   1162c:	e1510000 	cmp	r1, r0
   11630:	0a000005 	beq	1164c <main+0x7c8>
   11634:	e51b00bc 	ldr	r0, [fp, #-188]	; 0xffffff44
   11638:	eb000311 	bl	12284 <free_command>
   1163c:	e59f0034 	ldr	r0, [pc, #52]	; 11678 <main+0x7f4>
   11640:	e51be0c0 	ldr	lr, [fp, #-192]	; 0xffffff40
   11644:	e50be0bc 	str	lr, [fp, #-188]	; 0xffffff44
   11648:	e50b00c0 	str	r0, [fp, #-192]	; 0xffffff40
   1164c:	eaffffff 	b	11650 <main+0x7cc>
   11650:	e59f00e4 	ldr	r0, [pc, #228]	; 1173c <main+0x8b8>
   11654:	ebfffd6e 	bl	10c14 <usleep@plt>
   11658:	e58d0014 	str	r0, [sp, #20]
   1165c:	eafffeec 	b	11214 <main+0x390>
   11660:	e59f0010 	ldr	r0, [pc, #16]	; 11678 <main+0x7f4>
   11664:	eb0000c0 	bl	1196c <terminate>
   11668:	e59f0008 	ldr	r0, [pc, #8]	; 11678 <main+0x7f4>
   1166c:	e24bd008 	sub	sp, fp, #8
   11670:	e8bd8c10 	pop	{r4, sl, fp, pc}
   11674:	00000001 	andeq	r0, r0, r1
   11678:	00000000 	andeq	r0, r0, r0
   1167c:	00013148 	andeq	r3, r1, r8, asr #2
   11680:	00000020 	andeq	r0, r0, r0, lsr #32
   11684:	00013138 	andeq	r3, r1, r8, lsr r1
   11688:	0000018f 	andeq	r0, r0, pc, lsl #3
   1168c:	00024118 	andeq	r4, r2, r8, lsl r1
   11690:	00000002 	andeq	r0, r0, r2
   11694:	00024118 	andeq	r4, r2, r8, lsl r1
   11698:	00000011 	andeq	r0, r0, r1, lsl r0
   1169c:	00024118 	andeq	r4, r2, r8, lsl r1
   116a0:	00013162 	andeq	r3, r1, r2, ror #2
   116a4:	00000010 	andeq	r0, r0, r0, lsl r0
   116a8:	00024118 	andeq	r4, r2, r8, lsl r1
   116ac:	0001317b 	andeq	r3, r1, fp, ror r1
   116b0:	0001318a 	andeq	r3, r1, sl, lsl #3
   116b4:	00024118 	andeq	r4, r2, r8, lsl r1
   116b8:	000131a1 	andeq	r3, r1, r1, lsr #3
   116bc:	0002411c 	andeq	r4, r2, ip, lsl r1
   116c0:	00024118 	andeq	r4, r2, r8, lsl r1
   116c4:	000131b3 			; <UNDEFINED> instruction: 0x000131b3
   116c8:	00000004 	andeq	r0, r0, r4
   116cc:	00000800 	andeq	r0, r0, r0, lsl #16
   116d0:	00024118 	andeq	r4, r2, r8, lsl r1
   116d4:	0001317b 	andeq	r3, r1, fp, ror r1
   116d8:	000001c6 	andeq	r0, r0, r6, asr #3
   116dc:	000131d4 	ldrdeq	r3, [r1], -r4
   116e0:	0002411c 	andeq	r4, r2, ip, lsl r1
   116e4:	000131d4 	ldrdeq	r3, [r1], -r4
   116e8:	0001317b 	andeq	r3, r1, fp, ror r1
   116ec:	000001d9 	ldrdeq	r0, [r0], -r9
   116f0:	0002411c 	andeq	r4, r2, ip, lsl r1
   116f4:	0002411c 	andeq	r4, r2, ip, lsl r1
   116f8:	00024118 	andeq	r4, r2, r8, lsl r1
   116fc:	00024120 	andeq	r4, r2, r0, lsr #2
   11700:	0002411c 	andeq	r4, r2, ip, lsl r1
   11704:	000131d4 	ldrdeq	r3, [r1], -r4
   11708:	000131b3 			; <UNDEFINED> instruction: 0x000131b3
   1170c:	0002411c 	andeq	r4, r2, ip, lsl r1
   11710:	00004e20 	andeq	r4, r0, r0, lsr #28
   11714:	0002411c 	andeq	r4, r2, ip, lsl r1
   11718:	0002411c 	andeq	r4, r2, ip, lsl r1
   1171c:	00024118 	andeq	r4, r2, r8, lsl r1
   11720:	000131f2 	strdeq	r3, [r1], -r2
   11724:	00024120 	andeq	r4, r2, r0, lsr #2
   11728:	000131f7 	strdeq	r3, [r1], -r7
   1172c:	00013447 	andeq	r3, r1, r7, asr #8
   11730:	00024118 	andeq	r4, r2, r8, lsl r1
   11734:	000131f9 	strdeq	r3, [r1], -r9
   11738:	00013206 	andeq	r3, r1, r6, lsl #4
   1173c:	000186a0 	andeq	r8, r1, r0, lsr #13
   11740:	00024120 	andeq	r4, r2, r0, lsr #2
   11744:	0002411c 	andeq	r4, r2, ip, lsl r1
   11748:	0001196c 	andeq	r1, r1, ip, ror #18

0001174c <get_args>:
   1174c:	e92d4c10 	push	{r4, sl, fp, lr}
   11750:	e28db008 	add	fp, sp, #8
   11754:	e24dd090 	sub	sp, sp, #144	; 0x90
   11758:	e59f31e0 	ldr	r3, [pc, #480]	; 11940 <get_args+0x1f4>
   1175c:	e59fc1e0 	ldr	ip, [pc, #480]	; 11944 <get_args+0x1f8>
   11760:	e59fe1e0 	ldr	lr, [pc, #480]	; 11948 <get_args+0x1fc>
   11764:	e59f41e0 	ldr	r4, [pc, #480]	; 1194c <get_args+0x200>
   11768:	e50b100c 	str	r1, [fp, #-12]
   1176c:	e50b2010 	str	r2, [fp, #-16]
   11770:	e28d1028 	add	r1, sp, #40	; 0x28
   11774:	e58d001c 	str	r0, [sp, #28]
   11778:	e1a00001 	mov	r0, r1
   1177c:	e1a0100e 	mov	r1, lr
   11780:	e1a02004 	mov	r2, r4
   11784:	e58dc018 	str	ip, [sp, #24]
   11788:	e58d3014 	str	r3, [sp, #20]
   1178c:	ebfffd08 	bl	10bb4 <memcpy@plt>
   11790:	e59d0018 	ldr	r0, [sp, #24]
   11794:	e59d101c 	ldr	r1, [sp, #28]
   11798:	e581000c 	str	r0, [r1, #12]
   1179c:	e59d2014 	ldr	r2, [sp, #20]
   117a0:	e5812000 	str	r2, [r1]
   117a4:	e5812004 	str	r2, [r1, #4]
   117a8:	e5812008 	str	r2, [r1, #8]
   117ac:	e58d2020 	str	r2, [sp, #32]
   117b0:	e59f2198 	ldr	r2, [pc, #408]	; 11950 <get_args+0x204>
   117b4:	e28d3028 	add	r3, sp, #40	; 0x28
   117b8:	e51b000c 	ldr	r0, [fp, #-12]
   117bc:	e51b1010 	ldr	r1, [fp, #-16]
   117c0:	e28dc020 	add	ip, sp, #32
   117c4:	e58dc000 	str	ip, [sp]
   117c8:	ebfffd20 	bl	10c50 <getopt_long@plt>
   117cc:	e58d0024 	str	r0, [sp, #36]	; 0x24
   117d0:	e59d0024 	ldr	r0, [sp, #36]	; 0x24
   117d4:	e3700001 	cmn	r0, #1
   117d8:	1a000000 	bne	117e0 <get_args+0x94>
   117dc:	ea00003a 	b	118cc <get_args+0x180>
   117e0:	e59d0024 	ldr	r0, [sp, #36]	; 0x24
   117e4:	e2400068 	sub	r0, r0, #104	; 0x68
   117e8:	e350000e 	cmp	r0, #14
   117ec:	e58d0010 	str	r0, [sp, #16]
   117f0:	8a000029 	bhi	1189c <get_args+0x150>
   117f4:	e28f0008 	add	r0, pc, #8
   117f8:	e59d1010 	ldr	r1, [sp, #16]
   117fc:	e7900101 	ldr	r0, [r0, r1, lsl #2]
   11800:	e1a0f000 	mov	pc, r0
   11804:	00011840 	andeq	r1, r1, r0, asr #16
   11808:	0001189c 	muleq	r1, ip, r8
   1180c:	0001189c 	muleq	r1, ip, r8
   11810:	0001189c 	muleq	r1, ip, r8
   11814:	0001189c 	muleq	r1, ip, r8
   11818:	0001189c 	muleq	r1, ip, r8
   1181c:	0001189c 	muleq	r1, ip, r8
   11820:	0001189c 	muleq	r1, ip, r8
   11824:	00011864 	andeq	r1, r1, r4, ror #16
   11828:	0001189c 	muleq	r1, ip, r8
   1182c:	0001189c 	muleq	r1, ip, r8
   11830:	0001189c 	muleq	r1, ip, r8
   11834:	0001187c 	andeq	r1, r1, ip, ror r8
   11838:	0001188c 	andeq	r1, r1, ip, lsl #17
   1183c:	00011854 	andeq	r1, r1, r4, asr r8
   11840:	e51b0010 	ldr	r0, [fp, #-16]
   11844:	e5900000 	ldr	r0, [r0]
   11848:	eb0005f7 	bl	1302c <print_usage>
   1184c:	e59f00ec 	ldr	r0, [pc, #236]	; 11940 <get_args+0x1f4>
   11850:	ebfffd01 	bl	10c5c <exit@plt>
   11854:	e59f00f8 	ldr	r0, [pc, #248]	; 11954 <get_args+0x208>
   11858:	e59d101c 	ldr	r1, [sp, #28]
   1185c:	e5810000 	str	r0, [r1]
   11860:	ea000018 	b	118c8 <get_args+0x17c>
   11864:	e59f00ec 	ldr	r0, [pc, #236]	; 11958 <get_args+0x20c>
   11868:	e5900000 	ldr	r0, [r0]
   1186c:	ebfffd27 	bl	10d10 <atoi@plt>
   11870:	e59de01c 	ldr	lr, [sp, #28]
   11874:	e58e000c 	str	r0, [lr, #12]
   11878:	ea000012 	b	118c8 <get_args+0x17c>
   1187c:	e59f00d0 	ldr	r0, [pc, #208]	; 11954 <get_args+0x208>
   11880:	e59d101c 	ldr	r1, [sp, #28]
   11884:	e5810008 	str	r0, [r1, #8]
   11888:	ea00000e 	b	118c8 <get_args+0x17c>
   1188c:	e59f00c0 	ldr	r0, [pc, #192]	; 11954 <get_args+0x208>
   11890:	e59d101c 	ldr	r1, [sp, #28]
   11894:	e5810004 	str	r0, [r1, #4]
   11898:	ea00000a 	b	118c8 <get_args+0x17c>
   1189c:	e59f10b8 	ldr	r1, [pc, #184]	; 1195c <get_args+0x210>
   118a0:	e59f00b8 	ldr	r0, [pc, #184]	; 11960 <get_args+0x214>
   118a4:	e5900000 	ldr	r0, [r0]
   118a8:	ebfffcf1 	bl	10c74 <fprintf@plt>
   118ac:	e51b1010 	ldr	r1, [fp, #-16]
   118b0:	e5911000 	ldr	r1, [r1]
   118b4:	e58d000c 	str	r0, [sp, #12]
   118b8:	e1a00001 	mov	r0, r1
   118bc:	eb0005da 	bl	1302c <print_usage>
   118c0:	e59f008c 	ldr	r0, [pc, #140]	; 11954 <get_args+0x208>
   118c4:	ebfffce4 	bl	10c5c <exit@plt>
   118c8:	eaffffb8 	b	117b0 <get_args+0x64>
   118cc:	e59d001c 	ldr	r0, [sp, #28]
   118d0:	e5901008 	ldr	r1, [r0, #8]
   118d4:	e3510000 	cmp	r1, #0
   118d8:	0a00000b 	beq	1190c <get_args+0x1c0>
   118dc:	e59d001c 	ldr	r0, [sp, #28]
   118e0:	e5901004 	ldr	r1, [r0, #4]
   118e4:	e3510000 	cmp	r1, #0
   118e8:	0a000007 	beq	1190c <get_args+0x1c0>
   118ec:	e59f1070 	ldr	r1, [pc, #112]	; 11964 <get_args+0x218>
   118f0:	e59f0070 	ldr	r0, [pc, #112]	; 11968 <get_args+0x21c>
   118f4:	e5900000 	ldr	r0, [r0]
   118f8:	ebfffcdd 	bl	10c74 <fprintf@plt>
   118fc:	e59f1050 	ldr	r1, [pc, #80]	; 11954 <get_args+0x208>
   11900:	e58d0008 	str	r0, [sp, #8]
   11904:	e1a00001 	mov	r0, r1
   11908:	ebfffcd3 	bl	10c5c <exit@plt>
   1190c:	e59d001c 	ldr	r0, [sp, #28]
   11910:	e5901008 	ldr	r1, [r0, #8]
   11914:	e3510000 	cmp	r1, #0
   11918:	1a000006 	bne	11938 <get_args+0x1ec>
   1191c:	e59d001c 	ldr	r0, [sp, #28]
   11920:	e5901004 	ldr	r1, [r0, #4]
   11924:	e3510000 	cmp	r1, #0
   11928:	1a000002 	bne	11938 <get_args+0x1ec>
   1192c:	e59f0020 	ldr	r0, [pc, #32]	; 11954 <get_args+0x208>
   11930:	e59d101c 	ldr	r1, [sp, #28]
   11934:	e5810004 	str	r0, [r1, #4]
   11938:	e24bd008 	sub	sp, fp, #8
   1193c:	e8bd8c10 	pop	{r4, sl, fp, pc}
   11940:	00000000 	andeq	r0, r0, r0
   11944:	00003039 	andeq	r3, r0, r9, lsr r0
   11948:	00013730 	andeq	r3, r1, r0, lsr r7
   1194c:	00000060 	andeq	r0, r0, r0, rrx
   11950:	000135d4 	ldrdeq	r3, [r1], -r4
   11954:	00000001 	andeq	r0, r0, r1
   11958:	00024110 	andeq	r4, r2, r0, lsl r1
   1195c:	000135db 	ldrdeq	r3, [r1], -fp
   11960:	00024108 	andeq	r4, r2, r8, lsl #2
   11964:	000135eb 	andeq	r3, r1, fp, ror #11
   11968:	00024108 	andeq	r4, r2, r8, lsl #2

0001196c <terminate>:
   1196c:	e92d4800 	push	{fp, lr}
   11970:	e1a0b00d 	mov	fp, sp
   11974:	e24dd018 	sub	sp, sp, #24
   11978:	e59f1064 	ldr	r1, [pc, #100]	; 119e4 <terminate+0x78>
   1197c:	e50b0004 	str	r0, [fp, #-4]
   11980:	e51b0004 	ldr	r0, [fp, #-4]
   11984:	e50b0008 	str	r0, [fp, #-8]
   11988:	e1a00001 	mov	r0, r1
   1198c:	e51b1008 	ldr	r1, [fp, #-8]
   11990:	ebfffc81 	bl	10b9c <printf@plt>
   11994:	e59f1044 	ldr	r1, [pc, #68]	; 119e0 <terminate+0x74>
   11998:	e5911000 	ldr	r1, [r1]
   1199c:	e3510000 	cmp	r1, #0
   119a0:	e58d000c 	str	r0, [sp, #12]
   119a4:	0a000003 	beq	119b8 <terminate+0x4c>
   119a8:	e59f0038 	ldr	r0, [pc, #56]	; 119e8 <terminate+0x7c>
   119ac:	e5900000 	ldr	r0, [r0]
   119b0:	ebfffce8 	bl	10d58 <close@plt>
   119b4:	e58d0008 	str	r0, [sp, #8]
   119b8:	e59f002c 	ldr	r0, [pc, #44]	; 119ec <terminate+0x80>
   119bc:	e5900000 	ldr	r0, [r0]
   119c0:	e3500000 	cmp	r0, #0
   119c4:	0a000003 	beq	119d8 <terminate+0x6c>
   119c8:	e59f0020 	ldr	r0, [pc, #32]	; 119f0 <terminate+0x84>
   119cc:	e5900000 	ldr	r0, [r0]
   119d0:	ebfffce0 	bl	10d58 <close@plt>
   119d4:	e58d0004 	str	r0, [sp, #4]
   119d8:	e59f0014 	ldr	r0, [pc, #20]	; 119f4 <terminate+0x88>
   119dc:	ebfffc9e 	bl	10c5c <exit@plt>
   119e0:	0002411c 	andeq	r4, r2, ip, lsl r1
   119e4:	00013314 	andeq	r3, r1, r4, lsl r3
   119e8:	0002411c 	andeq	r4, r2, ip, lsl r1
   119ec:	00024118 	andeq	r4, r2, r8, lsl r1
   119f0:	00024118 	andeq	r4, r2, r8, lsl r1
   119f4:	00000001 	andeq	r0, r0, r1

000119f8 <fatal>:
   119f8:	e24dd00c 	sub	sp, sp, #12
   119fc:	e92d4800 	push	{fp, lr}
   11a00:	e1a0b00d 	mov	fp, sp
   11a04:	e24dd014 	sub	sp, sp, #20
   11a08:	e58b3010 	str	r3, [fp, #16]
   11a0c:	e58b200c 	str	r2, [fp, #12]
   11a10:	e58b1008 	str	r1, [fp, #8]
   11a14:	e50b0004 	str	r0, [fp, #-4]
   11a18:	e28b0008 	add	r0, fp, #8
   11a1c:	e50b0008 	str	r0, [fp, #-8]
   11a20:	e59f0038 	ldr	r0, [pc, #56]	; 11a60 <fatal+0x68>
   11a24:	e5900000 	ldr	r0, [r0]
   11a28:	e51b1004 	ldr	r1, [fp, #-4]
   11a2c:	e51b2008 	ldr	r2, [fp, #-8]
   11a30:	ebfffcb0 	bl	10cf8 <vfprintf@plt>
   11a34:	e59f1020 	ldr	r1, [pc, #32]	; 11a5c <fatal+0x64>
   11a38:	e24b2008 	sub	r2, fp, #8
   11a3c:	e58d0008 	str	r0, [sp, #8]
   11a40:	e1a00001 	mov	r0, r1
   11a44:	e58d2004 	str	r2, [sp, #4]
   11a48:	ebffffc7 	bl	1196c <terminate>
   11a4c:	e1a0d00b 	mov	sp, fp
   11a50:	e8bd4800 	pop	{fp, lr}
   11a54:	e28dd00c 	add	sp, sp, #12
   11a58:	e12fff1e 	bx	lr
   11a5c:	00000000 	andeq	r0, r0, r0
   11a60:	00024108 	andeq	r4, r2, r8, lsl #2

00011a64 <websocket_handshake_response>:
   11a64:	e92d4830 	push	{r4, r5, fp, lr}
   11a68:	e28db008 	add	fp, sp, #8
   11a6c:	e24ddf4a 	sub	sp, sp, #296	; 0x128
   11a70:	e59f1174 	ldr	r1, [pc, #372]	; 11bec <websocket_handshake_response+0x188>
   11a74:	e59f2174 	ldr	r2, [pc, #372]	; 11bf0 <websocket_handshake_response+0x18c>
   11a78:	e59f3174 	ldr	r3, [pc, #372]	; 11bf4 <websocket_handshake_response+0x190>
   11a7c:	e24bc070 	sub	ip, fp, #112	; 0x70
   11a80:	e50b000c 	str	r0, [fp, #-12]
   11a84:	e59f016c 	ldr	r0, [pc, #364]	; 11bf8 <websocket_handshake_response+0x194>
   11a88:	e50b0010 	str	r0, [fp, #-16]
   11a8c:	e51be00c 	ldr	lr, [fp, #-12]
   11a90:	e58d0040 	str	r0, [sp, #64]	; 0x40
   11a94:	e1a0000e 	mov	r0, lr
   11a98:	e59de040 	ldr	lr, [sp, #64]	; 0x40
   11a9c:	e58d103c 	str	r1, [sp, #60]	; 0x3c
   11aa0:	e1a0100e 	mov	r1, lr
   11aa4:	e58dc038 	str	ip, [sp, #56]	; 0x38
   11aa8:	e58d2034 	str	r2, [sp, #52]	; 0x34
   11aac:	e58d3030 	str	r3, [sp, #48]	; 0x30
   11ab0:	ebfffc36 	bl	10b90 <strstr@plt>
   11ab4:	e50b0014 	str	r0, [fp, #-20]	; 0xffffffec
   11ab8:	e51b0014 	ldr	r0, [fp, #-20]	; 0xffffffec
   11abc:	e59f1138 	ldr	r1, [pc, #312]	; 11bfc <websocket_handshake_response+0x198>
   11ac0:	ebfffc32 	bl	10b90 <strstr@plt>
   11ac4:	e51b1014 	ldr	r1, [fp, #-20]	; 0xffffffec
   11ac8:	e0400001 	sub	r0, r0, r1
   11acc:	e2400014 	sub	r0, r0, #20
   11ad0:	e50b002c 	str	r0, [fp, #-44]	; 0xffffffd4
   11ad4:	e51b0014 	ldr	r0, [fp, #-20]	; 0xffffffec
   11ad8:	e2800013 	add	r0, r0, #19
   11adc:	e50b0030 	str	r0, [fp, #-48]	; 0xffffffd0
   11ae0:	e51b1030 	ldr	r1, [fp, #-48]	; 0xffffffd0
   11ae4:	e51b202c 	ldr	r2, [fp, #-44]	; 0xffffffd4
   11ae8:	e24b0070 	sub	r0, fp, #112	; 0x70
   11aec:	e58d002c 	str	r0, [sp, #44]	; 0x2c
   11af0:	ebfffc71 	bl	10cbc <strncpy@plt>
   11af4:	e51b102c 	ldr	r1, [fp, #-44]	; 0xffffffd4
   11af8:	e3a02000 	mov	r2, #0
   11afc:	e59d302c 	ldr	r3, [sp, #44]	; 0x2c
   11b00:	e7c32001 	strb	r2, [r3, r1]
   11b04:	e51b102c 	ldr	r1, [fp, #-44]	; 0xffffffd4
   11b08:	e59fc0f0 	ldr	ip, [pc, #240]	; 11c00 <websocket_handshake_response+0x19c>
   11b0c:	e58d0028 	str	r0, [sp, #40]	; 0x28
   11b10:	e1a0000c 	mov	r0, ip
   11b14:	e58d1024 	str	r1, [sp, #36]	; 0x24
   11b18:	e1a01003 	mov	r1, r3
   11b1c:	e59de024 	ldr	lr, [sp, #36]	; 0x24
   11b20:	e58d2020 	str	r2, [sp, #32]
   11b24:	e1a0200e 	mov	r2, lr
   11b28:	e58dc01c 	str	ip, [sp, #28]
   11b2c:	ebfffc62 	bl	10cbc <strncpy@plt>
   11b30:	e51b102c 	ldr	r1, [fp, #-44]	; 0xffffffd4
   11b34:	e59d201c 	ldr	r2, [sp, #28]
   11b38:	e0821001 	add	r1, r2, r1
   11b3c:	e59f30c0 	ldr	r3, [pc, #192]	; 11c04 <websocket_handshake_response+0x1a0>
   11b40:	e58d0018 	str	r0, [sp, #24]
   11b44:	e1a00001 	mov	r0, r1
   11b48:	e1a01003 	mov	r1, r3
   11b4c:	ebfffc33 	bl	10c20 <strcpy@plt>
   11b50:	e28d1048 	add	r1, sp, #72	; 0x48
   11b54:	e58d0014 	str	r0, [sp, #20]
   11b58:	e1a00001 	mov	r0, r1
   11b5c:	e58d1010 	str	r1, [sp, #16]
   11b60:	eb000227 	bl	12404 <sha1_init>
   11b64:	e59d001c 	ldr	r0, [sp, #28]
   11b68:	ebfffc3e 	bl	10c68 <strlen@plt>
   11b6c:	e59d1010 	ldr	r1, [sp, #16]
   11b70:	e58d000c 	str	r0, [sp, #12]
   11b74:	e1a00001 	mov	r0, r1
   11b78:	e59d101c 	ldr	r1, [sp, #28]
   11b7c:	e59d200c 	ldr	r2, [sp, #12]
   11b80:	eb00024f 	bl	124c4 <sha1_update>
   11b84:	e24b0028 	sub	r0, fp, #40	; 0x28
   11b88:	e59d1010 	ldr	r1, [sp, #16]
   11b8c:	e58d0008 	str	r0, [sp, #8]
   11b90:	e1a00001 	mov	r0, r1
   11b94:	e59d1008 	ldr	r1, [sp, #8]
   11b98:	eb00027d 	bl	12594 <sha1_final>
   11b9c:	e3a01014 	mov	r1, #20
   11ba0:	e59d0008 	ldr	r0, [sp, #8]
   11ba4:	e59d202c 	ldr	r2, [sp, #44]	; 0x2c
   11ba8:	eb00030f 	bl	127ec <base64_encode>
   11bac:	e58d0044 	str	r0, [sp, #68]	; 0x44
   11bb0:	e59d0044 	ldr	r0, [sp, #68]	; 0x44
   11bb4:	e59d1020 	ldr	r1, [sp, #32]
   11bb8:	e59d202c 	ldr	r2, [sp, #44]	; 0x2c
   11bbc:	e7c21000 	strb	r1, [r2, r0]
   11bc0:	e59d003c 	ldr	r0, [sp, #60]	; 0x3c
   11bc4:	e59d1034 	ldr	r1, [sp, #52]	; 0x34
   11bc8:	e59d2030 	ldr	r2, [sp, #48]	; 0x30
   11bcc:	e59d3038 	ldr	r3, [sp, #56]	; 0x38
   11bd0:	ebfffc2d 	bl	10c8c <snprintf@plt>
   11bd4:	e59f100c 	ldr	r1, [pc, #12]	; 11be8 <websocket_handshake_response+0x184>
   11bd8:	e58d0004 	str	r0, [sp, #4]
   11bdc:	e1a00001 	mov	r0, r1
   11be0:	e24bd008 	sub	sp, fp, #8
   11be4:	e8bd8830 	pop	{r4, r5, fp, pc}
   11be8:	00024124 	andeq	r4, r2, r4, lsr #2
   11bec:	00024124 	andeq	r4, r2, r4, lsr #2
   11bf0:	00000200 	andeq	r0, r0, r0, lsl #4
   11bf4:	00013270 	andeq	r3, r1, r0, ror r2
   11bf8:	00013237 	andeq	r3, r1, r7, lsr r2
   11bfc:	00013312 	andeq	r3, r1, r2, lsl r3
   11c00:	00024124 	andeq	r4, r2, r4, lsr #2
   11c04:	0001324b 	andeq	r3, r1, fp, asr #4

00011c08 <decode_websocket_message>:
   11c08:	e92d4830 	push	{r4, r5, fp, lr}
   11c0c:	e28db008 	add	fp, sp, #8
   11c10:	e24ddd39 	sub	sp, sp, #3648	; 0xe40
   11c14:	e24dd901 	sub	sp, sp, #16384	; 0x4000
   11c18:	e50b000c 	str	r0, [fp, #-12]
   11c1c:	e51b000c 	ldr	r0, [fp, #-12]
   11c20:	e2800001 	add	r0, r0, #1
   11c24:	e58d0014 	str	r0, [sp, #20]
   11c28:	e59d0014 	ldr	r0, [sp, #20]
   11c2c:	e5d00000 	ldrb	r0, [r0]
   11c30:	e58d0010 	str	r0, [sp, #16]
   11c34:	e59d0014 	ldr	r0, [sp, #20]
   11c38:	e2800001 	add	r0, r0, #1
   11c3c:	e58d0014 	str	r0, [sp, #20]
   11c40:	e59d0010 	ldr	r0, [sp, #16]
   11c44:	e35000fe 	cmp	r0, #254	; 0xfe
   11c48:	1a000007 	bne	11c6c <decode_websocket_message+0x64>
   11c4c:	e59d0014 	ldr	r0, [sp, #20]
   11c50:	e1d000b0 	ldrh	r0, [r0]
   11c54:	ebfffc2a 	bl	10d04 <ntohs@plt>
   11c58:	e6ff0070 	uxth	r0, r0
   11c5c:	e58d0010 	str	r0, [sp, #16]
   11c60:	e59d0014 	ldr	r0, [sp, #20]
   11c64:	e2800002 	add	r0, r0, #2
   11c68:	e58d0014 	str	r0, [sp, #20]
   11c6c:	e59f20c0 	ldr	r2, [pc, #192]	; 11d34 <decode_websocket_message+0x12c>
   11c70:	e24b0010 	sub	r0, fp, #16
   11c74:	e59d1014 	ldr	r1, [sp, #20]
   11c78:	ebfffc0f 	bl	10cbc <strncpy@plt>
   11c7c:	e28d1018 	add	r1, sp, #24
   11c80:	e59d2014 	ldr	r2, [sp, #20]
   11c84:	e2822004 	add	r2, r2, #4
   11c88:	e58d2014 	str	r2, [sp, #20]
   11c8c:	e59d2014 	ldr	r2, [sp, #20]
   11c90:	e59de010 	ldr	lr, [sp, #16]
   11c94:	e58d0008 	str	r0, [sp, #8]
   11c98:	e1a00001 	mov	r0, r1
   11c9c:	e1a01002 	mov	r1, r2
   11ca0:	e1a0200e 	mov	r2, lr
   11ca4:	ebfffc04 	bl	10cbc <strncpy@plt>
   11ca8:	e59f1080 	ldr	r1, [pc, #128]	; 11d30 <decode_websocket_message+0x128>
   11cac:	e58d100c 	str	r1, [sp, #12]
   11cb0:	e58d0004 	str	r0, [sp, #4]
   11cb4:	e59d000c 	ldr	r0, [sp, #12]
   11cb8:	e59d1010 	ldr	r1, [sp, #16]
   11cbc:	e1500001 	cmp	r0, r1
   11cc0:	aa000014 	bge	11d18 <decode_websocket_message+0x110>
   11cc4:	e59f0068 	ldr	r0, [pc, #104]	; 11d34 <decode_websocket_message+0x12c>
   11cc8:	e59d100c 	ldr	r1, [sp, #12]
   11ccc:	e28d2018 	add	r2, sp, #24
   11cd0:	e7d22001 	ldrb	r2, [r2, r1]
   11cd4:	e1a03fc1 	asr	r3, r1, #31
   11cd8:	e0813f23 	add	r3, r1, r3, lsr #30
   11cdc:	e3c33003 	bic	r3, r3, #3
   11ce0:	e0411003 	sub	r1, r1, r3
   11ce4:	e24b3010 	sub	r3, fp, #16
   11ce8:	e0831001 	add	r1, r3, r1
   11cec:	e5d11000 	ldrb	r1, [r1]
   11cf0:	e0221001 	eor	r1, r2, r1
   11cf4:	e51b200c 	ldr	r2, [fp, #-12]
   11cf8:	e59d300c 	ldr	r3, [sp, #12]
   11cfc:	e0822003 	add	r2, r2, r3
   11d00:	e5c21000 	strb	r1, [r2]
   11d04:	e58d0000 	str	r0, [sp]
   11d08:	e59d000c 	ldr	r0, [sp, #12]
   11d0c:	e2800001 	add	r0, r0, #1
   11d10:	e58d000c 	str	r0, [sp, #12]
   11d14:	eaffffe6 	b	11cb4 <decode_websocket_message+0xac>
   11d18:	e51b000c 	ldr	r0, [fp, #-12]
   11d1c:	e59d1010 	ldr	r1, [sp, #16]
   11d20:	e3a02000 	mov	r2, #0
   11d24:	e7c02001 	strb	r2, [r0, r1]
   11d28:	e24bd008 	sub	sp, fp, #8
   11d2c:	e8bd8830 	pop	{r4, r5, fp, pc}
   11d30:	00000000 	andeq	r0, r0, r0
   11d34:	00000004 	andeq	r0, r0, r4

00011d38 <parse_json>:
   11d38:	e92d4830 	push	{r4, r5, fp, lr}
   11d3c:	e28db008 	add	fp, sp, #8
   11d40:	e24ddd05 	sub	sp, sp, #320	; 0x140
   11d44:	e59f34c0 	ldr	r3, [pc, #1216]	; 1220c <parse_json+0x4d4>
   11d48:	e59fc4c0 	ldr	ip, [pc, #1216]	; 12210 <parse_json+0x4d8>
   11d4c:	e50b000c 	str	r0, [fp, #-12]
   11d50:	e50b1010 	str	r1, [fp, #-16]
   11d54:	e50b2014 	str	r2, [fp, #-20]	; 0xffffffec
   11d58:	e50b3018 	str	r3, [fp, #-24]	; 0xffffffe8
   11d5c:	e50b301c 	str	r3, [fp, #-28]	; 0xffffffe4
   11d60:	e50b3020 	str	r3, [fp, #-32]	; 0xffffffe0
   11d64:	e58dc028 	str	ip, [sp, #40]	; 0x28
   11d68:	e51b0010 	ldr	r0, [fp, #-16]
   11d6c:	e5900000 	ldr	r0, [r0]
   11d70:	e1500003 	cmp	r0, r3
   11d74:	1a000000 	bne	11d7c <parse_json+0x44>
   11d78:	ea000004 	b	11d90 <parse_json+0x58>
   11d7c:	e59f0490 	ldr	r0, [pc, #1168]	; 12214 <parse_json+0x4dc>
   11d80:	e59f1490 	ldr	r1, [pc, #1168]	; 12218 <parse_json+0x4e0>
   11d84:	e59f2490 	ldr	r2, [pc, #1168]	; 1221c <parse_json+0x4e4>
   11d88:	e59f3490 	ldr	r3, [pc, #1168]	; 12220 <parse_json+0x4e8>
   11d8c:	ebfffbfa 	bl	10d7c <__assert_fail@plt>
   11d90:	e59f1474 	ldr	r1, [pc, #1140]	; 1220c <parse_json+0x4d4>
   11d94:	e51b000c 	ldr	r0, [fp, #-12]
   11d98:	e28d202c 	add	r2, sp, #44	; 0x2c
   11d9c:	ebfffbde 	bl	10d1c <json_loads@plt>
   11da0:	e59f1464 	ldr	r1, [pc, #1124]	; 1220c <parse_json+0x4d4>
   11da4:	e50b0018 	str	r0, [fp, #-24]	; 0xffffffe8
   11da8:	e51b0018 	ldr	r0, [fp, #-24]	; 0xffffffe8
   11dac:	e1500001 	cmp	r0, r1
   11db0:	1a000008 	bne	11dd8 <parse_json+0xa0>
   11db4:	e59f1468 	ldr	r1, [pc, #1128]	; 12224 <parse_json+0x4ec>
   11db8:	e59f0468 	ldr	r0, [pc, #1128]	; 12228 <parse_json+0x4f0>
   11dbc:	e5900000 	ldr	r0, [r0]
   11dc0:	e59d202c 	ldr	r2, [sp, #44]	; 0x2c
   11dc4:	e28d302c 	add	r3, sp, #44	; 0x2c
   11dc8:	e283305c 	add	r3, r3, #92	; 0x5c
   11dcc:	ebfffba8 	bl	10c74 <fprintf@plt>
   11dd0:	e58d001c 	str	r0, [sp, #28]
   11dd4:	ea000103 	b	121e8 <parse_json+0x4b0>
   11dd8:	e59f042c 	ldr	r0, [pc, #1068]	; 1220c <parse_json+0x4d4>
   11ddc:	e51b1018 	ldr	r1, [fp, #-24]	; 0xffffffe8
   11de0:	e1510000 	cmp	r1, r0
   11de4:	0a000003 	beq	11df8 <parse_json+0xc0>
   11de8:	e51b0018 	ldr	r0, [fp, #-24]	; 0xffffffe8
   11dec:	e5900000 	ldr	r0, [r0]
   11df0:	e3500001 	cmp	r0, #1
   11df4:	0a000005 	beq	11e10 <parse_json+0xd8>
   11df8:	e59f142c 	ldr	r1, [pc, #1068]	; 1222c <parse_json+0x4f4>
   11dfc:	e59f042c 	ldr	r0, [pc, #1068]	; 12230 <parse_json+0x4f8>
   11e00:	e5900000 	ldr	r0, [r0]
   11e04:	ebfffb9a 	bl	10c74 <fprintf@plt>
   11e08:	e58d0018 	str	r0, [sp, #24]
   11e0c:	ea0000f5 	b	121e8 <parse_json+0x4b0>
   11e10:	e51b0018 	ldr	r0, [fp, #-24]	; 0xffffffe8
   11e14:	ebfffbab 	bl	10cc8 <json_array_size@plt>
   11e18:	e59fe3ec 	ldr	lr, [pc, #1004]	; 1220c <parse_json+0x4d4>
   11e1c:	e58d0020 	str	r0, [sp, #32]
   11e20:	e58de024 	str	lr, [sp, #36]	; 0x24
   11e24:	e59d0024 	ldr	r0, [sp, #36]	; 0x24
   11e28:	e59d1020 	ldr	r1, [sp, #32]
   11e2c:	e1500001 	cmp	r0, r1
   11e30:	2a0000ea 	bcs	121e0 <parse_json+0x4a8>
   11e34:	e51b0018 	ldr	r0, [fp, #-24]	; 0xffffffe8
   11e38:	e59d1024 	ldr	r1, [sp, #36]	; 0x24
   11e3c:	ebfffb71 	bl	10c08 <json_array_get@plt>
   11e40:	e59f13c4 	ldr	r1, [pc, #964]	; 1220c <parse_json+0x4d4>
   11e44:	e50b001c 	str	r0, [fp, #-28]	; 0xffffffe4
   11e48:	e51b001c 	ldr	r0, [fp, #-28]	; 0xffffffe4
   11e4c:	e1500001 	cmp	r0, r1
   11e50:	0a000003 	beq	11e64 <parse_json+0x12c>
   11e54:	e51b001c 	ldr	r0, [fp, #-28]	; 0xffffffe4
   11e58:	e5900000 	ldr	r0, [r0]
   11e5c:	e3500000 	cmp	r0, #0
   11e60:	0a000007 	beq	11e84 <parse_json+0x14c>
   11e64:	e59f13c8 	ldr	r1, [pc, #968]	; 12234 <parse_json+0x4fc>
   11e68:	e59f03c8 	ldr	r0, [pc, #968]	; 12238 <parse_json+0x500>
   11e6c:	e5900000 	ldr	r0, [r0]
   11e70:	e59d2024 	ldr	r2, [sp, #36]	; 0x24
   11e74:	e2822001 	add	r2, r2, #1
   11e78:	ebfffb7d 	bl	10c74 <fprintf@plt>
   11e7c:	e58d0014 	str	r0, [sp, #20]
   11e80:	ea0000d8 	b	121e8 <parse_json+0x4b0>
   11e84:	e59f03b4 	ldr	r0, [pc, #948]	; 12240 <parse_json+0x508>
   11e88:	ebfffb67 	bl	10c2c <malloc@plt>
   11e8c:	e59f13a8 	ldr	r1, [pc, #936]	; 1223c <parse_json+0x504>
   11e90:	e59fe374 	ldr	lr, [pc, #884]	; 1220c <parse_json+0x4d4>
   11e94:	e51b2010 	ldr	r2, [fp, #-16]
   11e98:	e5820000 	str	r0, [r2]
   11e9c:	e51b0010 	ldr	r0, [fp, #-16]
   11ea0:	e5900000 	ldr	r0, [r0]
   11ea4:	e580e014 	str	lr, [r0, #20]
   11ea8:	e51b001c 	ldr	r0, [fp, #-28]	; 0xffffffe4
   11eac:	ebfffbb5 	bl	10d88 <json_object_get@plt>
   11eb0:	e59f1354 	ldr	r1, [pc, #852]	; 1220c <parse_json+0x4d4>
   11eb4:	e50b0020 	str	r0, [fp, #-32]	; 0xffffffe0
   11eb8:	e51b0020 	ldr	r0, [fp, #-32]	; 0xffffffe0
   11ebc:	e1500001 	cmp	r0, r1
   11ec0:	0a000003 	beq	11ed4 <parse_json+0x19c>
   11ec4:	e51b0020 	ldr	r0, [fp, #-32]	; 0xffffffe0
   11ec8:	e5900000 	ldr	r0, [r0]
   11ecc:	e3500003 	cmp	r0, #3
   11ed0:	0a000007 	beq	11ef4 <parse_json+0x1bc>
   11ed4:	e59f0330 	ldr	r0, [pc, #816]	; 1220c <parse_json+0x4d4>
   11ed8:	e51b1020 	ldr	r1, [fp, #-32]	; 0xffffffe0
   11edc:	e1510000 	cmp	r1, r0
   11ee0:	0a00000a 	beq	11f10 <parse_json+0x1d8>
   11ee4:	e51b0020 	ldr	r0, [fp, #-32]	; 0xffffffe0
   11ee8:	e5900000 	ldr	r0, [r0]
   11eec:	e3500004 	cmp	r0, #4
   11ef0:	1a000006 	bne	11f10 <parse_json+0x1d8>
   11ef4:	e51b0020 	ldr	r0, [fp, #-32]	; 0xffffffe0
   11ef8:	ebfffb9c 	bl	10d70 <json_number_value@plt>
   11efc:	eeb71bc0 	vcvt.f32.f64	s2, d0
   11f00:	e51b0010 	ldr	r0, [fp, #-16]
   11f04:	e5900000 	ldr	r0, [r0]
   11f08:	ed801a00 	vstr	s2, [r0]
   11f0c:	ea000007 	b	11f30 <parse_json+0x1f8>
   11f10:	e59f132c 	ldr	r1, [pc, #812]	; 12244 <parse_json+0x50c>
   11f14:	e59f032c 	ldr	r0, [pc, #812]	; 12248 <parse_json+0x510>
   11f18:	e5900000 	ldr	r0, [r0]
   11f1c:	e59d2024 	ldr	r2, [sp, #36]	; 0x24
   11f20:	e2822001 	add	r2, r2, #1
   11f24:	ebfffb52 	bl	10c74 <fprintf@plt>
   11f28:	e58d0010 	str	r0, [sp, #16]
   11f2c:	ea0000ad 	b	121e8 <parse_json+0x4b0>
   11f30:	e59f1314 	ldr	r1, [pc, #788]	; 1224c <parse_json+0x514>
   11f34:	e51b001c 	ldr	r0, [fp, #-28]	; 0xffffffe4
   11f38:	ebfffb92 	bl	10d88 <json_object_get@plt>
   11f3c:	e59f12c8 	ldr	r1, [pc, #712]	; 1220c <parse_json+0x4d4>
   11f40:	e50b0020 	str	r0, [fp, #-32]	; 0xffffffe0
   11f44:	e51b0020 	ldr	r0, [fp, #-32]	; 0xffffffe0
   11f48:	e1500001 	cmp	r0, r1
   11f4c:	0a000003 	beq	11f60 <parse_json+0x228>
   11f50:	e51b0020 	ldr	r0, [fp, #-32]	; 0xffffffe0
   11f54:	e5900000 	ldr	r0, [r0]
   11f58:	e3500003 	cmp	r0, #3
   11f5c:	0a000007 	beq	11f80 <parse_json+0x248>
   11f60:	e59f02a4 	ldr	r0, [pc, #676]	; 1220c <parse_json+0x4d4>
   11f64:	e51b1020 	ldr	r1, [fp, #-32]	; 0xffffffe0
   11f68:	e1510000 	cmp	r1, r0
   11f6c:	0a00000a 	beq	11f9c <parse_json+0x264>
   11f70:	e51b0020 	ldr	r0, [fp, #-32]	; 0xffffffe0
   11f74:	e5900000 	ldr	r0, [r0]
   11f78:	e3500004 	cmp	r0, #4
   11f7c:	1a000006 	bne	11f9c <parse_json+0x264>
   11f80:	e51b0020 	ldr	r0, [fp, #-32]	; 0xffffffe0
   11f84:	ebfffb79 	bl	10d70 <json_number_value@plt>
   11f88:	eeb71bc0 	vcvt.f32.f64	s2, d0
   11f8c:	e51b0010 	ldr	r0, [fp, #-16]
   11f90:	e5900000 	ldr	r0, [r0]
   11f94:	ed801a01 	vstr	s2, [r0, #4]
   11f98:	ea000007 	b	11fbc <parse_json+0x284>
   11f9c:	e59f12ac 	ldr	r1, [pc, #684]	; 12250 <parse_json+0x518>
   11fa0:	e59f02ac 	ldr	r0, [pc, #684]	; 12254 <parse_json+0x51c>
   11fa4:	e5900000 	ldr	r0, [r0]
   11fa8:	e59d2024 	ldr	r2, [sp, #36]	; 0x24
   11fac:	e2822001 	add	r2, r2, #1
   11fb0:	ebfffb2f 	bl	10c74 <fprintf@plt>
   11fb4:	e58d000c 	str	r0, [sp, #12]
   11fb8:	ea00008a 	b	121e8 <parse_json+0x4b0>
   11fbc:	e59f1294 	ldr	r1, [pc, #660]	; 12258 <parse_json+0x520>
   11fc0:	e51b001c 	ldr	r0, [fp, #-28]	; 0xffffffe4
   11fc4:	ebfffb6f 	bl	10d88 <json_object_get@plt>
   11fc8:	e59f123c 	ldr	r1, [pc, #572]	; 1220c <parse_json+0x4d4>
   11fcc:	e50b0020 	str	r0, [fp, #-32]	; 0xffffffe0
   11fd0:	e51b0020 	ldr	r0, [fp, #-32]	; 0xffffffe0
   11fd4:	e1500001 	cmp	r0, r1
   11fd8:	0a000003 	beq	11fec <parse_json+0x2b4>
   11fdc:	e51b0020 	ldr	r0, [fp, #-32]	; 0xffffffe0
   11fe0:	e5900000 	ldr	r0, [r0]
   11fe4:	e3500003 	cmp	r0, #3
   11fe8:	0a000007 	beq	1200c <parse_json+0x2d4>
   11fec:	e59f0218 	ldr	r0, [pc, #536]	; 1220c <parse_json+0x4d4>
   11ff0:	e51b1020 	ldr	r1, [fp, #-32]	; 0xffffffe0
   11ff4:	e1510000 	cmp	r1, r0
   11ff8:	0a00000b 	beq	1202c <parse_json+0x2f4>
   11ffc:	e51b0020 	ldr	r0, [fp, #-32]	; 0xffffffe0
   12000:	e5900000 	ldr	r0, [r0]
   12004:	e3500004 	cmp	r0, #4
   12008:	1a000007 	bne	1202c <parse_json+0x2f4>
   1200c:	e51b0020 	ldr	r0, [fp, #-32]	; 0xffffffe0
   12010:	ebfffb56 	bl	10d70 <json_number_value@plt>
   12014:	eebd1bc0 	vcvt.s32.f64	s2, d0
   12018:	ee110a10 	vmov	r0, s2
   1201c:	e51be010 	ldr	lr, [fp, #-16]
   12020:	e59ee000 	ldr	lr, [lr]
   12024:	e58e0008 	str	r0, [lr, #8]
   12028:	ea000007 	b	1204c <parse_json+0x314>
   1202c:	e59f1228 	ldr	r1, [pc, #552]	; 1225c <parse_json+0x524>
   12030:	e59f0228 	ldr	r0, [pc, #552]	; 12260 <parse_json+0x528>
   12034:	e5900000 	ldr	r0, [r0]
   12038:	e59d2024 	ldr	r2, [sp, #36]	; 0x24
   1203c:	e2822001 	add	r2, r2, #1
   12040:	ebfffb0b 	bl	10c74 <fprintf@plt>
   12044:	e58d0008 	str	r0, [sp, #8]
   12048:	ea000066 	b	121e8 <parse_json+0x4b0>
   1204c:	e59f1210 	ldr	r1, [pc, #528]	; 12264 <parse_json+0x52c>
   12050:	e51b001c 	ldr	r0, [fp, #-28]	; 0xffffffe4
   12054:	ebfffb4b 	bl	10d88 <json_object_get@plt>
   12058:	e59f11ac 	ldr	r1, [pc, #428]	; 1220c <parse_json+0x4d4>
   1205c:	e50b0020 	str	r0, [fp, #-32]	; 0xffffffe0
   12060:	e51b0020 	ldr	r0, [fp, #-32]	; 0xffffffe0
   12064:	e1500001 	cmp	r0, r1
   12068:	0a000003 	beq	1207c <parse_json+0x344>
   1206c:	e51b0020 	ldr	r0, [fp, #-32]	; 0xffffffe0
   12070:	e5900000 	ldr	r0, [r0]
   12074:	e3500003 	cmp	r0, #3
   12078:	0a000007 	beq	1209c <parse_json+0x364>
   1207c:	e59f0188 	ldr	r0, [pc, #392]	; 1220c <parse_json+0x4d4>
   12080:	e51b1020 	ldr	r1, [fp, #-32]	; 0xffffffe0
   12084:	e1510000 	cmp	r1, r0
   12088:	0a00000a 	beq	120b8 <parse_json+0x380>
   1208c:	e51b0020 	ldr	r0, [fp, #-32]	; 0xffffffe0
   12090:	e5900000 	ldr	r0, [r0]
   12094:	e3500004 	cmp	r0, #4
   12098:	1a000006 	bne	120b8 <parse_json+0x380>
   1209c:	e51b0020 	ldr	r0, [fp, #-32]	; 0xffffffe0
   120a0:	ebfffb32 	bl	10d70 <json_number_value@plt>
   120a4:	eeb71bc0 	vcvt.f32.f64	s2, d0
   120a8:	e51b0010 	ldr	r0, [fp, #-16]
   120ac:	e5900000 	ldr	r0, [r0]
   120b0:	ed801a03 	vstr	s2, [r0, #12]
   120b4:	ea000007 	b	120d8 <parse_json+0x3a0>
   120b8:	e59f11a8 	ldr	r1, [pc, #424]	; 12268 <parse_json+0x530>
   120bc:	e59f01a8 	ldr	r0, [pc, #424]	; 1226c <parse_json+0x534>
   120c0:	e5900000 	ldr	r0, [r0]
   120c4:	e59d2024 	ldr	r2, [sp, #36]	; 0x24
   120c8:	e2822001 	add	r2, r2, #1
   120cc:	ebfffae8 	bl	10c74 <fprintf@plt>
   120d0:	e58d0004 	str	r0, [sp, #4]
   120d4:	ea000043 	b	121e8 <parse_json+0x4b0>
   120d8:	e59f1190 	ldr	r1, [pc, #400]	; 12270 <parse_json+0x538>
   120dc:	e51b001c 	ldr	r0, [fp, #-28]	; 0xffffffe4
   120e0:	ebfffb28 	bl	10d88 <json_object_get@plt>
   120e4:	e59f1120 	ldr	r1, [pc, #288]	; 1220c <parse_json+0x4d4>
   120e8:	e50b0020 	str	r0, [fp, #-32]	; 0xffffffe0
   120ec:	e51b0020 	ldr	r0, [fp, #-32]	; 0xffffffe0
   120f0:	e1500001 	cmp	r0, r1
   120f4:	0a000003 	beq	12108 <parse_json+0x3d0>
   120f8:	e51b0020 	ldr	r0, [fp, #-32]	; 0xffffffe0
   120fc:	e5900000 	ldr	r0, [r0]
   12100:	e3500003 	cmp	r0, #3
   12104:	0a000007 	beq	12128 <parse_json+0x3f0>
   12108:	e59f00fc 	ldr	r0, [pc, #252]	; 1220c <parse_json+0x4d4>
   1210c:	e51b1020 	ldr	r1, [fp, #-32]	; 0xffffffe0
   12110:	e1510000 	cmp	r1, r0
   12114:	0a00000a 	beq	12144 <parse_json+0x40c>
   12118:	e51b0020 	ldr	r0, [fp, #-32]	; 0xffffffe0
   1211c:	e5900000 	ldr	r0, [r0]
   12120:	e3500004 	cmp	r0, #4
   12124:	1a000006 	bne	12144 <parse_json+0x40c>
   12128:	e51b0020 	ldr	r0, [fp, #-32]	; 0xffffffe0
   1212c:	ebfffb0f 	bl	10d70 <json_number_value@plt>
   12130:	eeb71bc0 	vcvt.f32.f64	s2, d0
   12134:	e51b0010 	ldr	r0, [fp, #-16]
   12138:	e5900000 	ldr	r0, [r0]
   1213c:	ed801a04 	vstr	s2, [r0, #16]
   12140:	ea000007 	b	12164 <parse_json+0x42c>
   12144:	e59f1128 	ldr	r1, [pc, #296]	; 12274 <parse_json+0x53c>
   12148:	e59f0128 	ldr	r0, [pc, #296]	; 12278 <parse_json+0x540>
   1214c:	e5900000 	ldr	r0, [r0]
   12150:	e59d2024 	ldr	r2, [sp, #36]	; 0x24
   12154:	e2822001 	add	r2, r2, #1
   12158:	ebfffac5 	bl	10c74 <fprintf@plt>
   1215c:	e58d0000 	str	r0, [sp]
   12160:	ea000020 	b	121e8 <parse_json+0x4b0>
   12164:	e59f1110 	ldr	r1, [pc, #272]	; 1227c <parse_json+0x544>
   12168:	e51b001c 	ldr	r0, [fp, #-28]	; 0xffffffe4
   1216c:	ebfffb05 	bl	10d88 <json_object_get@plt>
   12170:	e59f1094 	ldr	r1, [pc, #148]	; 1220c <parse_json+0x4d4>
   12174:	e50b0020 	str	r0, [fp, #-32]	; 0xffffffe0
   12178:	e51b0020 	ldr	r0, [fp, #-32]	; 0xffffffe0
   1217c:	e1500001 	cmp	r0, r1
   12180:	0a00000b 	beq	121b4 <parse_json+0x47c>
   12184:	e59f0080 	ldr	r0, [pc, #128]	; 1220c <parse_json+0x4d4>
   12188:	e51b1020 	ldr	r1, [fp, #-32]	; 0xffffffe0
   1218c:	e1510000 	cmp	r1, r0
   12190:	0a000007 	beq	121b4 <parse_json+0x47c>
   12194:	e51b0020 	ldr	r0, [fp, #-32]	; 0xffffffe0
   12198:	e5900000 	ldr	r0, [r0]
   1219c:	e3500005 	cmp	r0, #5
   121a0:	1a000003 	bne	121b4 <parse_json+0x47c>
   121a4:	e59f00d4 	ldr	r0, [pc, #212]	; 12280 <parse_json+0x548>
   121a8:	e51b1014 	ldr	r1, [fp, #-20]	; 0xffffffec
   121ac:	e5810000 	str	r0, [r1]
   121b0:	ea000002 	b	121c0 <parse_json+0x488>
   121b4:	e59f0050 	ldr	r0, [pc, #80]	; 1220c <parse_json+0x4d4>
   121b8:	e51b1014 	ldr	r1, [fp, #-20]	; 0xffffffec
   121bc:	e5810000 	str	r0, [r1]
   121c0:	e51b0010 	ldr	r0, [fp, #-16]
   121c4:	e5900000 	ldr	r0, [r0]
   121c8:	e2800014 	add	r0, r0, #20
   121cc:	e50b0010 	str	r0, [fp, #-16]
   121d0:	e59d0024 	ldr	r0, [sp, #36]	; 0x24
   121d4:	e2800001 	add	r0, r0, #1
   121d8:	e58d0024 	str	r0, [sp, #36]	; 0x24
   121dc:	eaffff10 	b	11e24 <parse_json+0xec>
   121e0:	e59f0024 	ldr	r0, [pc, #36]	; 1220c <parse_json+0x4d4>
   121e4:	e58d0028 	str	r0, [sp, #40]	; 0x28
   121e8:	e59f001c 	ldr	r0, [pc, #28]	; 1220c <parse_json+0x4d4>
   121ec:	e51b1018 	ldr	r1, [fp, #-24]	; 0xffffffe8
   121f0:	e1510000 	cmp	r1, r0
   121f4:	0a000001 	beq	12200 <parse_json+0x4c8>
   121f8:	e51b0018 	ldr	r0, [fp, #-24]	; 0xffffffe8
   121fc:	eb000360 	bl	12f84 <json_decref>
   12200:	e59d0028 	ldr	r0, [sp, #40]	; 0x28
   12204:	e24bd008 	sub	sp, fp, #8
   12208:	e8bd8830 	pop	{r4, r5, fp, pc}
   1220c:	00000000 	andeq	r0, r0, r0
   12210:	ffffffff 			; <UNDEFINED> instruction: 0xffffffff
   12214:	000133db 	ldrdeq	r3, [r1], -fp
   12218:	00013358 	andeq	r3, r1, r8, asr r3
   1221c:	0000033c 	andeq	r0, r0, ip, lsr r3
   12220:	000133ec 	andeq	r3, r1, ip, ror #7
   12224:	00013434 	andeq	r3, r1, r4, lsr r4
   12228:	00024108 	andeq	r4, r2, r8, lsl #2
   1222c:	0001344b 	andeq	r3, r1, fp, asr #8
   12230:	00024108 	andeq	r4, r2, r8, lsl #2
   12234:	0001345d 	andeq	r3, r1, sp, asr r4
   12238:	00024108 	andeq	r4, r2, r8, lsl #2
   1223c:	00013481 	andeq	r3, r1, r1, lsl #9
   12240:	00000020 	andeq	r0, r0, r0, lsr #32
   12244:	0001348a 	andeq	r3, r1, sl, lsl #9
   12248:	00024108 	andeq	r4, r2, r8, lsl #2
   1224c:	000134bb 			; <UNDEFINED> instruction: 0x000134bb
   12250:	000134c6 	andeq	r3, r1, r6, asr #9
   12254:	00024108 	andeq	r4, r2, r8, lsl #2
   12258:	000134f9 	strdeq	r3, [r1], -r9
   1225c:	00013501 	andeq	r3, r1, r1, lsl #10
   12260:	00024108 	andeq	r4, r2, r8, lsl #2
   12264:	00013568 	andeq	r3, r1, r8, ror #10
   12268:	00013531 	andeq	r3, r1, r1, lsr r5
   1226c:	00024108 	andeq	r4, r2, r8, lsl #2
   12270:	00013563 	andeq	r3, r1, r3, ror #10
   12274:	00013572 	andeq	r3, r1, r2, ror r5
   12278:	00024108 	andeq	r4, r2, r8, lsl #2
   1227c:	000135a9 	andeq	r3, r1, r9, lsr #11
   12280:	00000001 	andeq	r0, r0, r1

00012284 <free_command>:
   12284:	e92d4800 	push	{fp, lr}
   12288:	e1a0b00d 	mov	fp, sp
   1228c:	e24dd008 	sub	sp, sp, #8
   12290:	e58d0004 	str	r0, [sp, #4]
   12294:	e59f0030 	ldr	r0, [pc, #48]	; 122cc <free_command+0x48>
   12298:	e59d1004 	ldr	r1, [sp, #4]
   1229c:	e1510000 	cmp	r1, r0
   122a0:	0a000007 	beq	122c4 <free_command+0x40>
   122a4:	e59d0004 	ldr	r0, [sp, #4]
   122a8:	e58d0000 	str	r0, [sp]
   122ac:	e59d0004 	ldr	r0, [sp, #4]
   122b0:	e5900014 	ldr	r0, [r0, #20]
   122b4:	e58d0004 	str	r0, [sp, #4]
   122b8:	e59d0000 	ldr	r0, [sp]
   122bc:	ebfffa39 	bl	10ba8 <free@plt>
   122c0:	eafffff3 	b	12294 <free_command+0x10>
   122c4:	e1a0d00b 	mov	sp, fp
   122c8:	e8bd8800 	pop	{fp, pc}
   122cc:	00000000 	andeq	r0, r0, r0

000122d0 <fill_buffer>:
   122d0:	e92d4800 	push	{fp, lr}
   122d4:	e1a0b00d 	mov	fp, sp
   122d8:	e24dd038 	sub	sp, sp, #56	; 0x38
   122dc:	e59f3108 	ldr	r3, [pc, #264]	; 123ec <fill_buffer+0x11c>
   122e0:	e50b0008 	str	r0, [fp, #-8]
   122e4:	e50b100c 	str	r1, [fp, #-12]
   122e8:	e50b2010 	str	r2, [fp, #-16]
   122ec:	e51b0008 	ldr	r0, [fp, #-8]
   122f0:	e1500003 	cmp	r0, r3
   122f4:	1a000003 	bne	12308 <fill_buffer+0x38>
   122f8:	e59f00ec 	ldr	r0, [pc, #236]	; 123ec <fill_buffer+0x11c>
   122fc:	e51b100c 	ldr	r1, [fp, #-12]
   12300:	e1510000 	cmp	r1, r0
   12304:	0a000000 	beq	1230c <fill_buffer+0x3c>
   12308:	ea000004 	b	12320 <fill_buffer+0x50>
   1230c:	e59f00dc 	ldr	r0, [pc, #220]	; 123f0 <fill_buffer+0x120>
   12310:	e59f10dc 	ldr	r1, [pc, #220]	; 123f4 <fill_buffer+0x124>
   12314:	e59f20dc 	ldr	r2, [pc, #220]	; 123f8 <fill_buffer+0x128>
   12318:	e59f30dc 	ldr	r3, [pc, #220]	; 123fc <fill_buffer+0x12c>
   1231c:	ebfffa96 	bl	10d7c <__assert_fail@plt>
   12320:	e59f00c4 	ldr	r0, [pc, #196]	; 123ec <fill_buffer+0x11c>
   12324:	e50b0014 	str	r0, [fp, #-20]	; 0xffffffec
   12328:	e51b0010 	ldr	r0, [fp, #-16]
   1232c:	e3500000 	cmp	r0, #0
   12330:	1a000002 	bne	12340 <fill_buffer+0x70>
   12334:	e59f00b0 	ldr	r0, [pc, #176]	; 123ec <fill_buffer+0x11c>
   12338:	e50b0004 	str	r0, [fp, #-4]
   1233c:	ea000027 	b	123e0 <fill_buffer+0x110>
   12340:	e59f00a4 	ldr	r0, [pc, #164]	; 123ec <fill_buffer+0x11c>
   12344:	e51b1008 	ldr	r1, [fp, #-8]
   12348:	e1510000 	cmp	r1, r0
   1234c:	0a000021 	beq	123d8 <fill_buffer+0x108>
   12350:	e51b0008 	ldr	r0, [fp, #-8]
   12354:	e5900008 	ldr	r0, [r0, #8]
   12358:	e3500001 	cmp	r0, #1
   1235c:	0a000003 	beq	12370 <fill_buffer+0xa0>
   12360:	e51b0008 	ldr	r0, [fp, #-8]
   12364:	e5900008 	ldr	r0, [r0, #8]
   12368:	e3500014 	cmp	r0, #20
   1236c:	1a000000 	bne	12374 <fill_buffer+0xa4>
   12370:	ea000015 	b	123cc <fill_buffer+0xfc>
   12374:	e59f0084 	ldr	r0, [pc, #132]	; 12400 <fill_buffer+0x130>
   12378:	e51b1008 	ldr	r1, [fp, #-8]
   1237c:	ed910a00 	vldr	s0, [r1]
   12380:	eeb71ac0 	vcvt.f64.f32	d1, s0
   12384:	e51b1008 	ldr	r1, [fp, #-8]
   12388:	ed910a01 	vldr	s0, [r1, #4]
   1238c:	eeb72ac0 	vcvt.f64.f32	d2, s0
   12390:	e51b1008 	ldr	r1, [fp, #-8]
   12394:	e5911008 	ldr	r1, [r1, #8]
   12398:	e51b2008 	ldr	r2, [fp, #-8]
   1239c:	ed920a03 	vldr	s0, [r2, #12]
   123a0:	eeb73ac0 	vcvt.f64.f32	d3, s0
   123a4:	e51b2008 	ldr	r2, [fp, #-8]
   123a8:	ed920a04 	vldr	s0, [r2, #16]
   123ac:	eeb74ac0 	vcvt.f64.f32	d4, s0
   123b0:	ec532b11 	vmov	r2, r3, d1
   123b4:	ed8d2b00 	vstr	d2, [sp]
   123b8:	e58d1008 	str	r1, [sp, #8]
   123bc:	ed8d3b04 	vstr	d3, [sp, #16]
   123c0:	ed8d4b06 	vstr	d4, [sp, #24]
   123c4:	ebfff9f4 	bl	10b9c <printf@plt>
   123c8:	e50b0018 	str	r0, [fp, #-24]	; 0xffffffe8
   123cc:	e51b0014 	ldr	r0, [fp, #-20]	; 0xffffffec
   123d0:	e2800001 	add	r0, r0, #1
   123d4:	e50b0014 	str	r0, [fp, #-20]	; 0xffffffec
   123d8:	e51b0014 	ldr	r0, [fp, #-20]	; 0xffffffec
   123dc:	e50b0004 	str	r0, [fp, #-4]
   123e0:	e51b0004 	ldr	r0, [fp, #-4]
   123e4:	e1a0d00b 	mov	sp, fp
   123e8:	e8bd8800 	pop	{fp, pc}
   123ec:	00000000 	andeq	r0, r0, r0
   123f0:	00013330 	andeq	r3, r1, r0, lsr r3
   123f4:	00013358 	andeq	r3, r1, r8, asr r3
   123f8:	000002c7 	andeq	r0, r0, r7, asr #5
   123fc:	00013361 	andeq	r3, r1, r1, ror #6
   12400:	000133be 			; <UNDEFINED> instruction: 0x000133be

00012404 <sha1_init>:
   12404:	e92d4df0 	push	{r4, r5, r6, r7, r8, sl, fp, lr}
   12408:	e28db018 	add	fp, sp, #24
   1240c:	e24dd004 	sub	sp, sp, #4
   12410:	e59f1088 	ldr	r1, [pc, #136]	; 124a0 <sha1_init+0x9c>
   12414:	e59f2088 	ldr	r2, [pc, #136]	; 124a4 <sha1_init+0xa0>
   12418:	e59f3088 	ldr	r3, [pc, #136]	; 124a8 <sha1_init+0xa4>
   1241c:	e59fc088 	ldr	ip, [pc, #136]	; 124ac <sha1_init+0xa8>
   12420:	e59fe088 	ldr	lr, [pc, #136]	; 124b0 <sha1_init+0xac>
   12424:	e59f4088 	ldr	r4, [pc, #136]	; 124b4 <sha1_init+0xb0>
   12428:	e59f5088 	ldr	r5, [pc, #136]	; 124b8 <sha1_init+0xb4>
   1242c:	e59f6088 	ldr	r6, [pc, #136]	; 124bc <sha1_init+0xb8>
   12430:	e59f7088 	ldr	r7, [pc, #136]	; 124c0 <sha1_init+0xbc>
   12434:	e58d0000 	str	r0, [sp]
   12438:	e59d0000 	ldr	r0, [sp]
   1243c:	e3a08000 	mov	r8, #0
   12440:	e5808040 	str	r8, [r0, #64]	; 0x40
   12444:	e59d0000 	ldr	r0, [sp]
   12448:	e580804c 	str	r8, [r0, #76]	; 0x4c
   1244c:	e5808048 	str	r8, [r0, #72]	; 0x48
   12450:	e59d0000 	ldr	r0, [sp]
   12454:	e5807050 	str	r7, [r0, #80]	; 0x50
   12458:	e59d0000 	ldr	r0, [sp]
   1245c:	e5806054 	str	r6, [r0, #84]	; 0x54
   12460:	e59d0000 	ldr	r0, [sp]
   12464:	e5805058 	str	r5, [r0, #88]	; 0x58
   12468:	e59d0000 	ldr	r0, [sp]
   1246c:	e580405c 	str	r4, [r0, #92]	; 0x5c
   12470:	e59d0000 	ldr	r0, [sp]
   12474:	e580e060 	str	lr, [r0, #96]	; 0x60
   12478:	e59d0000 	ldr	r0, [sp]
   1247c:	e580c064 	str	ip, [r0, #100]	; 0x64
   12480:	e59d0000 	ldr	r0, [sp]
   12484:	e5803068 	str	r3, [r0, #104]	; 0x68
   12488:	e59d0000 	ldr	r0, [sp]
   1248c:	e580206c 	str	r2, [r0, #108]	; 0x6c
   12490:	e59d0000 	ldr	r0, [sp]
   12494:	e5801070 	str	r1, [r0, #112]	; 0x70
   12498:	e24bd018 	sub	sp, fp, #24
   1249c:	e8bd8df0 	pop	{r4, r5, r6, r7, r8, sl, fp, pc}
   124a0:	ca62c1d6 	bgt	18c2c00 <__bss_end__+0x189e8dc>
   124a4:	8f1bbcdc 	svchi	0x001bbcdc
   124a8:	6ed9eba1 	vfnmsvs.f64	d30, d25, d17
   124ac:	5a827999 	bpl	fe0b0b18 <__bss_end__+0xfe08c7f4>
   124b0:	c3d2e1f0 	bicsgt	lr, r2, #240, 2	; 0x3c
   124b4:	10325476 	eorsne	r5, r2, r6, ror r4
   124b8:	98badcfe 	ldmls	sl!, {r1, r2, r3, r4, r5, r6, r7, sl, fp, ip, lr, pc}
   124bc:	efcdab89 	svc	0x00cdab89
   124c0:	67452301 	strbvs	r2, [r5, -r1, lsl #6]

000124c4 <sha1_update>:
   124c4:	e92d4800 	push	{fp, lr}
   124c8:	e1a0b00d 	mov	fp, sp
   124cc:	e24dd018 	sub	sp, sp, #24
   124d0:	e59f30b8 	ldr	r3, [pc, #184]	; 12590 <sha1_update+0xcc>
   124d4:	e50b0004 	str	r0, [fp, #-4]
   124d8:	e50b1008 	str	r1, [fp, #-8]
   124dc:	e58d200c 	str	r2, [sp, #12]
   124e0:	e58d3008 	str	r3, [sp, #8]
   124e4:	e59d0008 	ldr	r0, [sp, #8]
   124e8:	e59d100c 	ldr	r1, [sp, #12]
   124ec:	e1500001 	cmp	r0, r1
   124f0:	2a000024 	bcs	12588 <sha1_update+0xc4>
   124f4:	e51b0008 	ldr	r0, [fp, #-8]
   124f8:	e59d1008 	ldr	r1, [sp, #8]
   124fc:	e0800001 	add	r0, r0, r1
   12500:	e5d00000 	ldrb	r0, [r0]
   12504:	e51b1004 	ldr	r1, [fp, #-4]
   12508:	e51b2004 	ldr	r2, [fp, #-4]
   1250c:	e5922040 	ldr	r2, [r2, #64]	; 0x40
   12510:	e0811002 	add	r1, r1, r2
   12514:	e5c10000 	strb	r0, [r1]
   12518:	e51b0004 	ldr	r0, [fp, #-4]
   1251c:	e5901040 	ldr	r1, [r0, #64]	; 0x40
   12520:	e2811001 	add	r1, r1, #1
   12524:	e5801040 	str	r1, [r0, #64]	; 0x40
   12528:	e51b0004 	ldr	r0, [fp, #-4]
   1252c:	e5900040 	ldr	r0, [r0, #64]	; 0x40
   12530:	e3500040 	cmp	r0, #64	; 0x40
   12534:	1a00000e 	bne	12574 <sha1_update+0xb0>
   12538:	e59f0050 	ldr	r0, [pc, #80]	; 12590 <sha1_update+0xcc>
   1253c:	e51b1004 	ldr	r1, [fp, #-4]
   12540:	e58d0004 	str	r0, [sp, #4]
   12544:	e1a00001 	mov	r0, r1
   12548:	eb00016f 	bl	12b0c <sha1_transform>
   1254c:	e51b0004 	ldr	r0, [fp, #-4]
   12550:	e5901048 	ldr	r1, [r0, #72]	; 0x48
   12554:	e590e04c 	ldr	lr, [r0, #76]	; 0x4c
   12558:	e2911c02 	adds	r1, r1, #512	; 0x200
   1255c:	e2aee000 	adc	lr, lr, #0
   12560:	e5801048 	str	r1, [r0, #72]	; 0x48
   12564:	e580e04c 	str	lr, [r0, #76]	; 0x4c
   12568:	e51b0004 	ldr	r0, [fp, #-4]
   1256c:	e59d1004 	ldr	r1, [sp, #4]
   12570:	e5801040 	str	r1, [r0, #64]	; 0x40
   12574:	eaffffff 	b	12578 <sha1_update+0xb4>
   12578:	e59d0008 	ldr	r0, [sp, #8]
   1257c:	e2800001 	add	r0, r0, #1
   12580:	e58d0008 	str	r0, [sp, #8]
   12584:	eaffffd6 	b	124e4 <sha1_update+0x20>
   12588:	e1a0d00b 	mov	sp, fp
   1258c:	e8bd8800 	pop	{fp, pc}
   12590:	00000000 	andeq	r0, r0, r0

00012594 <sha1_final>:
   12594:	e92d4800 	push	{fp, lr}
   12598:	e1a0b00d 	mov	fp, sp
   1259c:	e24dd018 	sub	sp, sp, #24
   125a0:	e50b0004 	str	r0, [fp, #-4]
   125a4:	e50b1008 	str	r1, [fp, #-8]
   125a8:	e51b0004 	ldr	r0, [fp, #-4]
   125ac:	e5900040 	ldr	r0, [r0, #64]	; 0x40
   125b0:	e58d000c 	str	r0, [sp, #12]
   125b4:	e51b0004 	ldr	r0, [fp, #-4]
   125b8:	e5900040 	ldr	r0, [r0, #64]	; 0x40
   125bc:	e3500038 	cmp	r0, #56	; 0x38
   125c0:	2a000010 	bcs	12608 <sha1_final+0x74>
   125c4:	e51b0004 	ldr	r0, [fp, #-4]
   125c8:	e59d100c 	ldr	r1, [sp, #12]
   125cc:	e2812001 	add	r2, r1, #1
   125d0:	e58d200c 	str	r2, [sp, #12]
   125d4:	e3a02080 	mov	r2, #128	; 0x80
   125d8:	e7c02001 	strb	r2, [r0, r1]
   125dc:	e59d000c 	ldr	r0, [sp, #12]
   125e0:	e3500038 	cmp	r0, #56	; 0x38
   125e4:	2a000006 	bcs	12604 <sha1_final+0x70>
   125e8:	e51b0004 	ldr	r0, [fp, #-4]
   125ec:	e59d100c 	ldr	r1, [sp, #12]
   125f0:	e2812001 	add	r2, r1, #1
   125f4:	e58d200c 	str	r2, [sp, #12]
   125f8:	e3a02000 	mov	r2, #0
   125fc:	e7c02001 	strb	r2, [r0, r1]
   12600:	eafffff5 	b	125dc <sha1_final+0x48>
   12604:	ea000017 	b	12668 <sha1_final+0xd4>
   12608:	e51b0004 	ldr	r0, [fp, #-4]
   1260c:	e59d100c 	ldr	r1, [sp, #12]
   12610:	e2812001 	add	r2, r1, #1
   12614:	e58d200c 	str	r2, [sp, #12]
   12618:	e3a02080 	mov	r2, #128	; 0x80
   1261c:	e7c02001 	strb	r2, [r0, r1]
   12620:	e59d000c 	ldr	r0, [sp, #12]
   12624:	e3500040 	cmp	r0, #64	; 0x40
   12628:	2a000006 	bcs	12648 <sha1_final+0xb4>
   1262c:	e51b0004 	ldr	r0, [fp, #-4]
   12630:	e59d100c 	ldr	r1, [sp, #12]
   12634:	e2812001 	add	r2, r1, #1
   12638:	e58d200c 	str	r2, [sp, #12]
   1263c:	e3a02000 	mov	r2, #0
   12640:	e7c02001 	strb	r2, [r0, r1]
   12644:	eafffff5 	b	12620 <sha1_final+0x8c>
   12648:	e51b0004 	ldr	r0, [fp, #-4]
   1264c:	e51b1004 	ldr	r1, [fp, #-4]
   12650:	eb00012d 	bl	12b0c <sha1_transform>
   12654:	e51b0004 	ldr	r0, [fp, #-4]
   12658:	e3a01000 	mov	r1, #0
   1265c:	e3a02038 	mov	r2, #56	; 0x38
   12660:	ebfff992 	bl	10cb0 <memset@plt>
   12664:	e58d0008 	str	r0, [sp, #8]
   12668:	e51b0004 	ldr	r0, [fp, #-4]
   1266c:	e5901040 	ldr	r1, [r0, #64]	; 0x40
   12670:	e5902048 	ldr	r2, [r0, #72]	; 0x48
   12674:	e590304c 	ldr	r3, [r0, #76]	; 0x4c
   12678:	e0921181 	adds	r1, r2, r1, lsl #3
   1267c:	e2a32000 	adc	r2, r3, #0
   12680:	e5801048 	str	r1, [r0, #72]	; 0x48
   12684:	e580204c 	str	r2, [r0, #76]	; 0x4c
   12688:	e51b0004 	ldr	r0, [fp, #-4]
   1268c:	e5d01048 	ldrb	r1, [r0, #72]	; 0x48
   12690:	e5c0103f 	strb	r1, [r0, #63]	; 0x3f
   12694:	e51b0004 	ldr	r0, [fp, #-4]
   12698:	e5d01049 	ldrb	r1, [r0, #73]	; 0x49
   1269c:	e5c0103e 	strb	r1, [r0, #62]	; 0x3e
   126a0:	e51b0004 	ldr	r0, [fp, #-4]
   126a4:	e5d0104a 	ldrb	r1, [r0, #74]	; 0x4a
   126a8:	e5c0103d 	strb	r1, [r0, #61]	; 0x3d
   126ac:	e51b0004 	ldr	r0, [fp, #-4]
   126b0:	e5d0104b 	ldrb	r1, [r0, #75]	; 0x4b
   126b4:	e5c0103c 	strb	r1, [r0, #60]	; 0x3c
   126b8:	e51b0004 	ldr	r0, [fp, #-4]
   126bc:	e5d0104c 	ldrb	r1, [r0, #76]	; 0x4c
   126c0:	e5c0103b 	strb	r1, [r0, #59]	; 0x3b
   126c4:	e51b0004 	ldr	r0, [fp, #-4]
   126c8:	e5d0104d 	ldrb	r1, [r0, #77]	; 0x4d
   126cc:	e5c0103a 	strb	r1, [r0, #58]	; 0x3a
   126d0:	e51b0004 	ldr	r0, [fp, #-4]
   126d4:	e5d0104e 	ldrb	r1, [r0, #78]	; 0x4e
   126d8:	e5c01039 	strb	r1, [r0, #57]	; 0x39
   126dc:	e51b0004 	ldr	r0, [fp, #-4]
   126e0:	e5d0004f 	ldrb	r0, [r0, #79]	; 0x4f
   126e4:	e51b1004 	ldr	r1, [fp, #-4]
   126e8:	e5c10038 	strb	r0, [r1, #56]	; 0x38
   126ec:	e51b0004 	ldr	r0, [fp, #-4]
   126f0:	e51b1004 	ldr	r1, [fp, #-4]
   126f4:	eb000104 	bl	12b0c <sha1_transform>
   126f8:	e59f00e0 	ldr	r0, [pc, #224]	; 127e0 <sha1_final+0x24c>
   126fc:	e58d000c 	str	r0, [sp, #12]
   12700:	e59d000c 	ldr	r0, [sp, #12]
   12704:	e3500004 	cmp	r0, #4
   12708:	2a000032 	bcs	127d8 <sha1_final+0x244>
   1270c:	e59f00d0 	ldr	r0, [pc, #208]	; 127e4 <sha1_final+0x250>
   12710:	e59f10d0 	ldr	r1, [pc, #208]	; 127e8 <sha1_final+0x254>
   12714:	e51b2004 	ldr	r2, [fp, #-4]
   12718:	e5922050 	ldr	r2, [r2, #80]	; 0x50
   1271c:	e59d300c 	ldr	r3, [sp, #12]
   12720:	e3a0c018 	mov	ip, #24
   12724:	e04ce183 	sub	lr, ip, r3, lsl #3
   12728:	e1a02e32 	lsr	r2, r2, lr
   1272c:	e51be008 	ldr	lr, [fp, #-8]
   12730:	e7ce2003 	strb	r2, [lr, r3]
   12734:	e51b2004 	ldr	r2, [fp, #-4]
   12738:	e5922054 	ldr	r2, [r2, #84]	; 0x54
   1273c:	e59d300c 	ldr	r3, [sp, #12]
   12740:	e04ce183 	sub	lr, ip, r3, lsl #3
   12744:	e1a02e32 	lsr	r2, r2, lr
   12748:	e51be008 	ldr	lr, [fp, #-8]
   1274c:	e08e3003 	add	r3, lr, r3
   12750:	e5c32004 	strb	r2, [r3, #4]
   12754:	e51b2004 	ldr	r2, [fp, #-4]
   12758:	e5922058 	ldr	r2, [r2, #88]	; 0x58
   1275c:	e59d300c 	ldr	r3, [sp, #12]
   12760:	e04ce183 	sub	lr, ip, r3, lsl #3
   12764:	e1a02e32 	lsr	r2, r2, lr
   12768:	e51be008 	ldr	lr, [fp, #-8]
   1276c:	e08e3003 	add	r3, lr, r3
   12770:	e5c32008 	strb	r2, [r3, #8]
   12774:	e51b2004 	ldr	r2, [fp, #-4]
   12778:	e592205c 	ldr	r2, [r2, #92]	; 0x5c
   1277c:	e59d300c 	ldr	r3, [sp, #12]
   12780:	e04cc183 	sub	ip, ip, r3, lsl #3
   12784:	e1a02c32 	lsr	r2, r2, ip
   12788:	e51bc008 	ldr	ip, [fp, #-8]
   1278c:	e08c3003 	add	r3, ip, r3
   12790:	e5c3200c 	strb	r2, [r3, #12]
   12794:	e51b2004 	ldr	r2, [fp, #-4]
   12798:	e5922060 	ldr	r2, [r2, #96]	; 0x60
   1279c:	e59d300c 	ldr	r3, [sp, #12]
   127a0:	e1a03183 	lsl	r3, r3, #3
   127a4:	e0400003 	sub	r0, r0, r3
   127a8:	e1a00032 	lsr	r0, r2, r0
   127ac:	e20000ff 	and	r0, r0, #255	; 0xff
   127b0:	e51b2008 	ldr	r2, [fp, #-8]
   127b4:	e59d300c 	ldr	r3, [sp, #12]
   127b8:	e2833010 	add	r3, r3, #16
   127bc:	e0822003 	add	r2, r2, r3
   127c0:	e5c20000 	strb	r0, [r2]
   127c4:	e58d1004 	str	r1, [sp, #4]
   127c8:	e59d000c 	ldr	r0, [sp, #12]
   127cc:	e2800001 	add	r0, r0, #1
   127d0:	e58d000c 	str	r0, [sp, #12]
   127d4:	eaffffc9 	b	12700 <sha1_final+0x16c>
   127d8:	e1a0d00b 	mov	sp, fp
   127dc:	e8bd8800 	pop	{fp, pc}
   127e0:	00000000 	andeq	r0, r0, r0
   127e4:	00000018 	andeq	r0, r0, r8, lsl r0
   127e8:	00000003 	andeq	r0, r0, r3

000127ec <base64_encode>:
   127ec:	e92d4c10 	push	{r4, sl, fp, lr}
   127f0:	e28db008 	add	fp, sp, #8
   127f4:	e24dd034 	sub	sp, sp, #52	; 0x34
   127f8:	e59f32e4 	ldr	r3, [pc, #740]	; 12ae4 <base64_encode+0x2f8>
   127fc:	e50b000c 	str	r0, [fp, #-12]
   12800:	e50b1010 	str	r1, [fp, #-16]
   12804:	e50b2014 	str	r2, [fp, #-20]	; 0xffffffec
   12808:	e50b301c 	str	r3, [fp, #-28]	; 0xffffffe4
   1280c:	e50b3018 	str	r3, [fp, #-24]	; 0xffffffe8
   12810:	e51b0018 	ldr	r0, [fp, #-24]	; 0xffffffe8
   12814:	e51b1010 	ldr	r1, [fp, #-16]
   12818:	e1500001 	cmp	r0, r1
   1281c:	aa00006d 	bge	129d8 <base64_encode+0x1ec>
   12820:	e51b0018 	ldr	r0, [fp, #-24]	; 0xffffffe8
   12824:	e59f12c0 	ldr	r1, [pc, #704]	; 12aec <base64_encode+0x300>
   12828:	e751f110 	smmul	r1, r0, r1
   1282c:	e0811fa1 	add	r1, r1, r1, lsr #31
   12830:	e0811081 	add	r1, r1, r1, lsl #1
   12834:	e0400001 	sub	r0, r0, r1
   12838:	e58d001c 	str	r0, [sp, #28]
   1283c:	e59d001c 	ldr	r0, [sp, #28]
   12840:	e3500000 	cmp	r0, #0
   12844:	e58d0018 	str	r0, [sp, #24]
   12848:	0a000008 	beq	12870 <base64_encode+0x84>
   1284c:	eaffffff 	b	12850 <base64_encode+0x64>
   12850:	e59d0018 	ldr	r0, [sp, #24]
   12854:	e3500001 	cmp	r0, #1
   12858:	0a000016 	beq	128b8 <base64_encode+0xcc>
   1285c:	eaffffff 	b	12860 <base64_encode+0x74>
   12860:	e59d0018 	ldr	r0, [sp, #24]
   12864:	e3500002 	cmp	r0, #2
   12868:	0a00002c 	beq	12920 <base64_encode+0x134>
   1286c:	ea000053 	b	129c0 <base64_encode+0x1d4>
   12870:	e59f0290 	ldr	r0, [pc, #656]	; 12b08 <base64_encode+0x31c>
   12874:	e59f1280 	ldr	r1, [pc, #640]	; 12afc <base64_encode+0x310>
   12878:	e51b200c 	ldr	r2, [fp, #-12]
   1287c:	e51b3018 	ldr	r3, [fp, #-24]	; 0xffffffe8
   12880:	e0822003 	add	r2, r2, r3
   12884:	e5d22000 	ldrb	r2, [r2]
   12888:	e1a02142 	asr	r2, r2, #2
   1288c:	e202203f 	and	r2, r2, #63	; 0x3f
   12890:	e0800002 	add	r0, r0, r2
   12894:	e5d00000 	ldrb	r0, [r0]
   12898:	e51b2014 	ldr	r2, [fp, #-20]	; 0xffffffec
   1289c:	e51b301c 	ldr	r3, [fp, #-28]	; 0xffffffe4
   128a0:	e283c001 	add	ip, r3, #1
   128a4:	e50bc01c 	str	ip, [fp, #-28]	; 0xffffffe4
   128a8:	e0822003 	add	r2, r2, r3
   128ac:	e5c20000 	strb	r0, [r2]
   128b0:	e58d1014 	str	r1, [sp, #20]
   128b4:	ea000043 	b	129c8 <base64_encode+0x1dc>
   128b8:	e59f0240 	ldr	r0, [pc, #576]	; 12b00 <base64_encode+0x314>
   128bc:	e59f1240 	ldr	r1, [pc, #576]	; 12b04 <base64_encode+0x318>
   128c0:	e51b200c 	ldr	r2, [fp, #-12]
   128c4:	e51b3018 	ldr	r3, [fp, #-24]	; 0xffffffe8
   128c8:	e2433001 	sub	r3, r3, #1
   128cc:	e0822003 	add	r2, r2, r3
   128d0:	e5d22000 	ldrb	r2, [r2]
   128d4:	e2022003 	and	r2, r2, #3
   128d8:	e1a02202 	lsl	r2, r2, #4
   128dc:	e51b300c 	ldr	r3, [fp, #-12]
   128e0:	e51bc018 	ldr	ip, [fp, #-24]	; 0xffffffe8
   128e4:	e083300c 	add	r3, r3, ip
   128e8:	e5d33000 	ldrb	r3, [r3]
   128ec:	e1a03243 	asr	r3, r3, #4
   128f0:	e203300f 	and	r3, r3, #15
   128f4:	e0822003 	add	r2, r2, r3
   128f8:	e0800002 	add	r0, r0, r2
   128fc:	e5d00000 	ldrb	r0, [r0]
   12900:	e51b2014 	ldr	r2, [fp, #-20]	; 0xffffffec
   12904:	e51b301c 	ldr	r3, [fp, #-28]	; 0xffffffe4
   12908:	e283c001 	add	ip, r3, #1
   1290c:	e50bc01c 	str	ip, [fp, #-28]	; 0xffffffe4
   12910:	e0822003 	add	r2, r2, r3
   12914:	e5c20000 	strb	r0, [r2]
   12918:	e58d1010 	str	r1, [sp, #16]
   1291c:	ea000029 	b	129c8 <base64_encode+0x1dc>
   12920:	e59f01cc 	ldr	r0, [pc, #460]	; 12af4 <base64_encode+0x308>
   12924:	e59f11cc 	ldr	r1, [pc, #460]	; 12af8 <base64_encode+0x30c>
   12928:	e59f21cc 	ldr	r2, [pc, #460]	; 12afc <base64_encode+0x310>
   1292c:	e51b300c 	ldr	r3, [fp, #-12]
   12930:	e51bc018 	ldr	ip, [fp, #-24]	; 0xffffffe8
   12934:	e24cc001 	sub	ip, ip, #1
   12938:	e083300c 	add	r3, r3, ip
   1293c:	e5d33000 	ldrb	r3, [r3]
   12940:	e203300f 	and	r3, r3, #15
   12944:	e1a03103 	lsl	r3, r3, #2
   12948:	e51bc00c 	ldr	ip, [fp, #-12]
   1294c:	e51be018 	ldr	lr, [fp, #-24]	; 0xffffffe8
   12950:	e08cc00e 	add	ip, ip, lr
   12954:	e5dcc000 	ldrb	ip, [ip]
   12958:	e1a0c34c 	asr	ip, ip, #6
   1295c:	e20cc003 	and	ip, ip, #3
   12960:	e083300c 	add	r3, r3, ip
   12964:	e0803003 	add	r3, r0, r3
   12968:	e5d33000 	ldrb	r3, [r3]
   1296c:	e51bc014 	ldr	ip, [fp, #-20]	; 0xffffffec
   12970:	e51be01c 	ldr	lr, [fp, #-28]	; 0xffffffe4
   12974:	e28e4001 	add	r4, lr, #1
   12978:	e50b401c 	str	r4, [fp, #-28]	; 0xffffffe4
   1297c:	e08cc00e 	add	ip, ip, lr
   12980:	e5cc3000 	strb	r3, [ip]
   12984:	e51b300c 	ldr	r3, [fp, #-12]
   12988:	e51bc018 	ldr	ip, [fp, #-24]	; 0xffffffe8
   1298c:	e083300c 	add	r3, r3, ip
   12990:	e5d33000 	ldrb	r3, [r3]
   12994:	e203303f 	and	r3, r3, #63	; 0x3f
   12998:	e0800003 	add	r0, r0, r3
   1299c:	e5d00000 	ldrb	r0, [r0]
   129a0:	e51b3014 	ldr	r3, [fp, #-20]	; 0xffffffec
   129a4:	e51bc01c 	ldr	ip, [fp, #-28]	; 0xffffffe4
   129a8:	e28ce001 	add	lr, ip, #1
   129ac:	e50be01c 	str	lr, [fp, #-28]	; 0xffffffe4
   129b0:	e083300c 	add	r3, r3, ip
   129b4:	e5c30000 	strb	r0, [r3]
   129b8:	e58d200c 	str	r2, [sp, #12]
   129bc:	e58d1008 	str	r1, [sp, #8]
   129c0:	eaffffff 	b	129c4 <base64_encode+0x1d8>
   129c4:	eaffffff 	b	129c8 <base64_encode+0x1dc>
   129c8:	e51b0018 	ldr	r0, [fp, #-24]	; 0xffffffe8
   129cc:	e2800001 	add	r0, r0, #1
   129d0:	e50b0018 	str	r0, [fp, #-24]	; 0xffffffe8
   129d4:	eaffff8d 	b	12810 <base64_encode+0x24>
   129d8:	e59f0108 	ldr	r0, [pc, #264]	; 12ae8 <base64_encode+0x2fc>
   129dc:	e51b1018 	ldr	r1, [fp, #-24]	; 0xffffffe8
   129e0:	e2411001 	sub	r1, r1, #1
   129e4:	e50b1018 	str	r1, [fp, #-24]	; 0xffffffe8
   129e8:	e51b1018 	ldr	r1, [fp, #-24]	; 0xffffffe8
   129ec:	e59f20f8 	ldr	r2, [pc, #248]	; 12aec <base64_encode+0x300>
   129f0:	e752f211 	smmul	r2, r1, r2
   129f4:	e0822fa2 	add	r2, r2, r2, lsr #31
   129f8:	e0822082 	add	r2, r2, r2, lsl #1
   129fc:	e0411002 	sub	r1, r1, r2
   12a00:	e3510000 	cmp	r1, #0
   12a04:	e58d0004 	str	r0, [sp, #4]
   12a08:	1a000016 	bne	12a68 <base64_encode+0x27c>
   12a0c:	e51b000c 	ldr	r0, [fp, #-12]
   12a10:	e51b1018 	ldr	r1, [fp, #-24]	; 0xffffffe8
   12a14:	e7d00001 	ldrb	r0, [r0, r1]
   12a18:	e2000003 	and	r0, r0, #3
   12a1c:	e59f10cc 	ldr	r1, [pc, #204]	; 12af0 <base64_encode+0x304>
   12a20:	e7d10200 	ldrb	r0, [r1, r0, lsl #4]
   12a24:	e51b1014 	ldr	r1, [fp, #-20]	; 0xffffffec
   12a28:	e51b201c 	ldr	r2, [fp, #-28]	; 0xffffffe4
   12a2c:	e2823001 	add	r3, r2, #1
   12a30:	e50b301c 	str	r3, [fp, #-28]	; 0xffffffe4
   12a34:	e7c10002 	strb	r0, [r1, r2]
   12a38:	e51b0014 	ldr	r0, [fp, #-20]	; 0xffffffec
   12a3c:	e51b101c 	ldr	r1, [fp, #-28]	; 0xffffffe4
   12a40:	e2812001 	add	r2, r1, #1
   12a44:	e50b201c 	str	r2, [fp, #-28]	; 0xffffffe4
   12a48:	e3a0203d 	mov	r2, #61	; 0x3d
   12a4c:	e7c02001 	strb	r2, [r0, r1]
   12a50:	e51b0014 	ldr	r0, [fp, #-20]	; 0xffffffec
   12a54:	e51b101c 	ldr	r1, [fp, #-28]	; 0xffffffe4
   12a58:	e2813001 	add	r3, r1, #1
   12a5c:	e50b301c 	str	r3, [fp, #-28]	; 0xffffffe4
   12a60:	e7c02001 	strb	r2, [r0, r1]
   12a64:	ea00001b 	b	12ad8 <base64_encode+0x2ec>
   12a68:	e59f0078 	ldr	r0, [pc, #120]	; 12ae8 <base64_encode+0x2fc>
   12a6c:	e51b1018 	ldr	r1, [fp, #-24]	; 0xffffffe8
   12a70:	e59f2074 	ldr	r2, [pc, #116]	; 12aec <base64_encode+0x300>
   12a74:	e752f211 	smmul	r2, r1, r2
   12a78:	e0822fa2 	add	r2, r2, r2, lsr #31
   12a7c:	e0822082 	add	r2, r2, r2, lsl #1
   12a80:	e0411002 	sub	r1, r1, r2
   12a84:	e3510001 	cmp	r1, #1
   12a88:	e58d0000 	str	r0, [sp]
   12a8c:	1a000010 	bne	12ad4 <base64_encode+0x2e8>
   12a90:	e51b000c 	ldr	r0, [fp, #-12]
   12a94:	e51b1018 	ldr	r1, [fp, #-24]	; 0xffffffe8
   12a98:	e7d00001 	ldrb	r0, [r0, r1]
   12a9c:	e200000f 	and	r0, r0, #15
   12aa0:	e59f1048 	ldr	r1, [pc, #72]	; 12af0 <base64_encode+0x304>
   12aa4:	e7d10100 	ldrb	r0, [r1, r0, lsl #2]
   12aa8:	e51b1014 	ldr	r1, [fp, #-20]	; 0xffffffec
   12aac:	e51b201c 	ldr	r2, [fp, #-28]	; 0xffffffe4
   12ab0:	e2823001 	add	r3, r2, #1
   12ab4:	e50b301c 	str	r3, [fp, #-28]	; 0xffffffe4
   12ab8:	e7c10002 	strb	r0, [r1, r2]
   12abc:	e51b0014 	ldr	r0, [fp, #-20]	; 0xffffffec
   12ac0:	e51b101c 	ldr	r1, [fp, #-28]	; 0xffffffe4
   12ac4:	e2812001 	add	r2, r1, #1
   12ac8:	e50b201c 	str	r2, [fp, #-28]	; 0xffffffe4
   12acc:	e3a0203d 	mov	r2, #61	; 0x3d
   12ad0:	e7c02001 	strb	r2, [r0, r1]
   12ad4:	eaffffff 	b	12ad8 <base64_encode+0x2ec>
   12ad8:	e51b001c 	ldr	r0, [fp, #-28]	; 0xffffffe4
   12adc:	e24bd008 	sub	sp, fp, #8
   12ae0:	e8bd8c10 	pop	{r4, sl, fp, pc}
   12ae4:	00000000 	andeq	r0, r0, r0
   12ae8:	00000003 	andeq	r0, r0, r3
   12aec:	55555556 	ldrbpl	r5, [r5, #-1366]	; 0xfffffaaa
   12af0:	000240c4 	andeq	r4, r2, r4, asr #1
   12af4:	000240c4 	andeq	r4, r2, r4, asr #1
   12af8:	00000006 	andeq	r0, r0, r6
   12afc:	00000002 	andeq	r0, r0, r2
   12b00:	000240c4 	andeq	r4, r2, r4, asr #1
   12b04:	00000004 	andeq	r0, r0, r4
   12b08:	000240c4 	andeq	r4, r2, r4, asr #1

00012b0c <sha1_transform>:
   12b0c:	e92d4c10 	push	{r4, sl, fp, lr}
   12b10:	e28db008 	add	fp, sp, #8
   12b14:	e24dde19 	sub	sp, sp, #400	; 0x190
   12b18:	e59f2458 	ldr	r2, [pc, #1112]	; 12f78 <sha1_transform+0x46c>
   12b1c:	e50b000c 	str	r0, [fp, #-12]
   12b20:	e50b1010 	str	r1, [fp, #-16]
   12b24:	e50b2028 	str	r2, [fp, #-40]	; 0xffffffd8
   12b28:	e50b202c 	str	r2, [fp, #-44]	; 0xffffffd4
   12b2c:	e51b0028 	ldr	r0, [fp, #-40]	; 0xffffffd8
   12b30:	e3500010 	cmp	r0, #16
   12b34:	2a000016 	bcs	12b94 <sha1_transform+0x88>
   12b38:	e59f043c 	ldr	r0, [pc, #1084]	; 12f7c <sha1_transform+0x470>
   12b3c:	e51b1010 	ldr	r1, [fp, #-16]
   12b40:	e51b202c 	ldr	r2, [fp, #-44]	; 0xffffffd4
   12b44:	e7f12002 	ldrb	r2, [r1, r2]!
   12b48:	e1a02c02 	lsl	r2, r2, #24
   12b4c:	e5d13001 	ldrb	r3, [r1, #1]
   12b50:	e5d1c002 	ldrb	ip, [r1, #2]
   12b54:	e5d11003 	ldrb	r1, [r1, #3]
   12b58:	e1822803 	orr	r2, r2, r3, lsl #16
   12b5c:	e182240c 	orr	r2, r2, ip, lsl #8
   12b60:	e1821001 	orr	r1, r2, r1
   12b64:	e51b2028 	ldr	r2, [fp, #-40]	; 0xffffffd8
   12b68:	e28d3028 	add	r3, sp, #40	; 0x28
   12b6c:	e0832102 	add	r2, r3, r2, lsl #2
   12b70:	e5821000 	str	r1, [r2]
   12b74:	e58d0024 	str	r0, [sp, #36]	; 0x24
   12b78:	e51b0028 	ldr	r0, [fp, #-40]	; 0xffffffd8
   12b7c:	e2800001 	add	r0, r0, #1
   12b80:	e50b0028 	str	r0, [fp, #-40]	; 0xffffffd8
   12b84:	e51b002c 	ldr	r0, [fp, #-44]	; 0xffffffd4
   12b88:	e2800004 	add	r0, r0, #4
   12b8c:	e50b002c 	str	r0, [fp, #-44]	; 0xffffffd4
   12b90:	eaffffe5 	b	12b2c <sha1_transform+0x20>
   12b94:	eaffffff 	b	12b98 <sha1_transform+0x8c>
   12b98:	e51b0028 	ldr	r0, [fp, #-40]	; 0xffffffd8
   12b9c:	e3500050 	cmp	r0, #80	; 0x50
   12ba0:	2a000015 	bcs	12bfc <sha1_transform+0xf0>
   12ba4:	e59f03d0 	ldr	r0, [pc, #976]	; 12f7c <sha1_transform+0x470>
   12ba8:	e51b1028 	ldr	r1, [fp, #-40]	; 0xffffffd8
   12bac:	e28d2028 	add	r2, sp, #40	; 0x28
   12bb0:	e0823101 	add	r3, r2, r1, lsl #2
   12bb4:	e513c040 	ldr	ip, [r3, #-64]	; 0xffffffc0
   12bb8:	e513e038 	ldr	lr, [r3, #-56]	; 0xffffffc8
   12bbc:	e5134020 	ldr	r4, [r3, #-32]	; 0xffffffe0
   12bc0:	e513300c 	ldr	r3, [r3, #-12]
   12bc4:	e0233004 	eor	r3, r3, r4
   12bc8:	e023300e 	eor	r3, r3, lr
   12bcc:	e023300c 	eor	r3, r3, ip
   12bd0:	e7823101 	str	r3, [r2, r1, lsl #2]
   12bd4:	e51b1028 	ldr	r1, [fp, #-40]	; 0xffffffd8
   12bd8:	e0823101 	add	r3, r2, r1, lsl #2
   12bdc:	e7921101 	ldr	r1, [r2, r1, lsl #2]
   12be0:	e1a01fe1 	ror	r1, r1, #31
   12be4:	e5831000 	str	r1, [r3]
   12be8:	e58d0020 	str	r0, [sp, #32]
   12bec:	e51b0028 	ldr	r0, [fp, #-40]	; 0xffffffd8
   12bf0:	e2800001 	add	r0, r0, #1
   12bf4:	e50b0028 	str	r0, [fp, #-40]	; 0xffffffd8
   12bf8:	eaffffe6 	b	12b98 <sha1_transform+0x8c>
   12bfc:	e59f0374 	ldr	r0, [pc, #884]	; 12f78 <sha1_transform+0x46c>
   12c00:	e51b100c 	ldr	r1, [fp, #-12]
   12c04:	e5911050 	ldr	r1, [r1, #80]	; 0x50
   12c08:	e50b1014 	str	r1, [fp, #-20]	; 0xffffffec
   12c0c:	e51b100c 	ldr	r1, [fp, #-12]
   12c10:	e5911054 	ldr	r1, [r1, #84]	; 0x54
   12c14:	e50b1018 	str	r1, [fp, #-24]	; 0xffffffe8
   12c18:	e51b100c 	ldr	r1, [fp, #-12]
   12c1c:	e5911058 	ldr	r1, [r1, #88]	; 0x58
   12c20:	e50b101c 	str	r1, [fp, #-28]	; 0xffffffe4
   12c24:	e51b100c 	ldr	r1, [fp, #-12]
   12c28:	e591105c 	ldr	r1, [r1, #92]	; 0x5c
   12c2c:	e50b1020 	str	r1, [fp, #-32]	; 0xffffffe0
   12c30:	e51b100c 	ldr	r1, [fp, #-12]
   12c34:	e5911060 	ldr	r1, [r1, #96]	; 0x60
   12c38:	e50b1024 	str	r1, [fp, #-36]	; 0xffffffdc
   12c3c:	e50b0028 	str	r0, [fp, #-40]	; 0xffffffd8
   12c40:	e51b0028 	ldr	r0, [fp, #-40]	; 0xffffffd8
   12c44:	e3500014 	cmp	r0, #20
   12c48:	2a000028 	bcs	12cf0 <sha1_transform+0x1e4>
   12c4c:	e59f0328 	ldr	r0, [pc, #808]	; 12f7c <sha1_transform+0x470>
   12c50:	e59f1328 	ldr	r1, [pc, #808]	; 12f80 <sha1_transform+0x474>
   12c54:	e51b2014 	ldr	r2, [fp, #-20]	; 0xffffffec
   12c58:	e51b3018 	ldr	r3, [fp, #-24]	; 0xffffffe8
   12c5c:	e51bc01c 	ldr	ip, [fp, #-28]	; 0xffffffe4
   12c60:	e003c00c 	and	ip, r3, ip
   12c64:	e51be020 	ldr	lr, [fp, #-32]	; 0xffffffe0
   12c68:	e1ce3003 	bic	r3, lr, r3
   12c6c:	e02c3003 	eor	r3, ip, r3
   12c70:	e0832de2 	add	r2, r3, r2, ror #27
   12c74:	e51b3024 	ldr	r3, [fp, #-36]	; 0xffffffdc
   12c78:	e0822003 	add	r2, r2, r3
   12c7c:	e51b300c 	ldr	r3, [fp, #-12]
   12c80:	e5933064 	ldr	r3, [r3, #100]	; 0x64
   12c84:	e0822003 	add	r2, r2, r3
   12c88:	e51b3028 	ldr	r3, [fp, #-40]	; 0xffffffd8
   12c8c:	e28dc028 	add	ip, sp, #40	; 0x28
   12c90:	e08c3103 	add	r3, ip, r3, lsl #2
   12c94:	e5933000 	ldr	r3, [r3]
   12c98:	e0822003 	add	r2, r2, r3
   12c9c:	e50b2030 	str	r2, [fp, #-48]	; 0xffffffd0
   12ca0:	e51b2020 	ldr	r2, [fp, #-32]	; 0xffffffe0
   12ca4:	e50b2024 	str	r2, [fp, #-36]	; 0xffffffdc
   12ca8:	e51b201c 	ldr	r2, [fp, #-28]	; 0xffffffe4
   12cac:	e50b2020 	str	r2, [fp, #-32]	; 0xffffffe0
   12cb0:	e51b2018 	ldr	r2, [fp, #-24]	; 0xffffffe8
   12cb4:	e1a02f02 	lsl	r2, r2, #30
   12cb8:	e51b3018 	ldr	r3, [fp, #-24]	; 0xffffffe8
   12cbc:	e1a03123 	lsr	r3, r3, #2
   12cc0:	e1822003 	orr	r2, r2, r3
   12cc4:	e50b201c 	str	r2, [fp, #-28]	; 0xffffffe4
   12cc8:	e51b2014 	ldr	r2, [fp, #-20]	; 0xffffffec
   12ccc:	e50b2018 	str	r2, [fp, #-24]	; 0xffffffe8
   12cd0:	e51b2030 	ldr	r2, [fp, #-48]	; 0xffffffd0
   12cd4:	e50b2014 	str	r2, [fp, #-20]	; 0xffffffec
   12cd8:	e58d001c 	str	r0, [sp, #28]
   12cdc:	e58d1018 	str	r1, [sp, #24]
   12ce0:	e51b0028 	ldr	r0, [fp, #-40]	; 0xffffffd8
   12ce4:	e2800001 	add	r0, r0, #1
   12ce8:	e50b0028 	str	r0, [fp, #-40]	; 0xffffffd8
   12cec:	eaffffd3 	b	12c40 <sha1_transform+0x134>
   12cf0:	eaffffff 	b	12cf4 <sha1_transform+0x1e8>
   12cf4:	e51b0028 	ldr	r0, [fp, #-40]	; 0xffffffd8
   12cf8:	e3500028 	cmp	r0, #40	; 0x28
   12cfc:	2a000027 	bcs	12da0 <sha1_transform+0x294>
   12d00:	e59f0274 	ldr	r0, [pc, #628]	; 12f7c <sha1_transform+0x470>
   12d04:	e59f1274 	ldr	r1, [pc, #628]	; 12f80 <sha1_transform+0x474>
   12d08:	e51b2014 	ldr	r2, [fp, #-20]	; 0xffffffec
   12d0c:	e51b3018 	ldr	r3, [fp, #-24]	; 0xffffffe8
   12d10:	e51bc01c 	ldr	ip, [fp, #-28]	; 0xffffffe4
   12d14:	e023300c 	eor	r3, r3, ip
   12d18:	e51bc020 	ldr	ip, [fp, #-32]	; 0xffffffe0
   12d1c:	e023300c 	eor	r3, r3, ip
   12d20:	e0832de2 	add	r2, r3, r2, ror #27
   12d24:	e51b3024 	ldr	r3, [fp, #-36]	; 0xffffffdc
   12d28:	e0822003 	add	r2, r2, r3
   12d2c:	e51b300c 	ldr	r3, [fp, #-12]
   12d30:	e5933068 	ldr	r3, [r3, #104]	; 0x68
   12d34:	e0822003 	add	r2, r2, r3
   12d38:	e51b3028 	ldr	r3, [fp, #-40]	; 0xffffffd8
   12d3c:	e28dc028 	add	ip, sp, #40	; 0x28
   12d40:	e08c3103 	add	r3, ip, r3, lsl #2
   12d44:	e5933000 	ldr	r3, [r3]
   12d48:	e0822003 	add	r2, r2, r3
   12d4c:	e50b2030 	str	r2, [fp, #-48]	; 0xffffffd0
   12d50:	e51b2020 	ldr	r2, [fp, #-32]	; 0xffffffe0
   12d54:	e50b2024 	str	r2, [fp, #-36]	; 0xffffffdc
   12d58:	e51b201c 	ldr	r2, [fp, #-28]	; 0xffffffe4
   12d5c:	e50b2020 	str	r2, [fp, #-32]	; 0xffffffe0
   12d60:	e51b2018 	ldr	r2, [fp, #-24]	; 0xffffffe8
   12d64:	e1a02f02 	lsl	r2, r2, #30
   12d68:	e51b3018 	ldr	r3, [fp, #-24]	; 0xffffffe8
   12d6c:	e1a03123 	lsr	r3, r3, #2
   12d70:	e1822003 	orr	r2, r2, r3
   12d74:	e50b201c 	str	r2, [fp, #-28]	; 0xffffffe4
   12d78:	e51b2014 	ldr	r2, [fp, #-20]	; 0xffffffec
   12d7c:	e50b2018 	str	r2, [fp, #-24]	; 0xffffffe8
   12d80:	e51b2030 	ldr	r2, [fp, #-48]	; 0xffffffd0
   12d84:	e50b2014 	str	r2, [fp, #-20]	; 0xffffffec
   12d88:	e58d0014 	str	r0, [sp, #20]
   12d8c:	e58d1010 	str	r1, [sp, #16]
   12d90:	e51b0028 	ldr	r0, [fp, #-40]	; 0xffffffd8
   12d94:	e2800001 	add	r0, r0, #1
   12d98:	e50b0028 	str	r0, [fp, #-40]	; 0xffffffd8
   12d9c:	eaffffd4 	b	12cf4 <sha1_transform+0x1e8>
   12da0:	eaffffff 	b	12da4 <sha1_transform+0x298>
   12da4:	e51b0028 	ldr	r0, [fp, #-40]	; 0xffffffd8
   12da8:	e350003c 	cmp	r0, #60	; 0x3c
   12dac:	2a00002a 	bcs	12e5c <sha1_transform+0x350>
   12db0:	e59f01c4 	ldr	r0, [pc, #452]	; 12f7c <sha1_transform+0x470>
   12db4:	e59f11c4 	ldr	r1, [pc, #452]	; 12f80 <sha1_transform+0x474>
   12db8:	e51b2014 	ldr	r2, [fp, #-20]	; 0xffffffec
   12dbc:	e51b3018 	ldr	r3, [fp, #-24]	; 0xffffffe8
   12dc0:	e51bc01c 	ldr	ip, [fp, #-28]	; 0xffffffe4
   12dc4:	e003e00c 	and	lr, r3, ip
   12dc8:	e51b4020 	ldr	r4, [fp, #-32]	; 0xffffffe0
   12dcc:	e0033004 	and	r3, r3, r4
   12dd0:	e02e3003 	eor	r3, lr, r3
   12dd4:	e00cc004 	and	ip, ip, r4
   12dd8:	e023300c 	eor	r3, r3, ip
   12ddc:	e0832de2 	add	r2, r3, r2, ror #27
   12de0:	e51b3024 	ldr	r3, [fp, #-36]	; 0xffffffdc
   12de4:	e0822003 	add	r2, r2, r3
   12de8:	e51b300c 	ldr	r3, [fp, #-12]
   12dec:	e593306c 	ldr	r3, [r3, #108]	; 0x6c
   12df0:	e0822003 	add	r2, r2, r3
   12df4:	e51b3028 	ldr	r3, [fp, #-40]	; 0xffffffd8
   12df8:	e28dc028 	add	ip, sp, #40	; 0x28
   12dfc:	e08c3103 	add	r3, ip, r3, lsl #2
   12e00:	e5933000 	ldr	r3, [r3]
   12e04:	e0822003 	add	r2, r2, r3
   12e08:	e50b2030 	str	r2, [fp, #-48]	; 0xffffffd0
   12e0c:	e51b2020 	ldr	r2, [fp, #-32]	; 0xffffffe0
   12e10:	e50b2024 	str	r2, [fp, #-36]	; 0xffffffdc
   12e14:	e51b201c 	ldr	r2, [fp, #-28]	; 0xffffffe4
   12e18:	e50b2020 	str	r2, [fp, #-32]	; 0xffffffe0
   12e1c:	e51b2018 	ldr	r2, [fp, #-24]	; 0xffffffe8
   12e20:	e1a02f02 	lsl	r2, r2, #30
   12e24:	e51b3018 	ldr	r3, [fp, #-24]	; 0xffffffe8
   12e28:	e1a03123 	lsr	r3, r3, #2
   12e2c:	e1822003 	orr	r2, r2, r3
   12e30:	e50b201c 	str	r2, [fp, #-28]	; 0xffffffe4
   12e34:	e51b2014 	ldr	r2, [fp, #-20]	; 0xffffffec
   12e38:	e50b2018 	str	r2, [fp, #-24]	; 0xffffffe8
   12e3c:	e51b2030 	ldr	r2, [fp, #-48]	; 0xffffffd0
   12e40:	e50b2014 	str	r2, [fp, #-20]	; 0xffffffec
   12e44:	e58d000c 	str	r0, [sp, #12]
   12e48:	e58d1008 	str	r1, [sp, #8]
   12e4c:	e51b0028 	ldr	r0, [fp, #-40]	; 0xffffffd8
   12e50:	e2800001 	add	r0, r0, #1
   12e54:	e50b0028 	str	r0, [fp, #-40]	; 0xffffffd8
   12e58:	eaffffd1 	b	12da4 <sha1_transform+0x298>
   12e5c:	eaffffff 	b	12e60 <sha1_transform+0x354>
   12e60:	e51b0028 	ldr	r0, [fp, #-40]	; 0xffffffd8
   12e64:	e3500050 	cmp	r0, #80	; 0x50
   12e68:	2a000027 	bcs	12f0c <sha1_transform+0x400>
   12e6c:	e59f0108 	ldr	r0, [pc, #264]	; 12f7c <sha1_transform+0x470>
   12e70:	e59f1108 	ldr	r1, [pc, #264]	; 12f80 <sha1_transform+0x474>
   12e74:	e51b2014 	ldr	r2, [fp, #-20]	; 0xffffffec
   12e78:	e51b3018 	ldr	r3, [fp, #-24]	; 0xffffffe8
   12e7c:	e51bc01c 	ldr	ip, [fp, #-28]	; 0xffffffe4
   12e80:	e023300c 	eor	r3, r3, ip
   12e84:	e51bc020 	ldr	ip, [fp, #-32]	; 0xffffffe0
   12e88:	e023300c 	eor	r3, r3, ip
   12e8c:	e0832de2 	add	r2, r3, r2, ror #27
   12e90:	e51b3024 	ldr	r3, [fp, #-36]	; 0xffffffdc
   12e94:	e0822003 	add	r2, r2, r3
   12e98:	e51b300c 	ldr	r3, [fp, #-12]
   12e9c:	e5933070 	ldr	r3, [r3, #112]	; 0x70
   12ea0:	e0822003 	add	r2, r2, r3
   12ea4:	e51b3028 	ldr	r3, [fp, #-40]	; 0xffffffd8
   12ea8:	e28dc028 	add	ip, sp, #40	; 0x28
   12eac:	e08c3103 	add	r3, ip, r3, lsl #2
   12eb0:	e5933000 	ldr	r3, [r3]
   12eb4:	e0822003 	add	r2, r2, r3
   12eb8:	e50b2030 	str	r2, [fp, #-48]	; 0xffffffd0
   12ebc:	e51b2020 	ldr	r2, [fp, #-32]	; 0xffffffe0
   12ec0:	e50b2024 	str	r2, [fp, #-36]	; 0xffffffdc
   12ec4:	e51b201c 	ldr	r2, [fp, #-28]	; 0xffffffe4
   12ec8:	e50b2020 	str	r2, [fp, #-32]	; 0xffffffe0
   12ecc:	e51b2018 	ldr	r2, [fp, #-24]	; 0xffffffe8
   12ed0:	e1a02f02 	lsl	r2, r2, #30
   12ed4:	e51b3018 	ldr	r3, [fp, #-24]	; 0xffffffe8
   12ed8:	e1a03123 	lsr	r3, r3, #2
   12edc:	e1822003 	orr	r2, r2, r3
   12ee0:	e50b201c 	str	r2, [fp, #-28]	; 0xffffffe4
   12ee4:	e51b2014 	ldr	r2, [fp, #-20]	; 0xffffffec
   12ee8:	e50b2018 	str	r2, [fp, #-24]	; 0xffffffe8
   12eec:	e51b2030 	ldr	r2, [fp, #-48]	; 0xffffffd0
   12ef0:	e50b2014 	str	r2, [fp, #-20]	; 0xffffffec
   12ef4:	e58d0004 	str	r0, [sp, #4]
   12ef8:	e58d1000 	str	r1, [sp]
   12efc:	e51b0028 	ldr	r0, [fp, #-40]	; 0xffffffd8
   12f00:	e2800001 	add	r0, r0, #1
   12f04:	e50b0028 	str	r0, [fp, #-40]	; 0xffffffd8
   12f08:	eaffffd4 	b	12e60 <sha1_transform+0x354>
   12f0c:	e51b0014 	ldr	r0, [fp, #-20]	; 0xffffffec
   12f10:	e51b100c 	ldr	r1, [fp, #-12]
   12f14:	e5912050 	ldr	r2, [r1, #80]	; 0x50
   12f18:	e0820000 	add	r0, r2, r0
   12f1c:	e5810050 	str	r0, [r1, #80]	; 0x50
   12f20:	e51b0018 	ldr	r0, [fp, #-24]	; 0xffffffe8
   12f24:	e51b100c 	ldr	r1, [fp, #-12]
   12f28:	e5912054 	ldr	r2, [r1, #84]	; 0x54
   12f2c:	e0820000 	add	r0, r2, r0
   12f30:	e5810054 	str	r0, [r1, #84]	; 0x54
   12f34:	e51b001c 	ldr	r0, [fp, #-28]	; 0xffffffe4
   12f38:	e51b100c 	ldr	r1, [fp, #-12]
   12f3c:	e5912058 	ldr	r2, [r1, #88]	; 0x58
   12f40:	e0820000 	add	r0, r2, r0
   12f44:	e5810058 	str	r0, [r1, #88]	; 0x58
   12f48:	e51b0020 	ldr	r0, [fp, #-32]	; 0xffffffe0
   12f4c:	e51b100c 	ldr	r1, [fp, #-12]
   12f50:	e591205c 	ldr	r2, [r1, #92]	; 0x5c
   12f54:	e0820000 	add	r0, r2, r0
   12f58:	e581005c 	str	r0, [r1, #92]	; 0x5c
   12f5c:	e51b0024 	ldr	r0, [fp, #-36]	; 0xffffffdc
   12f60:	e51b100c 	ldr	r1, [fp, #-12]
   12f64:	e5912060 	ldr	r2, [r1, #96]	; 0x60
   12f68:	e0820000 	add	r0, r2, r0
   12f6c:	e5810060 	str	r0, [r1, #96]	; 0x60
   12f70:	e24bd008 	sub	sp, fp, #8
   12f74:	e8bd8c10 	pop	{r4, sl, fp, pc}
   12f78:	00000000 	andeq	r0, r0, r0
   12f7c:	00000002 	andeq	r0, r0, r2
   12f80:	0000001e 	andeq	r0, r0, lr, lsl r0

00012f84 <json_decref>:
   12f84:	e92d4800 	push	{fp, lr}
   12f88:	e1a0b00d 	mov	fp, sp
   12f8c:	e24dd018 	sub	sp, sp, #24
   12f90:	e59f108c 	ldr	r1, [pc, #140]	; 13024 <json_decref+0xa0>
   12f94:	e50b0004 	str	r0, [fp, #-4]
   12f98:	e51b0004 	ldr	r0, [fp, #-4]
   12f9c:	e1500001 	cmp	r0, r1
   12fa0:	0a00001d 	beq	1301c <json_decref+0x98>
   12fa4:	e51b0004 	ldr	r0, [fp, #-4]
   12fa8:	e5900004 	ldr	r0, [r0, #4]
   12fac:	e3700001 	cmn	r0, #1
   12fb0:	0a000019 	beq	1301c <json_decref+0x98>
   12fb4:	e59f006c 	ldr	r0, [pc, #108]	; 13028 <json_decref+0xa4>
   12fb8:	e51b1004 	ldr	r1, [fp, #-4]
   12fbc:	e2811004 	add	r1, r1, #4
   12fc0:	e50b0008 	str	r0, [fp, #-8]
   12fc4:	e51b0008 	ldr	r0, [fp, #-8]
   12fc8:	e3a02000 	mov	r2, #0
   12fcc:	ee072fba 	mcr	15, 0, r2, cr7, cr10, {5}
   12fd0:	e58d1008 	str	r1, [sp, #8]
   12fd4:	e58d0004 	str	r0, [sp, #4]
   12fd8:	e59d0008 	ldr	r0, [sp, #8]
   12fdc:	e1901f9f 	ldrex	r1, [r0]
   12fe0:	e59d2004 	ldr	r2, [sp, #4]
   12fe4:	e0413002 	sub	r3, r1, r2
   12fe8:	e180cf93 	strex	ip, r3, [r0]
   12fec:	e35c0000 	cmp	ip, #0
   12ff0:	e58d1000 	str	r1, [sp]
   12ff4:	1afffff7 	bne	12fd8 <json_decref+0x54>
   12ff8:	e59d0000 	ldr	r0, [sp]
   12ffc:	e59d1004 	ldr	r1, [sp, #4]
   13000:	e0402001 	sub	r2, r0, r1
   13004:	e58d200c 	str	r2, [sp, #12]
   13008:	e59d200c 	ldr	r2, [sp, #12]
   1300c:	e3520000 	cmp	r2, #0
   13010:	1a000001 	bne	1301c <json_decref+0x98>
   13014:	e51b0004 	ldr	r0, [fp, #-4]
   13018:	ebfff6eb 	bl	10bcc <json_delete@plt>
   1301c:	e1a0d00b 	mov	sp, fp
   13020:	e8bd8800 	pop	{fp, pc}
   13024:	00000000 	andeq	r0, r0, r0
   13028:	00000001 	andeq	r0, r0, r1

0001302c <print_usage>:
   1302c:	e92d4800 	push	{fp, lr}
   13030:	e1a0b00d 	mov	fp, sp
   13034:	e24dd020 	sub	sp, sp, #32
   13038:	e59f1084 	ldr	r1, [pc, #132]	; 130c4 <print_usage+0x98>
   1303c:	e50b0004 	str	r0, [fp, #-4]
   13040:	e51b0004 	ldr	r0, [fp, #-4]
   13044:	e50b0008 	str	r0, [fp, #-8]
   13048:	e1a00001 	mov	r0, r1
   1304c:	e51b1008 	ldr	r1, [fp, #-8]
   13050:	ebfff6d1 	bl	10b9c <printf@plt>
   13054:	e59f1064 	ldr	r1, [pc, #100]	; 130c0 <print_usage+0x94>
   13058:	e50b000c 	str	r0, [fp, #-12]
   1305c:	e1a00001 	mov	r0, r1
   13060:	ebfff6cd 	bl	10b9c <printf@plt>
   13064:	e59f1050 	ldr	r1, [pc, #80]	; 130bc <print_usage+0x90>
   13068:	e58d0010 	str	r0, [sp, #16]
   1306c:	e1a00001 	mov	r0, r1
   13070:	ebfff6c9 	bl	10b9c <printf@plt>
   13074:	e59f103c 	ldr	r1, [pc, #60]	; 130b8 <print_usage+0x8c>
   13078:	e58d000c 	str	r0, [sp, #12]
   1307c:	e1a00001 	mov	r0, r1
   13080:	ebfff6c5 	bl	10b9c <printf@plt>
   13084:	e59f1028 	ldr	r1, [pc, #40]	; 130b4 <print_usage+0x88>
   13088:	e58d0008 	str	r0, [sp, #8]
   1308c:	e1a00001 	mov	r0, r1
   13090:	ebfff6c1 	bl	10b9c <printf@plt>
   13094:	e59f1014 	ldr	r1, [pc, #20]	; 130b0 <print_usage+0x84>
   13098:	e58d0004 	str	r0, [sp, #4]
   1309c:	e1a00001 	mov	r0, r1
   130a0:	ebfff6bd 	bl	10b9c <printf@plt>
   130a4:	e58d0000 	str	r0, [sp]
   130a8:	e1a0d00b 	mov	sp, fp
   130ac:	e8bd8800 	pop	{fp, pc}
   130b0:	000136f5 	strdeq	r3, [r1], -r5
   130b4:	000136bc 			; <UNDEFINED> instruction: 0x000136bc
   130b8:	0001368a 	andeq	r3, r1, sl, lsl #13
   130bc:	00013661 	andeq	r3, r1, r1, ror #12
   130c0:	0001362e 	andeq	r3, r1, lr, lsr #12
   130c4:	00013619 	andeq	r3, r1, r9, lsl r6

000130c8 <__libc_csu_init>:
   130c8:	e92d47f0 	push	{r4, r5, r6, r7, r8, r9, sl, lr}
   130cc:	e1a07000 	mov	r7, r0
   130d0:	e59f6048 	ldr	r6, [pc, #72]	; 13120 <__libc_csu_init+0x58>
   130d4:	e59f5048 	ldr	r5, [pc, #72]	; 13124 <__libc_csu_init+0x5c>
   130d8:	e08f6006 	add	r6, pc, r6
   130dc:	e08f5005 	add	r5, pc, r5
   130e0:	e0466005 	sub	r6, r6, r5
   130e4:	e1a08001 	mov	r8, r1
   130e8:	e1a09002 	mov	r9, r2
   130ec:	ebfff69f 	bl	10b70 <_init>
   130f0:	e1b06146 	asrs	r6, r6, #2
   130f4:	08bd87f0 	popeq	{r4, r5, r6, r7, r8, r9, sl, pc}
   130f8:	e3a04000 	mov	r4, #0
   130fc:	e2844001 	add	r4, r4, #1
   13100:	e4953004 	ldr	r3, [r5], #4
   13104:	e1a02009 	mov	r2, r9
   13108:	e1a01008 	mov	r1, r8
   1310c:	e1a00007 	mov	r0, r7
   13110:	e12fff33 	blx	r3
   13114:	e1560004 	cmp	r6, r4
   13118:	1afffff7 	bne	130fc <__libc_csu_init+0x34>
   1311c:	e8bd87f0 	pop	{r4, r5, r6, r7, r8, r9, sl, pc}
   13120:	00010e1c 	andeq	r0, r1, ip, lsl lr
   13124:	00010e14 	andeq	r0, r1, r4, lsl lr

00013128 <__libc_csu_fini>:
   13128:	e12fff1e 	bx	lr

Disassembly of section .fini:

0001312c <_fini>:
   1312c:	e92d4008 	push	{r3, lr}
   13130:	e8bd8008 	pop	{r3, pc}

Disassembly of section .rodata:

00013134 <_IO_stdin_used>:
   13134:	00020001 	andeq	r0, r2, r1
   13138:	62656420 	rsbvs	r6, r5, #32, 8	; 0x20000000
   1313c:	6c206775 	stcvs	7, cr6, [r0], #-468	; 0xfffffe2c
   13140:	3a656e69 	bcc	196eaec <__bss_end__+0x194a7c8>
   13144:	000a6425 	andeq	r6, sl, r5, lsr #8
   13148:	6d6d6f63 	stclvs	15, cr6, [sp, #-396]!	; 0xfffffe74
   1314c:	20646e61 	rsbcs	r6, r4, r1, ror #28
   13150:	6e696f70 	mcrvs	15, 3, r6, cr9, cr0, {3}
   13154:	20726574 	rsbscs	r6, r2, r4, ror r5
   13158:	72646461 	rsbvc	r6, r4, #1627389952	; 0x61000000
   1315c:	7025203a 	eorvc	r2, r5, sl, lsr r0
   13160:	6e55000a 	cdpvs	0, 5, cr0, cr5, cr10, {0}
   13164:	656c6261 	strbvs	r6, [ip, #-609]!	; 0xfffffd9f
   13168:	206f7420 	rsbcs	r7, pc, r0, lsr #8
   1316c:	61657263 	cmnvs	r5, r3, ror #4
   13170:	73206574 			; <UNDEFINED> instruction: 0x73206574
   13174:	656b636f 	strbvs	r6, [fp, #-879]!	; 0xfffffc91
   13178:	20000a74 	andcs	r0, r0, r4, ror sl
   1317c:	75626564 	strbvc	r6, [r2, #-1380]!	; 0xfffffa9c
   13180:	696c2067 	stmdbvs	ip!, {r0, r1, r2, r5, r6, sp}^
   13184:	253a656e 	ldrcs	r6, [sl, #-1390]!	; 0xfffffa92
   13188:	6e550064 	cdpvs	0, 5, cr0, cr5, cr4, {3}
   1318c:	656c6261 	strbvs	r6, [ip, #-609]!	; 0xfffffd9f
   13190:	206f7420 	rsbcs	r7, pc, r0, lsr #8
   13194:	646e6962 	strbtvs	r6, [lr], #-2402	; 0xfffff69e
   13198:	636f7320 	cmnvs	pc, #32, 6	; 0x80000000
   1319c:	0a74656b 	beq	1d2c750 <__bss_end__+0x1d0842c>
   131a0:	616e5500 	cmnvs	lr, r0, lsl #10
   131a4:	20656c62 	rsbcs	r6, r5, r2, ror #24
   131a8:	6c206f74 	stcvs	15, cr6, [r0], #-464	; 0xfffffe30
   131ac:	65747369 	ldrbvs	r7, [r4, #-873]!	; 0xfffffc97
   131b0:	55000a6e 	strpl	r0, [r0, #-2670]	; 0xfffff592
   131b4:	6c62616e 	stfvse	f6, [r2], #-440	; 0xfffffe48
   131b8:	6f742065 	svcvs	0x00742065
   131bc:	63636120 	cmnvs	r3, #32, 2
   131c0:	20747065 	rsbscs	r7, r4, r5, rrx
   131c4:	20504354 	subscs	r4, r0, r4, asr r3
   131c8:	6e6e6f63 	cdpvs	15, 6, cr6, cr14, cr3, {3}
   131cc:	69746365 	ldmdbvs	r4!, {r0, r2, r5, r6, r8, r9, sp, lr}^
   131d0:	000a6e6f 	andeq	r6, sl, pc, ror #28
   131d4:	62616e55 	rsbvs	r6, r1, #1360	; 0x550
   131d8:	7420656c 	strtvc	r6, [r0], #-1388	; 0xfffffa94
   131dc:	6573206f 	ldrbvs	r2, [r3, #-111]!	; 0xffffff91
   131e0:	6f732074 	svcvs	0x00732074
   131e4:	74656b63 	strbtvc	r6, [r5], #-2915	; 0xfffff49d
   131e8:	74706f20 	ldrbtvc	r6, [r0], #-3872	; 0xfffff0e0
   131ec:	736e6f69 	cmnvc	lr, #420	; 0x1a4
   131f0:	4547000a 	strbmi	r0, [r7, #-10]
   131f4:	5d002054 	stcpl	0, cr2, [r0, #-336]	; 0xfffffeb0
   131f8:	74227b00 	strtvc	r7, [r2], #-2816	; 0xfffff500
   131fc:	22656d69 	rsbcs	r6, r5, #6720	; 0x1a40
   13200:	6425203a 	strtvs	r2, [r5], #-58	; 0xffffffc6
   13204:	6553007d 	ldrbvs	r0, [r3, #-125]	; 0xffffff83
   13208:	6e69646e 	cdpvs	4, 6, cr6, cr9, cr14, {3}
   1320c:	6f632067 	svcvs	0x00632067
   13210:	6e616d6d 	cdpvs	13, 6, cr6, cr1, cr13, {3}
   13214:	64252064 	strtvs	r2, [r5], #-100	; 0xffffff9c
   13218:	3a642520 	bcc	191c6a0 <__bss_end__+0x18f837c>
   1321c:	62206425 	eorvs	r6, r0, #620756992	; 0x25000000
   13220:	74737275 	ldrbtvc	r7, [r3], #-629	; 0xfffffd8b
   13224:	20402073 	subcs	r2, r0, r3, ror r0
   13228:	332e3425 			; <UNDEFINED> instruction: 0x332e3425
   1322c:	25282066 	strcs	r2, [r8, #-102]!	; 0xffffff9a
   13230:	66332e34 			; <UNDEFINED> instruction: 0x66332e34
   13234:	53000a29 	movwpl	r0, #2601	; 0xa29
   13238:	572d6365 	strpl	r6, [sp, -r5, ror #6]!
   1323c:	6f536265 	svcvs	0x00536265
   13240:	74656b63 	strbtvc	r6, [r5], #-2915	; 0xfffff49d
   13244:	79654b2d 	stmdbvc	r5!, {r0, r2, r3, r5, r8, r9, fp, lr}^
   13248:	3200203a 	andcc	r2, r0, #58	; 0x3a
   1324c:	41453835 	cmpmi	r5, r5, lsr r8
   13250:	2d354146 	ldfcss	f4, [r5, #-280]!	; 0xfffffee8
   13254:	34313945 	ldrtcc	r3, [r1], #-2373	; 0xfffff6bb
   13258:	4437342d 	ldrtmi	r3, [r7], #-1069	; 0xfffffbd3
   1325c:	35392d41 	ldrcc	r2, [r9, #-3393]!	; 0xfffff2bf
   13260:	432d4143 			; <UNDEFINED> instruction: 0x432d4143
   13264:	30424135 	subcc	r4, r2, r5, lsr r1
   13268:	35384344 	ldrcc	r4, [r8, #-836]!	; 0xfffffcbc
   1326c:	00313142 	eorseq	r3, r1, r2, asr #2
   13270:	50545448 	subspl	r5, r4, r8, asr #8
   13274:	312e312f 			; <UNDEFINED> instruction: 0x312e312f
   13278:	31303120 	teqcc	r0, r0, lsr #2
   1327c:	62655720 	rsbvs	r5, r5, #32, 14	; 0x800000
   13280:	636f5320 	cmnvs	pc, #32, 6	; 0x80000000
   13284:	5020746b 	eorpl	r7, r0, fp, ror #8
   13288:	6f746f72 	svcvs	0x00746f72
   1328c:	206c6f63 	rsbcs	r6, ip, r3, ror #30
   13290:	646e6148 	strbtvs	r6, [lr], #-328	; 0xfffffeb8
   13294:	6b616873 	blvs	186d468 <__bss_end__+0x1849144>
   13298:	550a0d65 	strpl	r0, [sl, #-3429]	; 0xfffff29b
   1329c:	61726770 	cmnvs	r2, r0, ror r7
   132a0:	203a6564 	eorscs	r6, sl, r4, ror #10
   132a4:	53626557 	cmnpl	r2, #364904448	; 0x15c00000
   132a8:	656b636f 	strbvs	r6, [fp, #-879]!	; 0xfffffc91
   132ac:	430a0d74 	movwmi	r0, #44404	; 0xad74
   132b0:	656e6e6f 	strbvs	r6, [lr, #-3695]!	; 0xfffff191
   132b4:	6f697463 	svcvs	0x00697463
   132b8:	55203a6e 	strpl	r3, [r0, #-2670]!	; 0xfffff592
   132bc:	61726770 	cmnvs	r2, r0, ror r7
   132c0:	0a0d6564 	beq	36c858 <__bss_end__+0x348534>
   132c4:	2d636553 	cfstr64cs	mvdx6, [r3, #-332]!	; 0xfffffeb4
   132c8:	53626557 	cmnpl	r2, #364904448	; 0x15c00000
   132cc:	656b636f 	strbvs	r6, [fp, #-879]!	; 0xfffffc91
   132d0:	63412d74 	movtvs	r2, #7540	; 0x1d74
   132d4:	74706563 	ldrbtvc	r6, [r0], #-1379	; 0xfffffa9d
   132d8:	7325203a 			; <UNDEFINED> instruction: 0x7325203a
   132dc:	63410a0d 	movtvs	r0, #6669	; 0x1a0d
   132e0:	2d736563 	cfldr64cs	mvdx6, [r3, #-396]!	; 0xfffffe74
   132e4:	746e6f43 	strbtvc	r6, [lr], #-3907	; 0xfffff0bd
   132e8:	2d6c6f72 	stclcs	15, cr6, [ip, #-456]!	; 0xfffffe38
   132ec:	6f6c6c41 	svcvs	0x006c6c41
   132f0:	65482d77 	strbvs	r2, [r8, #-3447]	; 0xfffff289
   132f4:	72656461 	rsbvc	r6, r5, #1627389952	; 0x61000000
   132f8:	78203a73 	stmdavc	r0!, {r0, r1, r4, r5, r6, r9, fp, ip, sp}
   132fc:	6265772d 	rsbvs	r7, r5, #11796480	; 0xb40000
   13300:	6b636f73 	blvs	18ef0d4 <__bss_end__+0x18cadb0>
   13304:	702d7465 	eorvc	r7, sp, r5, ror #8
   13308:	6f746f72 	svcvs	0x00746f72
   1330c:	0d6c6f63 	stcleq	15, cr6, [ip, #-396]!	; 0xfffffe74
   13310:	000a0d0a 	andeq	r0, sl, sl, lsl #26
   13314:	6d726554 	cfldr64vs	mvdx6, [r2, #-336]!	; 0xfffffeb0
   13318:	74616e69 	strbtvc	r6, [r1], #-3689	; 0xfffff197
   1331c:	20676e69 	rsbcs	r6, r7, r9, ror #28
   13320:	68746977 	ldmdavs	r4!, {r0, r1, r2, r4, r5, r6, r8, fp, sp, lr}^
   13324:	67697320 	strbvs	r7, [r9, -r0, lsr #6]!
   13328:	206c616e 	rsbcs	r6, ip, lr, ror #2
   1332c:	000a6425 	andeq	r6, sl, r5, lsr #8
   13330:	6d6d6f63 	stclvs	15, cr6, [sp, #-396]!	; 0xfffffe74
   13334:	20646e61 	rsbcs	r6, r4, r1, ror #28
   13338:	4e203d21 	cdpmi	13, 2, cr3, cr0, cr1, {1}
   1333c:	204c4c55 	subcs	r4, ip, r5, asr ip
   13340:	6e207c7c 	mcrvs	12, 1, r7, cr0, cr12, {3}
   13344:	5f747865 	svcpl	0x00747865
   13348:	6d6d6f63 	stclvs	15, cr6, [sp, #-396]!	; 0xfffffe74
   1334c:	20646e61 	rsbcs	r6, r4, r1, ror #28
   13350:	4e203d21 	cdpmi	13, 2, cr3, cr0, cr1, {1}
   13354:	004c4c55 	subeq	r4, ip, r5, asr ip
   13358:	705f6970 	subsvc	r6, pc, r0, ror r9	; <UNPREDICTABLE>
   1335c:	632e6d63 			; <UNDEFINED> instruction: 0x632e6d63
   13360:	746e6900 	strbtvc	r6, [lr], #-2304	; 0xfffff700
   13364:	6c696620 	stclvs	6, cr6, [r9], #-128	; 0xffffff80
   13368:	75625f6c 	strbvc	r5, [r2, #-3948]!	; 0xfffff094
   1336c:	72656666 	rsbvc	r6, r5, #106954752	; 0x6600000
   13370:	6e6f6328 	cdpvs	3, 6, cr6, cr15, cr8, {1}
   13374:	73207473 			; <UNDEFINED> instruction: 0x73207473
   13378:	63757274 	cmnvs	r5, #116, 4	; 0x40000007
   1337c:	6f632074 	svcvs	0x00632074
   13380:	6e616d6d 	cdpvs	13, 6, cr6, cr1, cr13, {3}
   13384:	6f6e5f64 	svcvs	0x006e5f64
   13388:	745f6564 	ldrbvc	r6, [pc], #-1380	; 13390 <_IO_stdin_used+0x25c>
   1338c:	6f632a20 	svcvs	0x00632a20
   13390:	2c74736e 	ldclcs	3, cr7, [r4], #-440	; 0xfffffe48
   13394:	6e6f6320 	cdpvs	3, 6, cr6, cr15, cr0, {1}
   13398:	73207473 			; <UNDEFINED> instruction: 0x73207473
   1339c:	63757274 	cmnvs	r5, #116, 4	; 0x40000007
   133a0:	6f632074 	svcvs	0x00632074
   133a4:	6e616d6d 	cdpvs	13, 6, cr6, cr1, cr13, {3}
   133a8:	6f6e5f64 	svcvs	0x006e5f64
   133ac:	745f6564 	ldrbvc	r6, [pc], #-1380	; 133b4 <_IO_stdin_used+0x280>
   133b0:	6f632a20 	svcvs	0x00632a20
   133b4:	2c74736e 	ldclcs	3, cr7, [r4], #-440	; 0xfffffe48
   133b8:	746e6920 	strbtvc	r6, [lr], #-2336	; 0xfffff6e0
   133bc:	65530029 	ldrbvs	r0, [r3, #-41]	; 0xffffffd7
   133c0:	6e69646e 	cdpvs	4, 6, cr6, cr9, cr14, {3}
   133c4:	6d632067 	stclvs	0, cr2, [r3, #-412]!	; 0xfffffe64
   133c8:	25203a64 	strcs	r3, [r0, #-2660]!	; 0xfffff59c
   133cc:	66250966 	strtvs	r0, [r5], -r6, ror #18
   133d0:	09642509 	stmdbeq	r4!, {r0, r3, r8, sl, sp}^
   133d4:	25096625 	strcs	r6, [r9, #-1573]	; 0xfffff9db
   133d8:	2a000a66 	bcs	15d78 <__FRAME_END__+0x25e0>
   133dc:	6d6d6f63 	stclvs	15, cr6, [sp, #-396]!	; 0xfffffe74
   133e0:	20646e61 	rsbcs	r6, r4, r1, ror #28
   133e4:	4e203d3d 	mcrmi	13, 1, r3, cr0, cr13, {1}
   133e8:	004c4c55 	subeq	r4, ip, r5, asr ip
   133ec:	20746e69 	rsbscs	r6, r4, r9, ror #28
   133f0:	73726170 	cmnvc	r2, #112, 2
   133f4:	736a5f65 	cmnvc	sl, #404	; 0x194
   133f8:	63286e6f 			; <UNDEFINED> instruction: 0x63286e6f
   133fc:	74736e6f 	ldrbtvc	r6, [r3], #-3695	; 0xfffff191
   13400:	61686320 	cmnvs	r8, r0, lsr #6
   13404:	632a2072 			; <UNDEFINED> instruction: 0x632a2072
   13408:	74736e6f 	ldrbtvc	r6, [r3], #-3695	; 0xfffff191
   1340c:	7473202c 	ldrbtvc	r2, [r3], #-44	; 0xffffffd4
   13410:	74637572 	strbtvc	r7, [r3], #-1394	; 0xfffffa8e
   13414:	6d6f6320 	stclvs	3, cr6, [pc, #-128]!	; 1339c <_IO_stdin_used+0x268>
   13418:	646e616d 	strbtvs	r6, [lr], #-365	; 0xfffffe93
   1341c:	646f6e5f 	strbtvs	r6, [pc], #-3679	; 13424 <_IO_stdin_used+0x2f0>
   13420:	20745f65 	rsbscs	r5, r4, r5, ror #30
   13424:	202c2a2a 	eorcs	r2, ip, sl, lsr #20
   13428:	20746e69 	rsbscs	r6, r4, r9, ror #28
   1342c:	6e6f632a 	cdpvs	3, 6, cr6, cr15, cr10, {1}
   13430:	00297473 	eoreq	r7, r9, r3, ror r4
   13434:	6f727265 	svcvs	0x00727265
   13438:	6f203a72 	svcvs	0x00203a72
   1343c:	696c206e 	stmdbvs	ip!, {r1, r2, r3, r5, r6, sp}^
   13440:	2520656e 	strcs	r6, [r0, #-1390]!	; 0xfffffa92
   13444:	25203a64 	strcs	r3, [r0, #-2660]!	; 0xfffff59c
   13448:	6e000a73 			; <UNDEFINED> instruction: 0x6e000a73
   1344c:	6120746f 			; <UNDEFINED> instruction: 0x6120746f
   13450:	4f534a20 	svcmi	0x00534a20
   13454:	7261204e 	rsbvc	r2, r1, #78	; 0x4e
   13458:	0a796172 	beq	1e6ba28 <__bss_end__+0x1e47704>
   1345c:	65744900 	ldrbvs	r4, [r4, #-2304]!	; 0xfffff700
   13460:	7a25206d 	bvc	95b61c <__bss_end__+0x9372f8>
   13464:	6e692075 	mcrvs	0, 3, r2, cr9, cr5, {3}
   13468:	72726120 	rsbsvc	r6, r2, #32, 2
   1346c:	69207961 	stmdbvs	r0!, {r0, r5, r6, r8, fp, ip, sp, lr}
   13470:	6f6e2073 	svcvs	0x006e2073
   13474:	6e612074 	mcrvs	0, 3, r2, cr1, cr4, {3}
   13478:	6a626f20 	bvs	18af100 <__bss_end__+0x188addc>
   1347c:	0a746365 	beq	1d2c218 <__bss_end__+0x1d07ef4>
   13480:	72756200 	rsbsvc	r6, r5, #0, 4
   13484:	755f7473 	ldrbvc	r7, [pc, #-1139]	; 13019 <json_decref+0x95>
   13488:	6e490073 	mcrvs	0, 2, r0, cr9, cr3, {3}
   1348c:	65746920 	ldrbvs	r6, [r4, #-2336]!	; 0xfffff6e0
   13490:	7a25206d 	bvc	95b64c <__bss_end__+0x937328>
   13494:	6d203a75 	vstmdbvs	r0!, {s6-s122}
   13498:	69737369 	ldmdbvs	r3!, {r0, r3, r5, r6, r8, r9, ip, sp, lr}^
   1349c:	6f20676e 	svcvs	0x0020676e
   134a0:	6e692072 	mcrvs	0, 3, r2, cr9, cr2, {3}
   134a4:	696c6176 	stmdbvs	ip!, {r1, r2, r4, r5, r6, r8, sp, lr}^
   134a8:	69662064 	stmdbvs	r6!, {r2, r5, r6, sp}^
   134ac:	3a646c65 	bcc	192e648 <__bss_end__+0x190a324>
   134b0:	72756220 	rsbsvc	r6, r5, #32, 4
   134b4:	755f7473 	ldrbvc	r7, [pc, #-1139]	; 13049 <print_usage+0x1d>
   134b8:	73000a73 	movwvc	r0, #2675	; 0xa73
   134bc:	69636170 	stmdbvs	r3!, {r4, r5, r6, r8, sp, lr}^
   134c0:	755f676e 	ldrbvc	r6, [pc, #-1902]	; 12d5a <sha1_transform+0x24e>
   134c4:	6e490073 	mcrvs	0, 2, r0, cr9, cr3, {3}
   134c8:	65746920 	ldrbvs	r6, [r4, #-2336]!	; 0xfffff6e0
   134cc:	7a25206d 	bvc	95b688 <__bss_end__+0x937364>
   134d0:	6d203a75 	vstmdbvs	r0!, {s6-s122}
   134d4:	69737369 	ldmdbvs	r3!, {r0, r3, r5, r6, r8, r9, ip, sp, lr}^
   134d8:	6f20676e 	svcvs	0x0020676e
   134dc:	6e692072 	mcrvs	0, 3, r2, cr9, cr2, {3}
   134e0:	696c6176 	stmdbvs	ip!, {r1, r2, r4, r5, r6, r8, sp, lr}^
   134e4:	69662064 	stmdbvs	r6!, {r2, r5, r6, sp}^
   134e8:	3a646c65 	bcc	192e684 <__bss_end__+0x190a360>
   134ec:	61707320 	cmnvs	r0, r0, lsr #6
   134f0:	676e6963 	strbvs	r6, [lr, -r3, ror #18]!
   134f4:	0a73755f 	beq	1cf0a78 <__bss_end__+0x1ccc754>
   134f8:	70657200 	rsbvc	r7, r5, r0, lsl #4
   134fc:	73746165 	cmnvc	r4, #1073741849	; 0x40000019
   13500:	206e4900 	rsbcs	r4, lr, r0, lsl #18
   13504:	6d657469 	cfstrdvs	mvd7, [r5, #-420]!	; 0xfffffe5c
   13508:	757a2520 	ldrbvc	r2, [sl, #-1312]!	; 0xfffffae0
   1350c:	696d203a 	stmdbvs	sp!, {r1, r3, r4, r5, sp}^
   13510:	6e697373 	mcrvs	3, 3, r7, cr9, cr3, {3}
   13514:	726f2067 	rsbvc	r2, pc, #103	; 0x67
   13518:	766e6920 	strbtvc	r6, [lr], -r0, lsr #18
   1351c:	64696c61 	strbtvs	r6, [r9], #-3169	; 0xfffff39f
   13520:	65696620 	strbvs	r6, [r9, #-1568]!	; 0xfffff9e0
   13524:	203a646c 	eorscs	r6, sl, ip, ror #8
   13528:	65706572 	ldrbvs	r6, [r0, #-1394]!	; 0xfffffa8e
   1352c:	0a737461 	beq	1cf06b8 <__bss_end__+0x1ccc394>
   13530:	206e4900 	rsbcs	r4, lr, r0, lsl #18
   13534:	6d657469 	cfstrdvs	mvd7, [r5, #-420]!	; 0xfffffe5c
   13538:	757a2520 	ldrbvc	r2, [sl, #-1312]!	; 0xfffffae0
   1353c:	696d203a 	stmdbvs	sp!, {r1, r3, r4, r5, sp}^
   13540:	6e697373 	mcrvs	3, 3, r7, cr9, cr3, {3}
   13544:	726f2067 	rsbvc	r2, pc, #103	; 0x67
   13548:	766e6920 	strbtvc	r6, [lr], -r0, lsr #18
   1354c:	64696c61 	strbtvs	r6, [r9], #-3169	; 0xfffff39f
   13550:	65696620 	strbvs	r6, [r9, #-1568]!	; 0xfffff9e0
   13554:	203a646c 	eorscs	r6, sl, ip, ror #8
   13558:	71657266 	cmnvc	r5, r6, ror #4
   1355c:	636e6575 	cmnvs	lr, #490733568	; 0x1d400000
   13560:	64000a79 	strvs	r0, [r0], #-2681	; 0xfffff587
   13564:	5f646165 	svcpl	0x00646165
   13568:	71657266 	cmnvc	r5, r6, ror #4
   1356c:	636e6575 	cmnvs	lr, #490733568	; 0x1d400000
   13570:	6e490079 	mcrvs	0, 2, r0, cr9, cr9, {3}
   13574:	65746920 	ldrbvs	r6, [r4, #-2336]!	; 0xfffff6e0
   13578:	7a25206d 	bvc	95b734 <__bss_end__+0x937410>
   1357c:	6d203a75 	vstmdbvs	r0!, {s6-s122}
   13580:	69737369 	ldmdbvs	r3!, {r0, r3, r5, r6, r8, r9, ip, sp, lr}^
   13584:	6f20676e 	svcvs	0x0020676e
   13588:	6e692072 	mcrvs	0, 3, r2, cr9, cr2, {3}
   1358c:	696c6176 	stmdbvs	ip!, {r1, r2, r4, r5, r6, r8, sp, lr}^
   13590:	69662064 	stmdbvs	r6!, {r2, r5, r6, sp}^
   13594:	3a646c65 	bcc	192e730 <__bss_end__+0x190a40c>
   13598:	61656420 	cmnvs	r5, r0, lsr #8
   1359c:	72665f64 	rsbvc	r5, r6, #100, 30	; 0x190
   135a0:	65757165 	ldrbvs	r7, [r5, #-357]!	; 0xfffffe9b
   135a4:	0a79636e 	beq	1e6c364 <__bss_end__+0x1e48040>
   135a8:	71657200 	cmnvc	r5, r0, lsl #4
   135ac:	74736575 	ldrbtvc	r6, [r3], #-1397	; 0xfffffa8b
   135b0:	7365725f 	cmnvc	r5, #-268435451	; 0xf0000005
   135b4:	736e6f70 	cmnvc	lr, #112, 30	; 0x1c0
   135b8:	65680065 	strbvs	r0, [r8, #-101]!	; 0xffffff9b
   135bc:	7600706c 	strvc	r7, [r0], -ip, rrx
   135c0:	6f627265 	svcvs	0x00627265
   135c4:	74006573 	strvc	r6, [r0], #-1395	; 0xfffffa8d
   135c8:	75007063 	strvc	r7, [r0, #-99]	; 0xffffff9d
   135cc:	70007064 	andvc	r7, r0, r4, rrx
   135d0:	0074726f 	rsbseq	r7, r4, pc, ror #4
   135d4:	3a707668 	bcc	1c30f7c <__bss_end__+0x1c0cc58>
   135d8:	55007574 	strpl	r7, [r0, #-1396]	; 0xfffffa8c
   135dc:	6f6e6b6e 	svcvs	0x006e6b6e
   135e0:	6f206e77 	svcvs	0x00206e77
   135e4:	6f697470 	svcvs	0x00697470
   135e8:	4f000a6e 	svcmi	0x00000a6e
   135ec:	20796c6e 	rsbscs	r6, r9, lr, ror #24
   135f0:	20656e6f 	rsbcs	r6, r5, pc, ror #28
   135f4:	2d20666f 	stccs	6, cr6, [r0, #-444]!	; 0xfffffe44
   135f8:	7063742d 	rsbvc	r7, r3, sp, lsr #8
   135fc:	646e6120 	strbtvs	r6, [lr], #-288	; 0xfffffee0
   13600:	752d2d20 	strvc	r2, [sp, #-3360]!	; 0xfffff2e0
   13604:	6d207064 	stcvs	0, cr7, [r0, #-400]!	; 0xfffffe70
   13608:	62207961 	eorvs	r7, r0, #1589248	; 0x184000
   1360c:	70732065 	rsbsvc	r2, r3, r5, rrx
   13610:	66696365 	strbtvs	r6, [r9], -r5, ror #6
   13614:	0a646569 	beq	192cbc0 <__bss_end__+0x190889c>
   13618:	61735500 	cmnvs	r3, r0, lsl #10
   1361c:	203a6567 	eorscs	r6, sl, r7, ror #10
   13620:	5b207325 	blpl	8302bc <__bss_end__+0x80bf98>
   13624:	4954504f 	ldmdbmi	r4, {r0, r1, r2, r3, r6, ip, lr}^
   13628:	5d534e4f 	ldclpl	14, cr4, [r3, #-316]	; 0xfffffec4
   1362c:	702d000a 	eorvc	r0, sp, sl
   13630:	2d2d202c 	stccs	0, cr2, [sp, #-176]!	; 0xffffff50
   13634:	74726f70 	ldrbtvc	r6, [r2], #-3952	; 0xfffff090
   13638:	20202020 	eorcs	r2, r0, r0, lsr #32
   1363c:	65685420 	strbvs	r5, [r8, #-1056]!	; 0xfffffbe0
   13640:	726f7020 	rsbvc	r7, pc, #32
   13644:	6f742074 	svcvs	0x00742074
   13648:	73696c20 	cmnvc	r9, #32, 24	; 0x2000
   1364c:	206e6574 	rsbcs	r6, lr, r4, ror r5
   13650:	20726f66 	rsbscs	r6, r2, r6, ror #30
   13654:	7373656d 	cmnvc	r3, #457179136	; 0x1b400000
   13658:	20736761 	rsbscs	r6, r3, r1, ror #14
   1365c:	0a2e6e6f 	beq	baf020 <__bss_end__+0xb8acfc>
   13660:	2c682d00 	stclcs	13, cr2, [r8], #-0
   13664:	682d2d20 	stmdavs	sp!, {r5, r8, sl, fp, sp}
   13668:	20706c65 	rsbscs	r6, r0, r5, ror #24
   1366c:	20202020 	eorcs	r2, r0, r0, lsr #32
   13670:	6e697250 	mcrvs	2, 3, r7, cr9, cr0, {2}
   13674:	68742074 	ldmdavs	r4!, {r2, r4, r5, r6, sp}^
   13678:	68207369 	stmdavs	r0!, {r0, r3, r5, r6, r8, r9, ip, sp, lr}
   1367c:	20706c65 	rsbscs	r6, r0, r5, ror #24
   13680:	7373656d 	cmnvc	r3, #457179136	; 0x1b400000
   13684:	2e656761 	cdpcs	7, 6, cr6, cr5, cr1, {3}
   13688:	762d000a 	strtvc	r0, [sp], -sl
   1368c:	2d2d202c 	stccs	0, cr2, [sp, #-176]!	; 0xffffff50
   13690:	62726576 	rsbsvs	r6, r2, #494927872	; 0x1d800000
   13694:	2065736f 	rsbcs	r7, r5, pc, ror #6
   13698:	69725020 	ldmdbvs	r2!, {r5, ip, lr}^
   1369c:	6d20746e 	cfstrsvs	mvf7, [r0, #-440]!	; 0xfffffe48
   136a0:	2065726f 	rsbcs	r7, r5, pc, ror #4
   136a4:	75626564 	strbvc	r6, [r2, #-1380]!	; 0xfffffa9c
   136a8:	6e696767 	cdpvs	7, 6, cr6, cr9, cr7, {3}
   136ac:	6e692067 	cdpvs	0, 6, cr2, cr9, cr7, {3}
   136b0:	6d726f66 	ldclvs	15, cr6, [r2, #-408]!	; 0xfffffe68
   136b4:	6f697461 	svcvs	0x00697461
   136b8:	000a2e6e 	andeq	r2, sl, lr, ror #28
   136bc:	202c742d 	eorcs	r7, ip, sp, lsr #8
   136c0:	63742d2d 	cmnvs	r4, #2880	; 0xb40
   136c4:	20202070 	eorcs	r2, r0, r0, ror r0
   136c8:	4c202020 	stcmi	0, cr2, [r0], #-128	; 0xffffff80
   136cc:	65747369 	ldrbvs	r7, [r4, #-873]!	; 0xfffffc97
   136d0:	6f66206e 	svcvs	0x0066206e
   136d4:	656d2072 	strbvs	r2, [sp, #-114]!	; 0xffffff8e
   136d8:	67617373 			; <UNDEFINED> instruction: 0x67617373
   136dc:	6f207365 	svcvs	0x00207365
   136e0:	2061206e 	rsbcs	r2, r1, lr, rrx
   136e4:	20504354 	subscs	r4, r0, r4, asr r3
   136e8:	6e6e6f63 	cdpvs	15, 6, cr6, cr14, cr3, {3}
   136ec:	69746365 	ldmdbvs	r4!, {r0, r2, r5, r6, r8, r9, sp, lr}^
   136f0:	0a2e6e6f 	beq	baf0b4 <__bss_end__+0xb8ad90>
   136f4:	2c752d00 	ldclcs	13, cr2, [r5], #-0
   136f8:	752d2d20 	strvc	r2, [sp, #-3360]!	; 0xfffff2e0
   136fc:	20207064 	eorcs	r7, r0, r4, rrx
   13700:	20202020 	eorcs	r2, r0, r0, lsr #32
   13704:	7473694c 	ldrbtvc	r6, [r3], #-2380	; 0xfffff6b4
   13708:	66206e65 	strtvs	r6, [r0], -r5, ror #28
   1370c:	6d20726f 	sfmvs	f7, 4, [r0, #-444]!	; 0xfffffe44
   13710:	61737365 	cmnvs	r3, r5, ror #6
   13714:	20736567 	rsbscs	r6, r3, r7, ror #10
   13718:	61206e6f 			; <UNDEFINED> instruction: 0x61206e6f
   1371c:	50445520 	subpl	r5, r4, r0, lsr #10
   13720:	6e6f6320 	cdpvs	3, 6, cr6, cr15, cr0, {1}
   13724:	7463656e 	strbtvc	r6, [r3], #-1390	; 0xfffffa92
   13728:	2e6e6f69 	cdpcs	15, 6, cr6, cr14, cr9, {3}
   1372c:	0000000a 	andeq	r0, r0, sl
   13730:	000135ba 			; <UNDEFINED> instruction: 0x000135ba
	...
   1373c:	00000068 	andeq	r0, r0, r8, rrx
   13740:	000135bf 			; <UNDEFINED> instruction: 0x000135bf
	...
   1374c:	00000076 	andeq	r0, r0, r6, ror r0
   13750:	000135c7 	andeq	r3, r1, r7, asr #11
	...
   1375c:	00000074 	andeq	r0, r0, r4, ror r0
   13760:	000135cb 	andeq	r3, r1, fp, asr #11
	...
   1376c:	00000075 	andeq	r0, r0, r5, ror r0
   13770:	000135cf 	andeq	r3, r1, pc, asr #11
   13774:	00000001 	andeq	r0, r0, r1
   13778:	00000000 	andeq	r0, r0, r0
   1377c:	00000070 	andeq	r0, r0, r0, ror r0
	...

Disassembly of section .ARM.exidx:

00013790 <.ARM.exidx>:
   13790:	7fffd604 	svcvc	0x00ffd604
   13794:	00000001 	andeq	r0, r0, r1

Disassembly of section .eh_frame:

00013798 <__FRAME_END__>:
   13798:	00000000 	andeq	r0, r0, r0

Disassembly of section .init_array:

00023ef8 <__frame_dummy_init_array_entry>:
   23ef8:	00010e80 	andeq	r0, r1, r0, lsl #29

Disassembly of section .fini_array:

00023efc <__do_global_dtors_aux_fini_array_entry>:
   23efc:	00010e58 	andeq	r0, r1, r8, asr lr

Disassembly of section .dynamic:

00023f00 <_DYNAMIC>:
   23f00:	00000001 	andeq	r0, r0, r1
   23f04:	00000001 	andeq	r0, r0, r1
   23f08:	00000001 	andeq	r0, r0, r1
   23f0c:	00000050 	andeq	r0, r0, r0, asr r0
   23f10:	00000001 	andeq	r0, r0, r1
   23f14:	000000b8 	strheq	r0, [r0], -r8
   23f18:	0000000c 	andeq	r0, r0, ip
   23f1c:	00010b70 	andeq	r0, r1, r0, ror fp
   23f20:	0000000d 	andeq	r0, r0, sp
   23f24:	0001312c 	andeq	r3, r1, ip, lsr #2
   23f28:	00000019 	andeq	r0, r0, r9, lsl r0
   23f2c:	00023ef8 	strdeq	r3, [r2], -r8
   23f30:	0000001b 	andeq	r0, r0, fp, lsl r0
   23f34:	00000004 	andeq	r0, r0, r4
   23f38:	0000001a 	andeq	r0, r0, sl, lsl r0
   23f3c:	00023efc 	strdeq	r3, [r2], -ip
   23f40:	0000001c 	andeq	r0, r0, ip, lsl r0
   23f44:	00000004 	andeq	r0, r0, r4
   23f48:	00000004 	andeq	r0, r0, r4
   23f4c:	000101b4 			; <UNDEFINED> instruction: 0x000101b4
   23f50:	6ffffef5 	svcvs	0x00fffef5
   23f54:	00010310 	andeq	r0, r1, r0, lsl r3
   23f58:	00000005 	andeq	r0, r0, r5
   23f5c:	00010784 	andeq	r0, r1, r4, lsl #15
   23f60:	00000006 	andeq	r0, r0, r6
   23f64:	00010484 	andeq	r0, r1, r4, lsl #9
   23f68:	0000000a 	andeq	r0, r0, sl
   23f6c:	000001eb 	andeq	r0, r0, fp, ror #3
   23f70:	0000000b 	andeq	r0, r0, fp
   23f74:	00000010 	andeq	r0, r0, r0, lsl r0
   23f78:	00000015 	andeq	r0, r0, r5, lsl r0
   23f7c:	00000000 	andeq	r0, r0, r0
   23f80:	00000003 	andeq	r0, r0, r3
   23f84:	00024000 	andeq	r4, r2, r0
   23f88:	00000002 	andeq	r0, r0, r2
   23f8c:	00000158 	andeq	r0, r0, r8, asr r1
   23f90:	00000014 	andeq	r0, r0, r4, lsl r0
   23f94:	00000011 	andeq	r0, r0, r1, lsl r0
   23f98:	00000017 	andeq	r0, r0, r7, lsl r0
   23f9c:	00010a18 	andeq	r0, r1, r8, lsl sl
   23fa0:	00000011 	andeq	r0, r0, r1, lsl r0
   23fa4:	00010a00 	andeq	r0, r1, r0, lsl #20
   23fa8:	00000012 	andeq	r0, r0, r2, lsl r0
   23fac:	00000018 	andeq	r0, r0, r8, lsl r0
   23fb0:	00000013 	andeq	r0, r0, r3, lsl r0
   23fb4:	00000008 	andeq	r0, r0, r8
   23fb8:	6ffffffe 	svcvs	0x00fffffe
   23fbc:	000109d0 	ldrdeq	r0, [r1], -r0	; <UNPREDICTABLE>
   23fc0:	6fffffff 	svcvs	0x00ffffff
   23fc4:	00000001 	andeq	r0, r0, r1
   23fc8:	6ffffff0 	svcvs	0x00fffff0
   23fcc:	00010970 	andeq	r0, r1, r0, ror r9
	...

Disassembly of section .got:

00024000 <_GLOBAL_OFFSET_TABLE_>:
   24000:	00023f00 	andeq	r3, r2, r0, lsl #30
	...
   2400c:	00010b7c 	andeq	r0, r1, ip, ror fp
   24010:	00010b7c 	andeq	r0, r1, ip, ror fp
   24014:	00010b7c 	andeq	r0, r1, ip, ror fp
   24018:	00010b7c 	andeq	r0, r1, ip, ror fp
   2401c:	00010b7c 	andeq	r0, r1, ip, ror fp
   24020:	00010b7c 	andeq	r0, r1, ip, ror fp
   24024:	00010b7c 	andeq	r0, r1, ip, ror fp
   24028:	00010b7c 	andeq	r0, r1, ip, ror fp
   2402c:	00010b7c 	andeq	r0, r1, ip, ror fp
   24030:	00010b7c 	andeq	r0, r1, ip, ror fp
   24034:	00010b7c 	andeq	r0, r1, ip, ror fp
   24038:	00010b7c 	andeq	r0, r1, ip, ror fp
   2403c:	00010b7c 	andeq	r0, r1, ip, ror fp
   24040:	00010b7c 	andeq	r0, r1, ip, ror fp
   24044:	00010b7c 	andeq	r0, r1, ip, ror fp
   24048:	00010b7c 	andeq	r0, r1, ip, ror fp
   2404c:	00010b7c 	andeq	r0, r1, ip, ror fp
   24050:	00010b7c 	andeq	r0, r1, ip, ror fp
   24054:	00010b7c 	andeq	r0, r1, ip, ror fp
   24058:	00010b7c 	andeq	r0, r1, ip, ror fp
   2405c:	00010b7c 	andeq	r0, r1, ip, ror fp
   24060:	00010b7c 	andeq	r0, r1, ip, ror fp
   24064:	00010b7c 	andeq	r0, r1, ip, ror fp
   24068:	00010b7c 	andeq	r0, r1, ip, ror fp
   2406c:	00010b7c 	andeq	r0, r1, ip, ror fp
   24070:	00010b7c 	andeq	r0, r1, ip, ror fp
   24074:	00010b7c 	andeq	r0, r1, ip, ror fp
   24078:	00010b7c 	andeq	r0, r1, ip, ror fp
   2407c:	00010b7c 	andeq	r0, r1, ip, ror fp
   24080:	00010b7c 	andeq	r0, r1, ip, ror fp
   24084:	00010b7c 	andeq	r0, r1, ip, ror fp
   24088:	00010b7c 	andeq	r0, r1, ip, ror fp
   2408c:	00010b7c 	andeq	r0, r1, ip, ror fp
   24090:	00010b7c 	andeq	r0, r1, ip, ror fp
   24094:	00010b7c 	andeq	r0, r1, ip, ror fp
   24098:	00010b7c 	andeq	r0, r1, ip, ror fp
   2409c:	00010b7c 	andeq	r0, r1, ip, ror fp
   240a0:	00010b7c 	andeq	r0, r1, ip, ror fp
   240a4:	00010b7c 	andeq	r0, r1, ip, ror fp
   240a8:	00010b7c 	andeq	r0, r1, ip, ror fp
   240ac:	00010b7c 	andeq	r0, r1, ip, ror fp
   240b0:	00010b7c 	andeq	r0, r1, ip, ror fp
   240b4:	00010b7c 	andeq	r0, r1, ip, ror fp
   240b8:	00000000 	andeq	r0, r0, r0

Disassembly of section .data:

000240bc <__data_start>:
   240bc:	00000000 	andeq	r0, r0, r0

000240c0 <__dso_handle>:
   240c0:	00000000 	andeq	r0, r0, r0

000240c4 <base64en>:
   240c4:	44434241 	strbmi	r4, [r3], #-577	; 0xfffffdbf
   240c8:	48474645 	stmdami	r7, {r0, r2, r6, r9, sl, lr}^
   240cc:	4c4b4a49 	mcrrmi	10, 4, r4, fp, cr9
   240d0:	504f4e4d 	subpl	r4, pc, sp, asr #28
   240d4:	54535251 	ldrbpl	r5, [r3], #-593	; 0xfffffdaf
   240d8:	58575655 	ldmdapl	r7, {r0, r2, r4, r6, r9, sl, ip, lr}^
   240dc:	62615a59 	rsbvs	r5, r1, #364544	; 0x59000
   240e0:	66656463 	strbtvs	r6, [r5], -r3, ror #8
   240e4:	6a696867 	bvs	1a7e288 <__bss_end__+0x1a59f64>
   240e8:	6e6d6c6b 	cdpvs	12, 6, cr6, cr13, cr11, {3}
   240ec:	7271706f 	rsbsvc	r7, r1, #111	; 0x6f
   240f0:	76757473 			; <UNDEFINED> instruction: 0x76757473
   240f4:	7a797877 	bvc	1e822d8 <__bss_end__+0x1e5dfb4>
   240f8:	33323130 	teqcc	r2, #48, 2
   240fc:	37363534 			; <UNDEFINED> instruction: 0x37363534
   24100:	2f2b3938 	svccs	0x002b3938

Disassembly of section .bss:

00024108 <stderr@@GLIBC_2.4>:
	...

00024110 <optarg@@GLIBC_2.4>:
   24110:	00000000 	andeq	r0, r0, r0

00024114 <completed.10783>:
   24114:	00000000 	andeq	r0, r0, r0

00024118 <socket_handle>:
   24118:	00000000 	andeq	r0, r0, r0

0002411c <tcp_socket_connection>:
   2411c:	00000000 	andeq	r0, r0, r0

00024120 <websocket>:
   24120:	00000000 	andeq	r0, r0, r0

00024124 <websocket_handshake_response.buffer>:
	...

Disassembly of section .comment:

00000000 <.comment>:
   0:	3a434347 	bcc	10d0d24 <__bss_end__+0x10aca00>
   4:	61522820 	cmpvs	r2, r0, lsr #16
   8:	69627073 	stmdbvs	r2!, {r0, r1, r4, r5, r6, ip, sp, lr}^
   c:	38206e61 	stmdacc	r0!, {r0, r5, r6, r9, sl, fp, sp, lr}
  10:	302e332e 	eorcc	r3, lr, lr, lsr #6
  14:	722b362d 	eorvc	r3, fp, #47185920	; 0x2d00000
  18:	29316970 	ldmdbcs	r1!, {r4, r5, r6, r8, fp, sp, lr}
  1c:	332e3820 			; <UNDEFINED> instruction: 0x332e3820
  20:	6300302e 	movwvs	r3, #46	; 0x2e
  24:	676e616c 	strbvs	r6, [lr, -ip, ror #2]!
  28:	72657620 	rsbvc	r7, r5, #32, 12	; 0x2000000
  2c:	6e6f6973 			; <UNDEFINED> instruction: 0x6e6f6973
  30:	302e3720 	eorcc	r3, lr, r0, lsr #14
  34:	382d312e 	stmdacc	sp!, {r1, r2, r3, r5, r8, ip, sp}
  38:	6970722b 	ldmdbvs	r0!, {r0, r1, r3, r5, r9, ip, sp, lr}^
  3c:	65642b33 	strbvs	r2, [r4, #-2867]!	; 0xfffff4cd
  40:	75303162 	ldrvc	r3, [r0, #-354]!	; 0xfffffe9e
  44:	74282032 	strtvc	r2, [r8], #-50	; 0xffffffce
  48:	2f736761 	svccs	0x00736761
  4c:	454c4552 	strbmi	r4, [ip, #-1362]	; 0xfffffaae
  50:	5f455341 	svcpl	0x00455341
  54:	2f313037 	svccs	0x00313037
  58:	616e6966 	cmnvs	lr, r6, ror #18
  5c:	Address 0x0000005c is out of bounds.


Disassembly of section .ARM.attributes:

00000000 <.ARM.attributes>:
   0:	00003241 	andeq	r3, r0, r1, asr #4
   4:	61656100 	cmnvs	r5, r0, lsl #2
   8:	01006962 	tsteq	r0, r2, ror #18
   c:	00000028 	andeq	r0, r0, r8, lsr #32
  10:	06003605 	streq	r3, [r0], -r5, lsl #12
  14:	09010806 	stmdbeq	r1, {r1, r2, fp}
  18:	11020a01 	tstne	r2, r1, lsl #20
  1c:	13041201 	movwne	r1, #16897	; 0x4201
  20:	15011401 	strne	r1, [r1, #-1025]	; 0xfffffbff
  24:	18031701 	stmdane	r3, {r0, r8, r9, sl, ip}
  28:	1a011901 	bne	46434 <__bss_end__+0x22110>
  2c:	22011c02 	andcs	r1, r1, #512	; 0x200
  30:	Address 0x00000030 is out of bounds.

