
cfi_ff:     file format elf32-littlearm


Disassembly of section .init:

000085fc <_init>:
    85fc:	e92d4008 	push	{r3, lr}
    8600:	eb000041 	bl	870c <call_weak_fn>
    8604:	e8bd8008 	pop	{r3, pc}

Disassembly of section .plt:

00008608 <__libc_start_main@plt-0x14>:
    8608:	e52de004 	push	{lr}		; (str lr, [sp, #-4]!)
    860c:	e59fe004 	ldr	lr, [pc, #4]	; 8618 <_init+0x1c>
    8610:	e08fe00e 	add	lr, pc, lr
    8614:	e5bef008 	ldr	pc, [lr, #8]!
    8618:	00002a1c 	andeq	r2, r0, ip, lsl sl

0000861c <__libc_start_main@plt>:
    861c:	e28fc600 	add	ip, pc, #0, 12
    8620:	e28cca02 	add	ip, ip, #8192	; 0x2000
    8624:	e5bcfa1c 	ldr	pc, [ip, #2588]!	; 0xa1c

00008628 <abort@plt>:
    8628:	e28fc600 	add	ip, pc, #0, 12
    862c:	e28cca02 	add	ip, ip, #8192	; 0x2000
    8630:	e5bcfa14 	ldr	pc, [ip, #2580]!	; 0xa14

00008634 <__gmon_start__@plt>:
    8634:	e28fc600 	add	ip, pc, #0, 12
    8638:	e28cca02 	add	ip, ip, #8192	; 0x2000
    863c:	e5bcfa0c 	ldr	pc, [ip, #2572]!	; 0xa0c

00008640 <clock_gettime@plt>:
    8640:	e28fc600 	add	ip, pc, #0, 12
    8644:	e28cca02 	add	ip, ip, #8192	; 0x2000
    8648:	e5bcfa04 	ldr	pc, [ip, #2564]!	; 0xa04

0000864c <printf@plt>:
    864c:	e28fc600 	add	ip, pc, #0, 12
    8650:	e28cca02 	add	ip, ip, #8192	; 0x2000
    8654:	e5bcf9fc 	ldr	pc, [ip, #2556]!	; 0x9fc

00008658 <strlen@plt>:
    8658:	e28fc600 	add	ip, pc, #0, 12
    865c:	e28cca02 	add	ip, ip, #8192	; 0x2000
    8660:	e5bcf9f4 	ldr	pc, [ip, #2548]!	; 0x9f4

00008664 <strncmp@plt>:
    8664:	e28fc600 	add	ip, pc, #0, 12
    8668:	e28cca02 	add	ip, ip, #8192	; 0x2000
    866c:	e5bcf9ec 	ldr	pc, [ip, #2540]!	; 0x9ec

00008670 <strcmp@plt>:
    8670:	e28fc600 	add	ip, pc, #0, 12
    8674:	e28cca02 	add	ip, ip, #8192	; 0x2000
    8678:	e5bcf9e4 	ldr	pc, [ip, #2532]!	; 0x9e4

0000867c <tdTurnOn@plt>:
    867c:	e28fc600 	add	ip, pc, #0, 12
    8680:	e28cca02 	add	ip, ip, #8192	; 0x2000
    8684:	e5bcf9dc 	ldr	pc, [ip, #2524]!	; 0x9dc

00008688 <tdTurnOff@plt>:
    8688:	e28fc600 	add	ip, pc, #0, 12
    868c:	e28cca02 	add	ip, ip, #8192	; 0x2000
    8690:	e5bcf9d4 	ldr	pc, [ip, #2516]!	; 0x9d4

00008694 <tdInit@plt>:
    8694:	e28fc600 	add	ip, pc, #0, 12
    8698:	e28cca02 	add	ip, ip, #8192	; 0x2000
    869c:	e5bcf9cc 	ldr	pc, [ip, #2508]!	; 0x9cc

000086a0 <tdRegisterRawDeviceEvent@plt>:
    86a0:	e28fc600 	add	ip, pc, #0, 12
    86a4:	e28cca02 	add	ip, ip, #8192	; 0x2000
    86a8:	e5bcf9c4 	ldr	pc, [ip, #2500]!	; 0x9c4

000086ac <memcpy@plt>:
    86ac:	e28fc600 	add	ip, pc, #0, 12
    86b0:	e28cca02 	add	ip, ip, #8192	; 0x2000
    86b4:	e5bcf9bc 	ldr	pc, [ip, #2492]!	; 0x9bc

000086b8 <tdClose@plt>:
    86b8:	e28fc600 	add	ip, pc, #0, 12
    86bc:	e28cca02 	add	ip, ip, #8192	; 0x2000
    86c0:	e5bcf9b4 	ldr	pc, [ip, #2484]!	; 0x9b4

000086c4 <tdGetNumberOfDevices@plt>:
    86c4:	e28fc600 	add	ip, pc, #0, 12
    86c8:	e28cca02 	add	ip, ip, #8192	; 0x2000
    86cc:	e5bcf9ac 	ldr	pc, [ip, #2476]!	; 0x9ac

Disassembly of section .text:

000086d0 <_start>:
    86d0:	e3a0b000 	mov	fp, #0
    86d4:	e3a0e000 	mov	lr, #0
    86d8:	e49d1004 	pop	{r1}		; (ldr r1, [sp], #4)
    86dc:	e1a0200d 	mov	r2, sp
    86e0:	e52d2004 	push	{r2}		; (str r2, [sp, #-4]!)
    86e4:	e52d0004 	push	{r0}		; (str r0, [sp, #-4]!)
    86e8:	e59fc010 	ldr	ip, [pc, #16]	; 8700 <_start+0x30>
    86ec:	e52dc004 	push	{ip}		; (str ip, [sp, #-4]!)
    86f0:	e59f000c 	ldr	r0, [pc, #12]	; 8704 <_start+0x34>
    86f4:	e59f300c 	ldr	r3, [pc, #12]	; 8708 <_start+0x38>
    86f8:	ebffffc7 	bl	861c <__libc_start_main@plt>
    86fc:	ebffffc9 	bl	8628 <abort@plt>
    8700:	00008ed0 	ldrdeq	r8, [r0], -r0
    8704:	00008d88 	andeq	r8, r0, r8, lsl #27
    8708:	00008e70 	andeq	r8, r0, r0, ror lr

0000870c <call_weak_fn>:
    870c:	e59f3014 	ldr	r3, [pc, #20]	; 8728 <call_weak_fn+0x1c>
    8710:	e59f2014 	ldr	r2, [pc, #20]	; 872c <call_weak_fn+0x20>
    8714:	e08f3003 	add	r3, pc, r3
    8718:	e7932002 	ldr	r2, [r3, r2]
    871c:	e3520000 	cmp	r2, #0
    8720:	012fff1e 	bxeq	lr
    8724:	eaffffc2 	b	8634 <__gmon_start__@plt>
    8728:	00002918 	andeq	r2, r0, r8, lsl r9
    872c:	fffffffc 			; <UNDEFINED> instruction: 0xfffffffc

00008730 <deregister_tm_clones>:
    8730:	e59f0018 	ldr	r0, [pc, #24]	; 8750 <deregister_tm_clones+0x20>
    8734:	e59f3018 	ldr	r3, [pc, #24]	; 8754 <deregister_tm_clones+0x24>
    8738:	e1530000 	cmp	r3, r0
    873c:	012fff1e 	bxeq	lr
    8740:	e59f3010 	ldr	r3, [pc, #16]	; 8758 <deregister_tm_clones+0x28>
    8744:	e3530000 	cmp	r3, #0
    8748:	012fff1e 	bxeq	lr
    874c:	e12fff13 	bx	r3
    8750:	0000b030 	andeq	fp, r0, r0, lsr r0
    8754:	0000b030 	andeq	fp, r0, r0, lsr r0
    8758:	00000000 	andeq	r0, r0, r0

0000875c <register_tm_clones>:
    875c:	e59f0024 	ldr	r0, [pc, #36]	; 8788 <register_tm_clones+0x2c>
    8760:	e59f1024 	ldr	r1, [pc, #36]	; 878c <register_tm_clones+0x30>
    8764:	e0411000 	sub	r1, r1, r0
    8768:	e1a01141 	asr	r1, r1, #2
    876c:	e0811fa1 	add	r1, r1, r1, lsr #31
    8770:	e1b010c1 	asrs	r1, r1, #1
    8774:	012fff1e 	bxeq	lr
    8778:	e59f3010 	ldr	r3, [pc, #16]	; 8790 <register_tm_clones+0x34>
    877c:	e3530000 	cmp	r3, #0
    8780:	012fff1e 	bxeq	lr
    8784:	e12fff13 	bx	r3
    8788:	0000b030 	andeq	fp, r0, r0, lsr r0
    878c:	0000b030 	andeq	fp, r0, r0, lsr r0
    8790:	00000000 	andeq	r0, r0, r0

00008794 <__do_global_dtors_aux>:
    8794:	e92d4010 	push	{r4, lr}
    8798:	e59f4018 	ldr	r4, [pc, #24]	; 87b8 <__do_global_dtors_aux+0x24>
    879c:	e5d43000 	ldrb	r3, [r4]
    87a0:	e3530000 	cmp	r3, #0
    87a4:	18bd8010 	popne	{r4, pc}
    87a8:	ebffffe0 	bl	8730 <deregister_tm_clones>
    87ac:	e3a03001 	mov	r3, #1
    87b0:	e5c43000 	strb	r3, [r4]
    87b4:	e8bd8010 	pop	{r4, pc}
    87b8:	0000b080 	andeq	fp, r0, r0, lsl #1

000087bc <frame_dummy>:
    87bc:	eaffffe6 	b	875c <register_tm_clones>

000087c0 <listen_to_events>:
    87c0:	e92d4800 	push	{fp, lr}
    87c4:	e1a0b00d 	mov	fp, sp
    87c8:	e24dd090 	sub	sp, sp, #144	; 0x90
    87cc:	e59fc324 	ldr	ip, [pc, #804]	; 8af8 <listen_to_events+0x338>
    87d0:	e59fe324 	ldr	lr, [pc, #804]	; 8afc <listen_to_events+0x33c>
    87d4:	e50b0004 	str	r0, [fp, #-4]
    87d8:	e50b1008 	str	r1, [fp, #-8]
    87dc:	e50b200c 	str	r2, [fp, #-12]
    87e0:	e50b3010 	str	r3, [fp, #-16]
    87e4:	e3a00001 	mov	r0, #1
    87e8:	e24b1018 	sub	r1, fp, #24
    87ec:	e58de038 	str	lr, [sp, #56]	; 0x38
    87f0:	e58dc034 	str	ip, [sp, #52]	; 0x34
    87f4:	ebffff91 	bl	8640 <clock_gettime@plt>
    87f8:	e51b1018 	ldr	r1, [fp, #-24]	; 0xffffffe8
    87fc:	e51b2014 	ldr	r2, [fp, #-20]	; 0xffffffec
    8800:	e59f32f8 	ldr	r3, [pc, #760]	; 8b00 <listen_to_events+0x340>
    8804:	e752f312 	smmul	r2, r2, r3
    8808:	e1a03942 	asr	r3, r2, #18
    880c:	e0832fa2 	add	r2, r3, r2, lsr #31
    8810:	e3a03ffa 	mov	r3, #1000	; 0x3e8
    8814:	e0212391 	mla	r1, r1, r3, r2
    8818:	e1a02fc1 	asr	r2, r1, #31
    881c:	e50b1020 	str	r1, [fp, #-32]	; 0xffffffe0
    8820:	e50b201c 	str	r2, [fp, #-28]	; 0xffffffe4
    8824:	e3a01000 	mov	r1, #0
    8828:	e54b1021 	strb	r1, [fp, #-33]	; 0xffffffdf
    882c:	e59d1034 	ldr	r1, [sp, #52]	; 0x34
    8830:	e58d0030 	str	r0, [sp, #48]	; 0x30
    8834:	e1a00001 	mov	r0, r1
    8838:	e59d1038 	ldr	r1, [sp, #56]	; 0x38
    883c:	ebffff82 	bl	864c <printf@plt>
    8840:	e59f12ac 	ldr	r1, [pc, #684]	; 8af4 <listen_to_events+0x334>
    8844:	e50b1028 	str	r1, [fp, #-40]	; 0xffffffd8
    8848:	e58d002c 	str	r0, [sp, #44]	; 0x2c
    884c:	e51b0028 	ldr	r0, [fp, #-40]	; 0xffffffd8
    8850:	e3500014 	cmp	r0, #20
    8854:	2a000098 	bcs	8abc <listen_to_events+0x2fc>
    8858:	e59f02a8 	ldr	r0, [pc, #680]	; 8b08 <listen_to_events+0x348>
    885c:	e59f12a8 	ldr	r1, [pc, #680]	; 8b0c <listen_to_events+0x34c>
    8860:	e51b2028 	ldr	r2, [fp, #-40]	; 0xffffffd8
    8864:	e0010192 	mul	r1, r2, r1
    8868:	e0800001 	add	r0, r0, r1
    886c:	e50b002c 	str	r0, [fp, #-44]	; 0xffffffd4
    8870:	e51b002c 	ldr	r0, [fp, #-44]	; 0xffffffd4
    8874:	e5900008 	ldr	r0, [r0, #8]
    8878:	ebffff76 	bl	8658 <strlen@plt>
    887c:	e50b0030 	str	r0, [fp, #-48]	; 0xffffffd0
    8880:	e51b0004 	ldr	r0, [fp, #-4]
    8884:	e51b102c 	ldr	r1, [fp, #-44]	; 0xffffffd4
    8888:	e5911008 	ldr	r1, [r1, #8]
    888c:	e51b2030 	ldr	r2, [fp, #-48]	; 0xffffffd0
    8890:	ebffff73 	bl	8664 <strncmp@plt>
    8894:	e3500000 	cmp	r0, #0
    8898:	1a000039 	bne	8984 <listen_to_events+0x1c4>
    889c:	e59f026c 	ldr	r0, [pc, #620]	; 8b10 <listen_to_events+0x350>
    88a0:	e51b1004 	ldr	r1, [fp, #-4]
    88a4:	e51b2030 	ldr	r2, [fp, #-48]	; 0xffffffd0
    88a8:	e0811002 	add	r1, r1, r2
    88ac:	e50b1034 	str	r1, [fp, #-52]	; 0xffffffcc
    88b0:	e50b0038 	str	r0, [fp, #-56]	; 0xffffffc8
    88b4:	e51b0038 	ldr	r0, [fp, #-56]	; 0xffffffc8
    88b8:	e3500004 	cmp	r0, #4
    88bc:	2a000013 	bcs	8910 <listen_to_events+0x150>
    88c0:	e59f0274 	ldr	r0, [pc, #628]	; 8b3c <listen_to_events+0x37c>
    88c4:	e59f1274 	ldr	r1, [pc, #628]	; 8b40 <listen_to_events+0x380>
    88c8:	e51b2038 	ldr	r2, [fp, #-56]	; 0xffffffc8
    88cc:	e59f3248 	ldr	r3, [pc, #584]	; 8b1c <listen_to_events+0x35c>
    88d0:	e0832202 	add	r2, r3, r2, lsl #4
    88d4:	e2423010 	sub	r3, r2, #16
    88d8:	e592c000 	ldr	ip, [r2]
    88dc:	e583c000 	str	ip, [r3]
    88e0:	e592c004 	ldr	ip, [r2, #4]
    88e4:	e583c004 	str	ip, [r3, #4]
    88e8:	e592c008 	ldr	ip, [r2, #8]
    88ec:	e583c008 	str	ip, [r3, #8]
    88f0:	e592200c 	ldr	r2, [r2, #12]
    88f4:	e583200c 	str	r2, [r3, #12]
    88f8:	e58d0028 	str	r0, [sp, #40]	; 0x28
    88fc:	e58d1024 	str	r1, [sp, #36]	; 0x24
    8900:	e51b0038 	ldr	r0, [fp, #-56]	; 0xffffffc8
    8904:	e2800001 	add	r0, r0, #1
    8908:	e50b0038 	str	r0, [fp, #-56]	; 0xffffffc8
    890c:	eaffffe8 	b	88b4 <listen_to_events+0xf4>
    8910:	e59f01f8 	ldr	r0, [pc, #504]	; 8b10 <listen_to_events+0x350>
    8914:	e50b003c 	str	r0, [fp, #-60]	; 0xffffffc4
    8918:	e51b0034 	ldr	r0, [fp, #-52]	; 0xffffffcc
    891c:	e59f11f0 	ldr	r1, [pc, #496]	; 8b14 <listen_to_events+0x354>
    8920:	ebffff52 	bl	8670 <strcmp@plt>
    8924:	e3500000 	cmp	r0, #0
    8928:	1a000001 	bne	8934 <listen_to_events+0x174>
    892c:	e59f01e4 	ldr	r0, [pc, #484]	; 8b18 <listen_to_events+0x358>
    8930:	e50b003c 	str	r0, [fp, #-60]	; 0xffffffc4
    8934:	e51b0020 	ldr	r0, [fp, #-32]	; 0xffffffe0
    8938:	e51b101c 	ldr	r1, [fp, #-28]	; 0xffffffe4
    893c:	e58d1044 	str	r1, [sp, #68]	; 0x44
    8940:	e58d0040 	str	r0, [sp, #64]	; 0x40
    8944:	e51b003c 	ldr	r0, [fp, #-60]	; 0xffffffc4
    8948:	e58d0048 	str	r0, [sp, #72]	; 0x48
    894c:	e51b002c 	ldr	r0, [fp, #-44]	; 0xffffffd4
    8950:	e5900008 	ldr	r0, [r0, #8]
    8954:	e58d004c 	str	r0, [sp, #76]	; 0x4c
    8958:	e59f01bc 	ldr	r0, [pc, #444]	; 8b1c <listen_to_events+0x35c>
    895c:	e59d1040 	ldr	r1, [sp, #64]	; 0x40
    8960:	e59d2044 	ldr	r2, [sp, #68]	; 0x44
    8964:	e59d3048 	ldr	r3, [sp, #72]	; 0x48
    8968:	e59dc04c 	ldr	ip, [sp, #76]	; 0x4c
    896c:	e580c03c 	str	ip, [r0, #60]	; 0x3c
    8970:	e5803038 	str	r3, [r0, #56]	; 0x38
    8974:	e5802034 	str	r2, [r0, #52]	; 0x34
    8978:	e5801030 	str	r1, [r0, #48]	; 0x30
    897c:	e3a00001 	mov	r0, #1
    8980:	e54b0021 	strb	r0, [fp, #-33]	; 0xffffffdf
    8984:	e51b002c 	ldr	r0, [fp, #-44]	; 0xffffffd4
    8988:	e5900000 	ldr	r0, [r0]
    898c:	e3500000 	cmp	r0, #0
    8990:	1a000003 	bne	89a4 <listen_to_events+0x1e4>
    8994:	e59f019c 	ldr	r0, [pc, #412]	; 8b38 <listen_to_events+0x378>
    8998:	ebffff2b 	bl	864c <printf@plt>
    899c:	e58d0020 	str	r0, [sp, #32]
    89a0:	ea000041 	b	8aac <listen_to_events+0x2ec>
    89a4:	e51b0004 	ldr	r0, [fp, #-4]
    89a8:	e51b102c 	ldr	r1, [fp, #-44]	; 0xffffffd4
    89ac:	e5911008 	ldr	r1, [r1, #8]
    89b0:	e51b2030 	ldr	r2, [fp, #-48]	; 0xffffffd0
    89b4:	ebffff2a 	bl	8664 <strncmp@plt>
    89b8:	e3500000 	cmp	r0, #0
    89bc:	1a000039 	bne	8aa8 <listen_to_events+0x2e8>
    89c0:	e51b0004 	ldr	r0, [fp, #-4]
    89c4:	e51b1030 	ldr	r1, [fp, #-48]	; 0xffffffd0
    89c8:	e0800001 	add	r0, r0, r1
    89cc:	e58d003c 	str	r0, [sp, #60]	; 0x3c
    89d0:	e59d003c 	ldr	r0, [sp, #60]	; 0x3c
    89d4:	e59f1144 	ldr	r1, [pc, #324]	; 8b20 <listen_to_events+0x360>
    89d8:	ebffff24 	bl	8670 <strcmp@plt>
    89dc:	e3500000 	cmp	r0, #0
    89e0:	1a000012 	bne	8a30 <listen_to_events+0x270>
    89e4:	e59f0144 	ldr	r0, [pc, #324]	; 8b30 <listen_to_events+0x370>
    89e8:	e51b102c 	ldr	r1, [fp, #-44]	; 0xffffffd4
    89ec:	e5911000 	ldr	r1, [r1]
    89f0:	ebffff15 	bl	864c <printf@plt>
    89f4:	e51b102c 	ldr	r1, [fp, #-44]	; 0xffffffd4
    89f8:	e5911004 	ldr	r1, [r1, #4]
    89fc:	e2011001 	and	r1, r1, #1
    8a00:	e3510000 	cmp	r1, #0
    8a04:	e58d001c 	str	r0, [sp, #28]
    8a08:	0a000004 	beq	8a20 <listen_to_events+0x260>
    8a0c:	e51b002c 	ldr	r0, [fp, #-44]	; 0xffffffd4
    8a10:	e5900000 	ldr	r0, [r0]
    8a14:	ebffff18 	bl	867c <tdTurnOn@plt>
    8a18:	e58d0018 	str	r0, [sp, #24]
    8a1c:	ea000002 	b	8a2c <listen_to_events+0x26c>
    8a20:	e59f010c 	ldr	r0, [pc, #268]	; 8b34 <listen_to_events+0x374>
    8a24:	ebffff08 	bl	864c <printf@plt>
    8a28:	e58d0014 	str	r0, [sp, #20]
    8a2c:	ea00001c 	b	8aa4 <listen_to_events+0x2e4>
    8a30:	e59d003c 	ldr	r0, [sp, #60]	; 0x3c
    8a34:	e59f10d8 	ldr	r1, [pc, #216]	; 8b14 <listen_to_events+0x354>
    8a38:	ebffff0c 	bl	8670 <strcmp@plt>
    8a3c:	e3500000 	cmp	r0, #0
    8a40:	1a000012 	bne	8a90 <listen_to_events+0x2d0>
    8a44:	e59f00dc 	ldr	r0, [pc, #220]	; 8b28 <listen_to_events+0x368>
    8a48:	e51b102c 	ldr	r1, [fp, #-44]	; 0xffffffd4
    8a4c:	e5911000 	ldr	r1, [r1]
    8a50:	ebfffefd 	bl	864c <printf@plt>
    8a54:	e51b102c 	ldr	r1, [fp, #-44]	; 0xffffffd4
    8a58:	e5911004 	ldr	r1, [r1, #4]
    8a5c:	e2011002 	and	r1, r1, #2
    8a60:	e3510000 	cmp	r1, #0
    8a64:	e58d0010 	str	r0, [sp, #16]
    8a68:	0a000004 	beq	8a80 <listen_to_events+0x2c0>
    8a6c:	e51b002c 	ldr	r0, [fp, #-44]	; 0xffffffd4
    8a70:	e5900000 	ldr	r0, [r0]
    8a74:	ebffff03 	bl	8688 <tdTurnOff@plt>
    8a78:	e58d000c 	str	r0, [sp, #12]
    8a7c:	ea000002 	b	8a8c <listen_to_events+0x2cc>
    8a80:	e59f00a4 	ldr	r0, [pc, #164]	; 8b2c <listen_to_events+0x36c>
    8a84:	ebfffef0 	bl	864c <printf@plt>
    8a88:	e58d0008 	str	r0, [sp, #8]
    8a8c:	ea000003 	b	8aa0 <listen_to_events+0x2e0>
    8a90:	e59f008c 	ldr	r0, [pc, #140]	; 8b24 <listen_to_events+0x364>
    8a94:	e51b1004 	ldr	r1, [fp, #-4]
    8a98:	ebfffeeb 	bl	864c <printf@plt>
    8a9c:	e58d0004 	str	r0, [sp, #4]
    8aa0:	eaffffff 	b	8aa4 <listen_to_events+0x2e4>
    8aa4:	eaffffff 	b	8aa8 <listen_to_events+0x2e8>
    8aa8:	eaffffff 	b	8aac <listen_to_events+0x2ec>
    8aac:	e51b0028 	ldr	r0, [fp, #-40]	; 0xffffffd8
    8ab0:	e2800001 	add	r0, r0, #1
    8ab4:	e50b0028 	str	r0, [fp, #-40]	; 0xffffffd8
    8ab8:	eaffff63 	b	884c <listen_to_events+0x8c>
    8abc:	e15b02d1 	ldrsb	r0, [fp, #-33]	; 0xffffffdf
    8ac0:	e3500000 	cmp	r0, #0
    8ac4:	1a000002 	bne	8ad4 <listen_to_events+0x314>
    8ac8:	e51b0020 	ldr	r0, [fp, #-32]	; 0xffffffe0
    8acc:	e51b101c 	ldr	r1, [fp, #-28]	; 0xffffffe4
    8ad0:	eb00001b 	bl	8b44 <react_to_pattern>
    8ad4:	e59f0028 	ldr	r0, [pc, #40]	; 8b04 <listen_to_events+0x344>
    8ad8:	e51b1008 	ldr	r1, [fp, #-8]
    8adc:	e51b200c 	ldr	r2, [fp, #-12]
    8ae0:	e51b3004 	ldr	r3, [fp, #-4]
    8ae4:	ebfffed8 	bl	864c <printf@plt>
    8ae8:	e58d0000 	str	r0, [sp]
    8aec:	e1a0d00b 	mov	sp, fp
    8af0:	e8bd8800 	pop	{fp, pc}
    8af4:	00000000 	andeq	r0, r0, r0
    8af8:	00009587 	andeq	r9, r0, r7, lsl #11
    8afc:	0000958d 	andeq	r9, r0, sp, lsl #11
    8b00:	431bde83 	tstmi	fp, #2096	; 0x830
    8b04:	000095e1 	andeq	r9, r0, r1, ror #11
    8b08:	0000918c 	andeq	r9, r0, ip, lsl #3
    8b0c:	0000000c 	andeq	r0, r0, ip
    8b10:	00000001 	andeq	r0, r0, r1
    8b14:	000092e7 	andeq	r9, r0, r7, ror #5
    8b18:	00000002 	andeq	r0, r0, r2
    8b1c:	0000b088 	andeq	fp, r0, r8, lsl #1
    8b20:	000092d8 	ldrdeq	r9, [r0], -r8
    8b24:	000095ce 	andeq	r9, r0, lr, asr #11
    8b28:	000095c1 	andeq	r9, r0, r1, asr #11
    8b2c:	000095b8 			; <UNDEFINED> instruction: 0x000095b8
    8b30:	000095ac 	andeq	r9, r0, ip, lsr #11
    8b34:	000095b8 			; <UNDEFINED> instruction: 0x000095b8
    8b38:	0000959e 	muleq	r0, lr, r5
    8b3c:	0000b088 	andeq	fp, r0, r8, lsl #1
    8b40:	00000004 	andeq	r0, r0, r4

00008b44 <react_to_pattern>:
    8b44:	e92d4800 	push	{fp, lr}
    8b48:	e1a0b00d 	mov	fp, sp
    8b4c:	e24dd048 	sub	sp, sp, #72	; 0x48
    8b50:	e59f2214 	ldr	r2, [pc, #532]	; 8d6c <react_to_pattern+0x228>
    8b54:	e59f3214 	ldr	r3, [pc, #532]	; 8d70 <react_to_pattern+0x22c>
    8b58:	e50b0008 	str	r0, [fp, #-8]
    8b5c:	e50b1004 	str	r1, [fp, #-4]
    8b60:	e51b0008 	ldr	r0, [fp, #-8]
    8b64:	e51b1004 	ldr	r1, [fp, #-4]
    8b68:	e2500efa 	subs	r0, r0, #4000	; 0xfa0
    8b6c:	e2c11000 	sbc	r1, r1, #0
    8b70:	e50b0010 	str	r0, [fp, #-16]
    8b74:	e50b100c 	str	r1, [fp, #-12]
    8b78:	e1a00002 	mov	r0, r2
    8b7c:	e1a01003 	mov	r1, r3
    8b80:	ebfffeb1 	bl	864c <printf@plt>
    8b84:	e59f11dc 	ldr	r1, [pc, #476]	; 8d68 <react_to_pattern+0x224>
    8b88:	e50b1014 	str	r1, [fp, #-20]	; 0xffffffec
    8b8c:	e58d0020 	str	r0, [sp, #32]
    8b90:	e51b0014 	ldr	r0, [fp, #-20]	; 0xffffffec
    8b94:	e3500006 	cmp	r0, #6
    8b98:	2a000070 	bcs	8d60 <react_to_pattern+0x21c>
    8b9c:	e59f01c4 	ldr	r0, [pc, #452]	; 8d68 <react_to_pattern+0x224>
    8ba0:	e51b1014 	ldr	r1, [fp, #-20]	; 0xffffffec
    8ba4:	e0811081 	add	r1, r1, r1, lsl #1
    8ba8:	e59f21c4 	ldr	r2, [pc, #452]	; 8d74 <react_to_pattern+0x230>
    8bac:	e0821101 	add	r1, r2, r1, lsl #2
    8bb0:	e50b1018 	str	r1, [fp, #-24]	; 0xffffffe8
    8bb4:	e3a01001 	mov	r1, #1
    8bb8:	e54b1019 	strb	r1, [fp, #-25]	; 0xffffffe7
    8bbc:	e50b0020 	str	r0, [fp, #-32]	; 0xffffffe0
    8bc0:	e51b0020 	ldr	r0, [fp, #-32]	; 0xffffffe0
    8bc4:	e3500004 	cmp	r0, #4
    8bc8:	2a000039 	bcs	8cb4 <react_to_pattern+0x170>
    8bcc:	e51b0020 	ldr	r0, [fp, #-32]	; 0xffffffe0
    8bd0:	e59f11a0 	ldr	r1, [pc, #416]	; 8d78 <react_to_pattern+0x234>
    8bd4:	e0810200 	add	r0, r1, r0, lsl #4
    8bd8:	e58d0024 	str	r0, [sp, #36]	; 0x24
    8bdc:	e59d0024 	ldr	r0, [sp, #36]	; 0x24
    8be0:	e5901000 	ldr	r1, [r0]
    8be4:	e5900004 	ldr	r0, [r0, #4]
    8be8:	e51b2010 	ldr	r2, [fp, #-16]
    8bec:	e51b300c 	ldr	r3, [fp, #-12]
    8bf0:	e0511002 	subs	r1, r1, r2
    8bf4:	e0d00003 	sbcs	r0, r0, r3
    8bf8:	e58d101c 	str	r1, [sp, #28]
    8bfc:	e58d0018 	str	r0, [sp, #24]
    8c00:	2a000003 	bcs	8c14 <react_to_pattern+0xd0>
    8c04:	eaffffff 	b	8c08 <react_to_pattern+0xc4>
    8c08:	e3a00000 	mov	r0, #0
    8c0c:	e54b0019 	strb	r0, [fp, #-25]	; 0xffffffe7
    8c10:	ea000027 	b	8cb4 <react_to_pattern+0x170>
    8c14:	e51b0018 	ldr	r0, [fp, #-24]	; 0xffffffe8
    8c18:	e5900004 	ldr	r0, [r0, #4]
    8c1c:	e59d1024 	ldr	r1, [sp, #36]	; 0x24
    8c20:	e5911008 	ldr	r1, [r1, #8]
    8c24:	e0000001 	and	r0, r0, r1
    8c28:	e3500000 	cmp	r0, #0
    8c2c:	1a000002 	bne	8c3c <react_to_pattern+0xf8>
    8c30:	e3a00000 	mov	r0, #0
    8c34:	e54b0019 	strb	r0, [fp, #-25]	; 0xffffffe7
    8c38:	ea00001d 	b	8cb4 <react_to_pattern+0x170>
    8c3c:	e59f0124 	ldr	r0, [pc, #292]	; 8d68 <react_to_pattern+0x224>
    8c40:	e59f1134 	ldr	r1, [pc, #308]	; 8d7c <react_to_pattern+0x238>
    8c44:	e51b2018 	ldr	r2, [fp, #-24]	; 0xffffffe8
    8c48:	e5922008 	ldr	r2, [r2, #8]
    8c4c:	e51b3020 	ldr	r3, [fp, #-32]	; 0xffffffe0
    8c50:	e0822103 	add	r2, r2, r3, lsl #2
    8c54:	e5922000 	ldr	r2, [r2]
    8c58:	e1520000 	cmp	r2, r0
    8c5c:	e58d1014 	str	r1, [sp, #20]
    8c60:	1a000000 	bne	8c68 <react_to_pattern+0x124>
    8c64:	ea000012 	b	8cb4 <react_to_pattern+0x170>
    8c68:	e59f010c 	ldr	r0, [pc, #268]	; 8d7c <react_to_pattern+0x238>
    8c6c:	e51b1018 	ldr	r1, [fp, #-24]	; 0xffffffe8
    8c70:	e5911008 	ldr	r1, [r1, #8]
    8c74:	e51b2020 	ldr	r2, [fp, #-32]	; 0xffffffe0
    8c78:	e0811102 	add	r1, r1, r2, lsl #2
    8c7c:	e5911000 	ldr	r1, [r1]
    8c80:	e59d2024 	ldr	r2, [sp, #36]	; 0x24
    8c84:	e592200c 	ldr	r2, [r2, #12]
    8c88:	e1510002 	cmp	r1, r2
    8c8c:	e58d0010 	str	r0, [sp, #16]
    8c90:	0a000002 	beq	8ca0 <react_to_pattern+0x15c>
    8c94:	e3a00000 	mov	r0, #0
    8c98:	e54b0019 	strb	r0, [fp, #-25]	; 0xffffffe7
    8c9c:	ea000004 	b	8cb4 <react_to_pattern+0x170>
    8ca0:	eaffffff 	b	8ca4 <react_to_pattern+0x160>
    8ca4:	e51b0020 	ldr	r0, [fp, #-32]	; 0xffffffe0
    8ca8:	e2800001 	add	r0, r0, #1
    8cac:	e50b0020 	str	r0, [fp, #-32]	; 0xffffffe0
    8cb0:	eaffffc2 	b	8bc0 <react_to_pattern+0x7c>
    8cb4:	e15b01d9 	ldrsb	r0, [fp, #-25]	; 0xffffffe7
    8cb8:	e3500000 	cmp	r0, #0
    8cbc:	0a000022 	beq	8d4c <react_to_pattern+0x208>
    8cc0:	e51b0018 	ldr	r0, [fp, #-24]	; 0xffffffe8
    8cc4:	e5900004 	ldr	r0, [r0, #4]
    8cc8:	e2000001 	and	r0, r0, #1
    8ccc:	e3500000 	cmp	r0, #0
    8cd0:	0a00000b 	beq	8d04 <react_to_pattern+0x1c0>
    8cd4:	e59f00a8 	ldr	r0, [pc, #168]	; 8d84 <react_to_pattern+0x240>
    8cd8:	e51b1014 	ldr	r1, [fp, #-20]	; 0xffffffec
    8cdc:	e51b2018 	ldr	r2, [fp, #-24]	; 0xffffffe8
    8ce0:	e5922000 	ldr	r2, [r2]
    8ce4:	ebfffe58 	bl	864c <printf@plt>
    8ce8:	e51b1018 	ldr	r1, [fp, #-24]	; 0xffffffe8
    8cec:	e5911000 	ldr	r1, [r1]
    8cf0:	e58d000c 	str	r0, [sp, #12]
    8cf4:	e1a00001 	mov	r0, r1
    8cf8:	ebfffe5f 	bl	867c <tdTurnOn@plt>
    8cfc:	e58d0008 	str	r0, [sp, #8]
    8d00:	ea000010 	b	8d48 <react_to_pattern+0x204>
    8d04:	e51b0018 	ldr	r0, [fp, #-24]	; 0xffffffe8
    8d08:	e5900004 	ldr	r0, [r0, #4]
    8d0c:	e2000002 	and	r0, r0, #2
    8d10:	e3500000 	cmp	r0, #0
    8d14:	0a00000a 	beq	8d44 <react_to_pattern+0x200>
    8d18:	e59f0060 	ldr	r0, [pc, #96]	; 8d80 <react_to_pattern+0x23c>
    8d1c:	e51b1014 	ldr	r1, [fp, #-20]	; 0xffffffec
    8d20:	e51b2018 	ldr	r2, [fp, #-24]	; 0xffffffe8
    8d24:	e5922000 	ldr	r2, [r2]
    8d28:	ebfffe47 	bl	864c <printf@plt>
    8d2c:	e51b1018 	ldr	r1, [fp, #-24]	; 0xffffffe8
    8d30:	e5911000 	ldr	r1, [r1]
    8d34:	e58d0004 	str	r0, [sp, #4]
    8d38:	e1a00001 	mov	r0, r1
    8d3c:	ebfffe51 	bl	8688 <tdTurnOff@plt>
    8d40:	e58d0000 	str	r0, [sp]
    8d44:	eaffffff 	b	8d48 <react_to_pattern+0x204>
    8d48:	eaffffff 	b	8d4c <react_to_pattern+0x208>
    8d4c:	eaffffff 	b	8d50 <react_to_pattern+0x20c>
    8d50:	e51b0014 	ldr	r0, [fp, #-20]	; 0xffffffec
    8d54:	e2800001 	add	r0, r0, #1
    8d58:	e50b0014 	str	r0, [fp, #-20]	; 0xffffffec
    8d5c:	eaffff8b 	b	8b90 <react_to_pattern+0x4c>
    8d60:	e1a0d00b 	mov	sp, fp
    8d64:	e8bd8800 	pop	{fp, pc}
    8d68:	00000000 	andeq	r0, r0, r0
    8d6c:	00009587 	andeq	r9, r0, r7, lsl #11
    8d70:	00009655 	andeq	r9, r0, r5, asr r6
    8d74:	00009280 	andeq	r9, r0, r0, lsl #5
    8d78:	0000b088 	andeq	fp, r0, r8, lsl #1
    8d7c:	00000002 	andeq	r0, r0, r2
    8d80:	0000967e 	andeq	r9, r0, lr, ror r6
    8d84:	00009666 	andeq	r9, r0, r6, ror #12

00008d88 <main>:
    8d88:	e92d4800 	push	{fp, lr}
    8d8c:	e1a0b00d 	mov	fp, sp
    8d90:	e24dd088 	sub	sp, sp, #136	; 0x88
    8d94:	e59f00bc 	ldr	r0, [pc, #188]	; 8e58 <main+0xd0>
    8d98:	e50b0004 	str	r0, [fp, #-4]
    8d9c:	ebfffe3c 	bl	8694 <tdInit@plt>
    8da0:	e59f00c4 	ldr	r0, [pc, #196]	; 8e6c <main+0xe4>
    8da4:	e59f10ac 	ldr	r1, [pc, #172]	; 8e58 <main+0xd0>
    8da8:	ebfffe3c 	bl	86a0 <tdRegisterRawDeviceEvent@plt>
    8dac:	e59f10b4 	ldr	r1, [pc, #180]	; 8e68 <main+0xe0>
    8db0:	e50b0008 	str	r0, [fp, #-8]
    8db4:	e51b0008 	ldr	r0, [fp, #-8]
    8db8:	e58d0010 	str	r0, [sp, #16]
    8dbc:	e12fff31 	blx	r1
    8dc0:	e59f109c 	ldr	r1, [pc, #156]	; 8e64 <main+0xdc>
    8dc4:	e58d000c 	str	r0, [sp, #12]
    8dc8:	e1a00001 	mov	r0, r1
    8dcc:	e59d1010 	ldr	r1, [sp, #16]
    8dd0:	e59d200c 	ldr	r2, [sp, #12]
    8dd4:	ebfffe1c 	bl	864c <printf@plt>
    8dd8:	e59f1078 	ldr	r1, [pc, #120]	; 8e58 <main+0xd0>
    8ddc:	e59f2078 	ldr	r2, [pc, #120]	; 8e5c <main+0xd4>
    8de0:	e59fe078 	ldr	lr, [pc, #120]	; 8e60 <main+0xd8>
    8de4:	e50b1014 	str	r1, [fp, #-20]	; 0xffffffec
    8de8:	e28d3014 	add	r3, sp, #20
    8dec:	e58d0008 	str	r0, [sp, #8]
    8df0:	e1a00003 	mov	r0, r3
    8df4:	e58d1004 	str	r1, [sp, #4]
    8df8:	e1a01002 	mov	r1, r2
    8dfc:	e1a0200e 	mov	r2, lr
    8e00:	ebfffe29 	bl	86ac <memcpy@plt>
    8e04:	e59d0004 	ldr	r0, [sp, #4]
    8e08:	e50b0014 	str	r0, [fp, #-20]	; 0xffffffec
    8e0c:	e51b0014 	ldr	r0, [fp, #-20]	; 0xffffffec
    8e10:	e350000a 	cmp	r0, #10
    8e14:	aa00000b 	bge	8e48 <main+0xc0>
    8e18:	e59f0038 	ldr	r0, [pc, #56]	; 8e58 <main+0xd0>
    8e1c:	e28d1014 	add	r1, sp, #20
    8e20:	e58d0000 	str	r0, [sp]
    8e24:	e1a00001 	mov	r0, r1
    8e28:	e59d1000 	ldr	r1, [sp]
    8e2c:	e59d2000 	ldr	r2, [sp]
    8e30:	e59d3000 	ldr	r3, [sp]
    8e34:	ebfffe61 	bl	87c0 <listen_to_events>
    8e38:	e51b0014 	ldr	r0, [fp, #-20]	; 0xffffffec
    8e3c:	e2800001 	add	r0, r0, #1
    8e40:	e50b0014 	str	r0, [fp, #-20]	; 0xffffffec
    8e44:	eafffff0 	b	8e0c <main+0x84>
    8e48:	ebfffe1a 	bl	86b8 <tdClose@plt>
    8e4c:	e59f0004 	ldr	r0, [pc, #4]	; 8e58 <main+0xd0>
    8e50:	e1a0d00b 	mov	sp, fp
    8e54:	e8bd8800 	pop	{fp, pc}
    8e58:	00000000 	andeq	r0, r0, r0
    8e5c:	000095f5 	strdeq	r9, [r0], -r5
    8e60:	00000060 	andeq	r0, r0, r0, rrx
    8e64:	000095ee 	andeq	r9, r0, lr, ror #11
    8e68:	000086c4 	andeq	r8, r0, r4, asr #13
    8e6c:	000087c0 	andeq	r8, r0, r0, asr #15

00008e70 <__libc_csu_init>:
    8e70:	e92d47f0 	push	{r4, r5, r6, r7, r8, r9, sl, lr}
    8e74:	e1a07000 	mov	r7, r0
    8e78:	e59f6048 	ldr	r6, [pc, #72]	; 8ec8 <__libc_csu_init+0x58>
    8e7c:	e59f5048 	ldr	r5, [pc, #72]	; 8ecc <__libc_csu_init+0x5c>
    8e80:	e08f6006 	add	r6, pc, r6
    8e84:	e08f5005 	add	r5, pc, r5
    8e88:	e0466005 	sub	r6, r6, r5
    8e8c:	e1a08001 	mov	r8, r1
    8e90:	e1a09002 	mov	r9, r2
    8e94:	ebfffdd8 	bl	85fc <_init>
    8e98:	e1b06146 	asrs	r6, r6, #2
    8e9c:	08bd87f0 	popeq	{r4, r5, r6, r7, r8, r9, sl, pc}
    8ea0:	e3a04000 	mov	r4, #0
    8ea4:	e2844001 	add	r4, r4, #1
    8ea8:	e4953004 	ldr	r3, [r5], #4
    8eac:	e1a02009 	mov	r2, r9
    8eb0:	e1a01008 	mov	r1, r8
    8eb4:	e1a00007 	mov	r0, r7
    8eb8:	e12fff33 	blx	r3
    8ebc:	e1560004 	cmp	r6, r4
    8ec0:	1afffff7 	bne	8ea4 <__libc_csu_init+0x34>
    8ec4:	e8bd87f0 	pop	{r4, r5, r6, r7, r8, r9, sl, pc}
    8ec8:	00002080 	andeq	r2, r0, r0, lsl #1
    8ecc:	00002078 	andeq	r2, r0, r8, ror r0

00008ed0 <__libc_csu_fini>:
    8ed0:	e12fff1e 	bx	lr

Disassembly of section .fini:

00008ed4 <_fini>:
    8ed4:	e92d4008 	push	{r3, lr}
    8ed8:	e8bd8008 	pop	{r3, pc}
